Certificate:
    Data:
        Version: 3 (0x2)
        Serial Number: 268435614 (0x1000009e)
    Signature Algorithm: sha1WithRSAEncryption
        Issuer: C=DE, ST=Hessen, O=privacyidea, CN=CA001
        Validity
            Not Before: Sep 27 07:57:55 2015 GMT
            Not After : Sep 26 07:57:55 2016 GMT
        Subject: CN=Steve Test/emailAddress=steve@openssl.org
        Subject Public Key Info:
            Public Key Algorithm: rsaEncryption
                Public-Key: (2048 bit)
                Modulus:
                    00:d2:81:89:20:51:48:0f:73:f4:11:32:24:d5:1f:
                    1c:fd:5c:f5:b6:e6:c5:f0:52:81:dc:d2:af:66:4a:
                    7c:93:31:61:5c:af:d1:6d:06:70:03:60:7c:72:0c:
                    88:dd:49:cd:9e:02:6c:d2:5a:d7:53:0f:f3:da:be:
                    69:64:b5:0f:0c:00:e3:b3:50:47:a3:b3:9b:ba:13:
                    50:d6:58:5a:4b:ab:39:e0:11:ca:0a:27:67:03:78:
                    22:66:6d:92:1e:1b:5c:49:ae:e6:6b:d1:8e:3b:9d:
                    06:d3:c6:ac:4d:53:43:10:ab:e8:96:c1:87:82:97:
                    99:8f:20:d3:99:12:37:31:84:e1:8a:ff:29:03:5f:
                    22:90:3e:7f:9b:e0:20:c1:ad:dc:ae:4c:39:1a:31:
                    96:17:02:8c:b2:d9:b4:0d:20:12:9b:7d:86:54:fd:
                    33:fd:c1:2a:62:46:f8:60:96:cf:6e:01:6f:22:df:
                    13:47:e7:97:ec:05:72:23:a3:62:f8:fa:ef:ac:9c:
                    72:f0:37:cb:2f:37:cf:90:a8:27:51:86:c6:d7:78:
                    08:8f:7e:25:a2:15:70:a2:fb:1c:b6:15:5e:a0:97:
                    8b:81:4c:09:28:8a:27:3b:94:bc:71:db:5b:71:37:
                    9a:2b:16:e0:6f:b5:c9:f5:4b:4f:20:ba:65:cf:af:
                    ad:ad
                Exponent: 65537 (0x10001)
        X509v3 extensions:
            X509v3 Key Usage: 
                Digital Signature, Key Encipherment
            X509v3 Basic Constraints: 
                CA:FALSE
            Netscape Cert Type: 
                SSL Server
            Netscape Comment: 
                OpenSSL Generated Server Certificate
            X509v3 Subject Key Identifier: 
                E5:25:6D:3E:AF:0D:DD:3F:4C:F2:45:19:39:D5:14:DB:7E:9C:C0:AD
            X509v3 Authority Key Identifier: 
                keyid:F4:A7:C0:CC:91:46:AF:64:F3:91:F2:27:F8:C8:B2:6F:8A:87:32:73
                DirName:/C=DE/ST=Hessen/O=privacyidea/CN=CA001
                serial:FB:C8:EB:AC:83:CD:12:07

            X509v3 Extended Key Usage: 
                TLS Web Server Authentication
    Signature Algorithm: sha1WithRSAEncryption
         2d:d1:f8:4b:05:0b:7a:ff:a9:94:82:d7:b0:39:30:b4:68:e8:
         c1:94:6d:69:da:7d:17:d4:e5:42:45:05:6b:50:fe:a7:81:f0:
         69:6b:d4:86:31:01:1c:46:b7:cc:3c:bc:71:97:c1:48:f3:b1:
         98:24:5a:cf:8b:6f:04:22:70:fb:42:f4:74:b7:12:1c:cc:69:
         49:10:2c:c0:42:6f:b4:a4:ed:0f:0a:b0:7d:6c:cc:0a:1e:12:
         1e:b4:9f:07:15:3e:05:8e:13:c3:c8:38:64:52:ef:64:56:66:
         52:c5:d1:a6:c0:6a:c0:26:04:3a:1e:c3:66:48:de:10:83:06:
         f2:8b:9e:ff:91:81:d8:e4:c4:2d:b6:da:51:aa:1c:e6:11:6f:
         3b:7d:e3:da:cb:10:3c:08:fd:90:71:6f:5c:12:4d:c0:ce:8e:
         c5:d9:00:af:83:28:08:00:8e:12:3d:1d:dc:17:1f:01:8f:6e:
         1d:b1:01:98:0f:ad:40:b5:fa:d2:8b:03:df:74:22:9a:64:1d:
         f8:cf:36:52:97:ba:94:f2:4b:4f:e5:7c:25:7f:a2:33:df:b4:
         f8:4c:63:01:c5:df:88:5b:83:74:d6:4c:e5:23:f4:29:eb:e9:
         1b:50:c0:e7:96:77:e9:bc:44:21:e1:00:6d:3e:7f:c6:10:dc:
         f1:9f:b8:aa
-----BEGIN CERTIFICATE-----
MIIECTCCAvGgAwIBAgIEEAAAnjANBgkqhkiG9w0BAQUFADBEMQswCQYDVQQGEwJE
RTEPMA0GA1UECAwGSGVzc2VuMRQwEgYDVQQKDAtwcml2YWN5aWRlYTEOMAwGA1UE
AwwFQ0EwMDEwHhcNMTUwOTI3MDc1NzU1WhcNMTYwOTI2MDc1NzU1WjA3MRMwEQYD
VQQDEwpTdGV2ZSBUZXN0MSAwHgYJKoZIhvcNAQkBFhFzdGV2ZUBvcGVuc3NsLm9y
ZzCCASIwDQYJKoZIhvcNAQEBBQADggEPADCCAQoCggEBANKBiSBRSA9z9BEyJNUf
HP1c9bbmxfBSgdzSr2ZKfJMxYVyv0W0GcANgfHIMiN1JzZ4CbNJa11MP89q+aWS1
DwwA47NQR6Ozm7oTUNZYWkurOeARygonZwN4ImZtkh4bXEmu5mvRjjudBtPGrE1T
QxCr6JbBh4KXmY8g05kSNzGE4Yr/KQNfIpA+f5vgIMGt3K5MORoxlhcCjLLZtA0g
Ept9hlT9M/3BKmJG+GCWz24BbyLfE0fnl+wFciOjYvj676yccvA3yy83z5CoJ1GG
xtd4CI9+JaIVcKL7HLYVXqCXi4FMCSiKJzuUvHHbW3E3misW4G+1yfVLTyC6Zc+v
ra0CAwEAAaOCAQ4wggEKMAsGA1UdDwQEAwIFoDAJBgNVHRMEAjAAMBEGCWCGSAGG
+EIBAQQEAwIGQDAzBglghkgBhvhCAQ0EJhYkT3BlblNTTCBHZW5lcmF0ZWQgU2Vy
dmVyIENlcnRpZmljYXRlMB0GA1UdDgQWBBTlJW0+rw3dP0zyRRk51RTbfpzArTB0
BgNVHSMEbTBrgBT0p8DMkUavZPOR8if4yLJviocyc6FIpEYwRDELMAkGA1UEBhMC
REUxDzANBgNVBAgMBkhlc3NlbjEUMBIGA1UECgwLcHJpdmFjeWlkZWExDjAMBgNV
BAMMBUNBMDAxggkA+8jrrIPNEgcwEwYDVR0lBAwwCgYIKwYBBQUHAwEwDQYJKoZI
hvcNAQEFBQADggEBAC3R+EsFC3r/qZSC17A5MLRo6MGUbWnafRfU5UJFBWtQ/qeB
8Glr1IYxARxGt8w8vHGXwUjzsZgkWs+LbwQicPtC9HS3EhzMaUkQLMBCb7Sk7Q8K
sH1szAoeEh60nwcVPgWOE8PIOGRS72RWZlLF0abAasAmBDoew2ZI3hCDBvKLnv+R
gdjkxC222lGqHOYRbzt949rLEDwI/ZBxb1wSTcDOjsXZAK+DKAgAjhI9HdwXHwGP
bh2xAZgPrUC1+tKLA990IppkHfjPNlKXupTyS0/lfCV/ojPftPhMYwHF34hbg3TW
TOUj9Cnr6RtQwOeWd+m8RCHhAG0+f8YQ3PGfuKo=
-----END CERTIFICATE-----
