Certificate:
    Data:
        Version: 3 (0x2)
        Serial Number: 268435707 (0x100000fb)
    Signature Algorithm: sha256WithRSAEncryption
        Issuer: C=DE, ST=Hessen, O=privacyidea, CN=CA001
        Validity
            Not Before: Jan  9 20:56:20 2019 GMT
            Not After : Jan  9 20:56:20 2020 GMT
        Subject: OU=realm1, CN=cornelius/emailAddress=user@localhost.localdomain
        Subject Public Key Info:
            Public Key Algorithm: rsaEncryption
                Public-Key: (2048 bit)
                Modulus:
                    00:f1:6f:b5:b1:75:fe:74:fc:0c:e5:53:37:62:b2:
                    78:5a:8e:5a:fa:22:e8:da:0d:92:f4:6c:0c:02:dd:
                    ed:8c:a8:80:32:97:f3:d4:b2:35:d4:5a:ff:68:ca:
                    3e:da:39:42:51:9f:b8:96:c6:0a:09:94:da:8a:c2:
                    52:3e:c0:12:10:90:ae:16:a0:4b:7a:44:d7:d6:42:
                    2e:01:a2:85:27:8b:0b:1b:c5:ed:95:00:49:80:85:
                    05:aa:fc:06:fa:c5:d0:35:31:7c:07:27:8e:e4:56:
                    75:47:c5:c8:51:42:a6:5e:6f:ce:78:ee:dc:81:27:
                    b3:18:a5:00:0a:61:fd:d9:1f:07:60:6b:59:65:27:
                    cb:8f:6a:32:cc:f1:c9:7b:a8:70:96:f5:02:f0:3c:
                    f8:f0:4b:80:d6:c7:8e:f5:a8:35:1c:ac:77:7c:93:
                    44:7a:6b:a0:e5:65:7b:57:57:64:bb:25:13:16:e2:
                    7a:72:a1:22:7b:50:d8:78:64:3f:d8:32:cf:6d:8d:
                    18:b2:c0:83:ea:8a:0d:0b:ee:f2:4e:c0:24:16:38:
                    93:24:8b:1d:fc:c7:1e:f4:03:19:da:37:0b:2c:9b:
                    ad:b2:e3:c7:e2:4c:19:3a:29:8f:a2:2d:bb:4a:52:
                    57:03:19:66:7c:69:6d:02:0c:6d:44:3a:99:47:dd:
                    00:63
                Exponent: 65537 (0x10001)
        X509v3 extensions:
            X509v3 Key Usage: 
                Digital Signature, Key Encipherment
            X509v3 Basic Constraints: 
                CA:FALSE
            Netscape Cert Type: 
                SSL Server
            Netscape Comment: 
                OpenSSL Generated Server Certificate
            X509v3 Subject Key Identifier: 
                63:3B:DC:1E:CD:76:3A:22:ED:EA:ED:C2:4A:5A:E7:54:69:1D:A9:AF
            X509v3 Authority Key Identifier: 
                keyid:F4:A7:C0:CC:91:46:AF:64:F3:91:F2:27:F8:C8:B2:6F:8A:87:32:73
                DirName:/C=DE/ST=Hessen/O=privacyidea/CN=CA001
                serial:FB:C8:EB:AC:83:CD:12:07

            X509v3 Extended Key Usage: 
                TLS Web Server Authentication
    Signature Algorithm: sha256WithRSAEncryption
         59:e1:1f:d1:d6:39:ac:bf:d4:57:f1:94:14:eb:e8:01:11:bd:
         72:88:f4:23:b8:81:37:b0:27:9a:c8:fc:07:15:e6:26:53:64:
         eb:d4:ae:b0:93:82:fe:33:b2:f3:50:9c:8f:ca:e2:20:5b:b4:
         a2:d8:ea:d4:b8:bf:23:30:17:63:79:a7:bb:05:f1:a7:d9:ab:
         a8:80:83:ae:67:30:2a:c0:a4:f0:e8:17:3a:c4:33:d5:d7:cb:
         79:de:0b:0b:9e:95:30:27:9f:18:2c:86:77:7b:8d:6f:33:81:
         62:ba:3c:da:e4:77:33:19:38:be:c4:b4:ed:7b:d2:8b:da:f2:
         95:8f:ae:ed:f8:7f:8f:44:6a:aa:56:ea:06:e5:ac:a3:c9:38:
         b4:ca:34:5f:38:1d:9b:2a:7c:4e:00:3e:ca:4b:87:da:43:0f:
         61:1d:60:81:a7:9e:c5:56:e2:55:89:ea:d9:41:d7:9c:08:60:
         17:5f:52:e6:d7:2a:de:18:a9:16:73:94:52:22:97:38:70:6a:
         bb:fd:99:f7:9a:6a:f8:39:d9:75:02:5b:d5:f5:e3:43:08:92:
         a5:73:a9:7f:70:cc:27:94:0d:20:8e:f0:3e:80:b4:8e:f1:0c:
         4b:b6:03:cb:75:d6:5c:90:73:02:05:84:5c:6b:53:1a:6f:51:
         e4:1b:b9:50
-----BEGIN CERTIFICATE-----
MIIEIjCCAwqgAwIBAgIEEAAA+zANBgkqhkiG9w0BAQsFADBEMQswCQYDVQQGEwJE
RTEPMA0GA1UECAwGSGVzc2VuMRQwEgYDVQQKDAtwcml2YWN5aWRlYTEOMAwGA1UE
AwwFQ0EwMDEwHhcNMTkwMTA5MjA1NjIwWhcNMjAwMTA5MjA1NjIwWjBQMQ8wDQYD
VQQLDAZyZWFsbTExEjAQBgNVBAMMCWNvcm5lbGl1czEpMCcGCSqGSIb3DQEJARYa
dXNlckBsb2NhbGhvc3QubG9jYWxkb21haW4wggEiMA0GCSqGSIb3DQEBAQUAA4IB
DwAwggEKAoIBAQDxb7Wxdf50/AzlUzdisnhajlr6IujaDZL0bAwC3e2MqIAyl/PU
sjXUWv9oyj7aOUJRn7iWxgoJlNqKwlI+wBIQkK4WoEt6RNfWQi4BooUniwsbxe2V
AEmAhQWq/Ab6xdA1MXwHJ47kVnVHxchRQqZeb8547tyBJ7MYpQAKYf3ZHwdga1ll
J8uPajLM8cl7qHCW9QLwPPjwS4DWx471qDUcrHd8k0R6a6DlZXtXV2S7JRMW4npy
oSJ7UNh4ZD/YMs9tjRiywIPqig0L7vJOwCQWOJMkix38xx70AxnaNwssm62y48fi
TBk6KY+iLbtKUlcDGWZ8aW0CDG1EOplH3QBjAgMBAAGjggEOMIIBCjALBgNVHQ8E
BAMCBaAwCQYDVR0TBAIwADARBglghkgBhvhCAQEEBAMCBkAwMwYJYIZIAYb4QgEN
BCYWJE9wZW5TU0wgR2VuZXJhdGVkIFNlcnZlciBDZXJ0aWZpY2F0ZTAdBgNVHQ4E
FgQUYzvcHs12OiLt6u3CSlrnVGkdqa8wdAYDVR0jBG0wa4AU9KfAzJFGr2TzkfIn
+Miyb4qHMnOhSKRGMEQxCzAJBgNVBAYTAkRFMQ8wDQYDVQQIDAZIZXNzZW4xFDAS
BgNVBAoMC3ByaXZhY3lpZGVhMQ4wDAYDVQQDDAVDQTAwMYIJAPvI66yDzRIHMBMG
A1UdJQQMMAoGCCsGAQUFBwMBMA0GCSqGSIb3DQEBCwUAA4IBAQBZ4R/R1jmsv9RX
8ZQU6+gBEb1yiPQjuIE3sCeayPwHFeYmU2Tr1K6wk4L+M7LzUJyPyuIgW7Si2OrU
uL8jMBdjeae7BfGn2auogIOuZzAqwKTw6Bc6xDPV18t53gsLnpUwJ58YLIZ3e41v
M4Fiujza5HczGTi+xLTte9KL2vKVj67t+H+PRGqqVuoG5ayjyTi0yjRfOB2bKnxO
AD7KS4faQw9hHWCBp57FVuJVierZQdecCGAXX1Lm1yreGKkWc5RSIpc4cGq7/Zn3
mmr4Odl1AlvV9eNDCJKlc6l/cMwnlA0gjvA+gLSO8QxLtgPLddZckHMCBYRca1Ma
b1HkG7lQ
-----END CERTIFICATE-----
