Certificate:
    Data:
        Version: 3 (0x2)
        Serial Number: 268435674 (0x100000da)
        Signature Algorithm: sha256WithRSAEncryption
        Issuer: C=DE, ST=Hessen, O=privacyidea, CN=CA001
        Validity
            Not Before: Nov 29 13:22:55 2019 GMT
            Not After : Nov 28 13:22:55 2020 GMT
        Subject: OU=realm1, CN=cornelius/emailAddress=user@localhost.localdomain
        Subject Public Key Info:
            Public Key Algorithm: rsaEncryption
                RSA Public-Key: (2048 bit)
                Modulus:
                    00:aa:99:60:60:3b:cf:eb:fd:c8:51:a2:b9:01:e6:
                    67:88:28:4f:6e:e8:9e:84:b7:16:31:49:4b:6e:af:
                    71:c1:d3:09:46:85:d1:9e:8b:b6:d2:37:03:7d:f4:
                    68:01:af:2f:cd:18:43:9b:85:5c:92:f5:53:cc:c4:
                    e7:e9:e2:aa:f0:a2:80:40:6c:55:39:ba:8c:a3:b9:
                    5c:98:28:9e:4b:97:3f:d0:f2:ca:cc:d4:93:93:67:
                    dd:71:23:5a:a8:35:3b:35:a9:d7:77:92:79:05:e5:
                    2d:25:2b:1b:3d:9e:31:ea:8e:23:ba:31:27:81:39:
                    94:7f:9b:b1:19:54:ab:a4:00:51:9f:d2:bb:c8:eb:
                    b6:72:4b:7c:24:a2:0f:6b:63:53:79:f5:35:61:fc:
                    3b:3f:88:23:d8:da:00:8f:33:89:9c:69:35:77:1c:
                    76:4d:ee:bc:a4:65:de:23:49:2f:a8:42:0a:c1:80:
                    71:a3:84:75:c2:00:5d:47:03:62:af:d5:31:61:e0:
                    6e:1b:d3:e6:3c:dd:69:2c:2a:27:c5:b3:37:95:f0:
                    4c:00:45:4c:6c:3b:37:7d:81:6a:9e:71:80:a3:f7:
                    68:a5:d6:d5:9f:6a:37:e2:0e:54:75:f2:cc:9c:6b:
                    6f:b1:11:b8:ec:4c:5a:70:aa:4c:06:82:ba:0d:16:
                    70:61
                Exponent: 65537 (0x10001)
        X509v3 extensions:
            X509v3 Key Usage: 
                Digital Signature, Key Encipherment
            X509v3 Basic Constraints: 
                CA:FALSE
            Netscape Cert Type: 
                SSL Server
            Netscape Comment: 
                OpenSSL Generated Server Certificate
            X509v3 Subject Key Identifier: 
                24:F9:A3:29:F4:8F:E0:DD:2E:93:45:2C:9F:AB:E7:DE:81:7D:9A:C1
            X509v3 Authority Key Identifier: 
                keyid:F4:A7:C0:CC:91:46:AF:64:F3:91:F2:27:F8:C8:B2:6F:8A:87:32:73
                DirName:/C=DE/ST=Hessen/O=privacyidea/CN=CA001
                serial:FB:C8:EB:AC:83:CD:12:07

            X509v3 Extended Key Usage: 
                TLS Web Server Authentication
    Signature Algorithm: sha256WithRSAEncryption
         2b:de:e6:7f:a6:58:86:05:02:d4:d8:7c:02:97:55:88:5a:5a:
         0f:4f:14:5c:b6:f3:79:0f:07:c0:dc:33:31:0c:fa:63:24:7b:
         4b:58:7a:9b:70:7a:2a:9a:5d:9e:8e:13:a8:d9:9d:73:9f:8c:
         1e:59:6f:1f:b7:93:34:6c:54:d5:1d:70:5c:e5:50:34:f2:a4:
         42:bd:38:78:22:cd:bb:fa:a4:28:53:1b:12:73:a6:55:e3:c9:
         7e:3e:43:c5:58:12:03:0e:a4:99:23:21:4d:f3:b2:34:58:b8:
         49:b1:8c:e7:e9:e6:77:1b:1f:b9:7c:2f:22:50:bf:05:e7:db:
         5a:74:32:1a:e0:b4:ce:38:7c:f1:18:78:d0:1d:7b:96:77:ee:
         d0:ac:76:4c:9f:95:8a:03:45:13:ee:c3:27:21:5b:fb:33:84:
         b9:97:37:a7:7f:62:f4:c5:3f:a5:51:59:82:5f:3d:c5:e8:4e:
         ea:5b:c6:31:77:72:80:23:8f:98:7c:f0:52:17:92:3b:32:c5:
         66:c7:7a:c9:26:54:6d:35:4f:19:29:57:08:f5:9c:30:fd:bb:
         1f:cd:52:da:7a:fd:c4:91:1a:52:5c:1e:cf:ad:d2:ad:32:3f:
         11:9e:be:d6:8e:9e:7e:2d:a4:d6:90:89:87:64:93:19:d1:de:
         9c:bf:72:de
-----BEGIN CERTIFICATE-----
MIIEIjCCAwqgAwIBAgIEEAAA2jANBgkqhkiG9w0BAQsFADBEMQswCQYDVQQGEwJE
RTEPMA0GA1UECAwGSGVzc2VuMRQwEgYDVQQKDAtwcml2YWN5aWRlYTEOMAwGA1UE
AwwFQ0EwMDEwHhcNMTkxMTI5MTMyMjU1WhcNMjAxMTI4MTMyMjU1WjBQMQ8wDQYD
VQQLDAZyZWFsbTExEjAQBgNVBAMMCWNvcm5lbGl1czEpMCcGCSqGSIb3DQEJARYa
dXNlckBsb2NhbGhvc3QubG9jYWxkb21haW4wggEiMA0GCSqGSIb3DQEBAQUAA4IB
DwAwggEKAoIBAQCqmWBgO8/r/chRorkB5meIKE9u6J6EtxYxSUtur3HB0wlGhdGe
i7bSNwN99GgBry/NGEObhVyS9VPMxOfp4qrwooBAbFU5uoyjuVyYKJ5Llz/Q8srM
1JOTZ91xI1qoNTs1qdd3knkF5S0lKxs9njHqjiO6MSeBOZR/m7EZVKukAFGf0rvI
67ZyS3wkog9rY1N59TVh/Ds/iCPY2gCPM4mcaTV3HHZN7rykZd4jSS+oQgrBgHGj
hHXCAF1HA2Kv1TFh4G4b0+Y83WksKifFszeV8EwARUxsOzd9gWqecYCj92il1tWf
ajfiDlR18syca2+xEbjsTFpwqkwGgroNFnBhAgMBAAGjggEOMIIBCjALBgNVHQ8E
BAMCBaAwCQYDVR0TBAIwADARBglghkgBhvhCAQEEBAMCBkAwMwYJYIZIAYb4QgEN
BCYWJE9wZW5TU0wgR2VuZXJhdGVkIFNlcnZlciBDZXJ0aWZpY2F0ZTAdBgNVHQ4E
FgQUJPmjKfSP4N0uk0Usn6vn3oF9msEwdAYDVR0jBG0wa4AU9KfAzJFGr2TzkfIn
+Miyb4qHMnOhSKRGMEQxCzAJBgNVBAYTAkRFMQ8wDQYDVQQIDAZIZXNzZW4xFDAS
BgNVBAoMC3ByaXZhY3lpZGVhMQ4wDAYDVQQDDAVDQTAwMYIJAPvI66yDzRIHMBMG
A1UdJQQMMAoGCCsGAQUFBwMBMA0GCSqGSIb3DQEBCwUAA4IBAQAr3uZ/pliGBQLU
2HwCl1WIWloPTxRctvN5DwfA3DMxDPpjJHtLWHqbcHoqml2ejhOo2Z1zn4weWW8f
t5M0bFTVHXBc5VA08qRCvTh4Is27+qQoUxsSc6ZV48l+PkPFWBIDDqSZIyFN87I0
WLhJsYzn6eZ3Gx+5fC8iUL8F59tadDIa4LTOOHzxGHjQHXuWd+7QrHZMn5WKA0UT
7sMnIVv7M4S5lzenf2L0xT+lUVmCXz3F6E7qW8Yxd3KAI4+YfPBSF5I7MsVmx3rJ
JlRtNU8ZKVcI9Zww/bsfzVLaev3EkRpSXB7PrdKtMj8Rnr7Wjp5+LaTWkImHZJMZ
0d6cv3Le
-----END CERTIFICATE-----
