Certificate:
    Data:
        Version: 3 (0x2)
        Serial Number: 268435685 (0x100000e5)
        Signature Algorithm: sha256WithRSAEncryption
        Issuer: C=DE, ST=Hessen, O=privacyidea, CN=CA001
        Validity
            Not Before: Oct 24 12:30:22 2019 GMT
            Not After : Oct 23 12:30:22 2020 GMT
        Subject: C=DE, ST=Hessen, O=privacyidea, CN=requester.localdomain
        Subject Public Key Info:
            Public Key Algorithm: rsaEncryption
                RSA Public-Key: (2048 bit)
                Modulus:
                    00:cd:be:14:4f:fa:ce:01:3f:42:22:1b:1d:9c:af:
                    dd:92:d2:7f:db:6c:b7:3e:39:43:43:6b:13:03:f1:
                    05:f4:07:74:bc:76:69:28:0b:af:19:8e:d7:fc:e3:
                    cd:c6:58:f2:ca:7f:08:6d:53:fc:07:02:44:24:c6:
                    b4:34:4c:8c:04:fe:33:0e:40:e2:20:ba:02:73:5a:
                    f7:f5:4f:63:6e:cc:c6:b6:df:54:1d:37:39:7d:51:
                    36:26:5f:bd:dc:3f:a8:8b:6b:a2:ae:b6:9d:d6:21:
                    e7:df:41:b8:7a:28:2a:68:48:ca:a8:2d:ed:e1:e9:
                    46:5e:5a:72:6d:b4:84:38:87:91:fd:94:11:0b:28:
                    84:c6:c2:2f:2a:fb:01:f9:36:7a:09:75:d1:33:88:
                    3c:73:41:5b:c8:bf:94:89:70:a1:f0:c0:b9:2e:50:
                    53:1e:b1:17:64:69:f4:2d:81:e0:a9:0d:0e:32:e9:
                    ba:55:8a:85:f1:1b:6f:49:79:b4:7f:88:c3:0d:3e:
                    54:88:9b:3d:1f:38:8c:04:f3:ee:6a:63:2b:f5:c6:
                    db:b4:83:aa:c4:78:41:3a:7d:4b:e1:c8:3e:71:ca:
                    1b:61:59:ea:c6:c4:ca:32:5e:c9:e9:bf:12:29:e6:
                    c6:c3:63:fe:a0:55:da:7a:f1:60:98:4d:26:ed:fa:
                    70:2d
                Exponent: 65537 (0x10001)
        X509v3 extensions:
            X509v3 Key Usage: 
                Digital Signature, Key Encipherment
            X509v3 Basic Constraints: 
                CA:FALSE
            Netscape Cert Type: 
                SSL Server
            Netscape Comment: 
                OpenSSL Generated Server Certificate
            X509v3 Subject Key Identifier: 
                53:3F:ED:5D:09:07:B3:65:7B:AB:45:C9:24:5B:09:77:80:0A:96:ED
            X509v3 Authority Key Identifier: 
                keyid:F4:A7:C0:CC:91:46:AF:64:F3:91:F2:27:F8:C8:B2:6F:8A:87:32:73
                DirName:/C=DE/ST=Hessen/O=privacyidea/CN=CA001
                serial:FB:C8:EB:AC:83:CD:12:07

            X509v3 Extended Key Usage: 
                TLS Web Server Authentication
    Signature Algorithm: sha256WithRSAEncryption
         64:2c:f2:9b:ea:4f:78:3a:ba:fa:f6:b5:90:84:ef:77:c4:33:
         70:08:23:6d:a5:41:fb:09:f8:08:51:04:1f:f6:8d:c7:16:a6:
         1d:18:12:1e:a8:7a:63:94:29:3b:24:8e:05:81:50:c3:b9:2a:
         94:69:cb:83:06:4e:7b:fd:bb:f6:fd:ab:e9:bf:9e:2d:a6:b5:
         ae:e3:a2:cb:2b:18:db:17:81:be:32:61:ca:ac:e7:7e:81:23:
         dc:02:77:df:51:f8:18:3e:7a:c5:c3:bc:89:a3:e4:04:3d:ee:
         f3:66:16:c5:b3:68:d8:22:6c:c6:9e:66:cf:ff:36:e0:a6:c7:
         0c:d8:51:2e:33:5c:5d:ee:90:53:53:66:f6:30:15:0b:0f:06:
         e4:73:01:01:65:cc:00:c7:89:7c:17:63:f0:29:eb:46:49:45:
         fe:a5:6a:0c:00:74:f8:cc:32:db:5d:0e:ca:47:21:22:7e:5c:
         f4:55:03:16:ad:25:dd:65:3c:9c:85:62:42:cb:6b:3a:c6:a0:
         37:45:74:59:97:e4:14:47:84:eb:71:5d:24:5a:80:9a:44:6c:
         e9:78:75:66:61:1e:0d:6d:8d:a6:a8:56:08:3a:71:8c:6a:f8:
         96:70:9d:05:fb:82:5b:f2:96:7e:21:26:d8:f9:46:25:61:23:
         1a:c6:64:d7
-----BEGIN CERTIFICATE-----
MIIEJjCCAw6gAwIBAgIEEAAA5TANBgkqhkiG9w0BAQsFADBEMQswCQYDVQQGEwJE
RTEPMA0GA1UECAwGSGVzc2VuMRQwEgYDVQQKDAtwcml2YWN5aWRlYTEOMAwGA1UE
AwwFQ0EwMDEwHhcNMTkxMDI0MTIzMDIyWhcNMjAxMDIzMTIzMDIyWjBUMQswCQYD
VQQGEwJERTEPMA0GA1UECAwGSGVzc2VuMRQwEgYDVQQKDAtwcml2YWN5aWRlYTEe
MBwGA1UEAwwVcmVxdWVzdGVyLmxvY2FsZG9tYWluMIIBIjANBgkqhkiG9w0BAQEF
AAOCAQ8AMIIBCgKCAQEAzb4UT/rOAT9CIhsdnK/dktJ/22y3PjlDQ2sTA/EF9Ad0
vHZpKAuvGY7X/OPNxljyyn8IbVP8BwJEJMa0NEyMBP4zDkDiILoCc1r39U9jbszG
tt9UHTc5fVE2Jl+93D+oi2uirrad1iHn30G4eigqaEjKqC3t4elGXlpybbSEOIeR
/ZQRCyiExsIvKvsB+TZ6CXXRM4g8c0FbyL+UiXCh8MC5LlBTHrEXZGn0LYHgqQ0O
Mum6VYqF8RtvSXm0f4jDDT5UiJs9HziMBPPuamMr9cbbtIOqxHhBOn1L4cg+ccob
YVnqxsTKMl7J6b8SKebGw2P+oFXaevFgmE0m7fpwLQIDAQABo4IBDjCCAQowCwYD
VR0PBAQDAgWgMAkGA1UdEwQCMAAwEQYJYIZIAYb4QgEBBAQDAgZAMDMGCWCGSAGG
+EIBDQQmFiRPcGVuU1NMIEdlbmVyYXRlZCBTZXJ2ZXIgQ2VydGlmaWNhdGUwHQYD
VR0OBBYEFFM/7V0JB7Nle6tFySRbCXeACpbtMHQGA1UdIwRtMGuAFPSnwMyRRq9k
85HyJ/jIsm+KhzJzoUikRjBEMQswCQYDVQQGEwJERTEPMA0GA1UECAwGSGVzc2Vu
MRQwEgYDVQQKDAtwcml2YWN5aWRlYTEOMAwGA1UEAwwFQ0EwMDGCCQD7yOusg80S
BzATBgNVHSUEDDAKBggrBgEFBQcDATANBgkqhkiG9w0BAQsFAAOCAQEAZCzym+pP
eDq6+va1kITvd8QzcAgjbaVB+wn4CFEEH/aNxxamHRgSHqh6Y5QpOySOBYFQw7kq
lGnLgwZOe/279v2r6b+eLaa1ruOiyysY2xeBvjJhyqznfoEj3AJ331H4GD56xcO8
iaPkBD3u82YWxbNo2CJsxp5mz/824KbHDNhRLjNcXe6QU1Nm9jAVCw8G5HMBAWXM
AMeJfBdj8CnrRklF/qVqDAB0+Mwy210OykchIn5c9FUDFq0l3WU8nIViQstrOsag
N0V0WZfkFEeE63FdJFqAmkRs6Xh1ZmEeDW2NpqhWCDpxjGr4lnCdBfuCW/KWfiEm
2PlGJWEjGsZk1w==
-----END CERTIFICATE-----
