Certificate:
    Data:
        Version: 3 (0x2)
        Serial Number: 268435672 (0x100000d8)
        Signature Algorithm: sha256WithRSAEncryption
        Issuer: C=DE, ST=Hessen, O=privacyidea, CN=CA001
        Validity
            Not Before: Nov 29 13:10:57 2019 GMT
            Not After : Nov 28 13:10:57 2020 GMT
        Subject: CN=selfservice,CN=user,O=realm1/emailAddress=meine
        Subject Public Key Info:
            Public Key Algorithm: rsaEncryption
                RSA Public-Key: (2048 bit)
                Modulus:
                    00:cf:3c:d4:33:0e:12:c4:e6:da:cd:b6:56:a1:1c:
                    26:bb:26:1c:8a:4a:73:a8:58:8a:b6:1e:b3:8b:99:
                    d2:1d:07:c2:92:89:79:c0:69:d8:c8:df:28:61:98:
                    1e:b3:fe:ae:2b:bd:78:a9:f7:6e:47:dc:a3:a0:16:
                    8c:85:02:c1:4e:92:fd:72:6e:f0:c8:03:29:9b:b8:
                    00:6e:c0:83:95:c8:34:20:36:9c:b3:e5:e4:e6:76:
                    73:a3:1a:ad:40:96:e0:53:54:00:ec:76:79:9a:c6:
                    0d:7e:b6:bd:29:ec:83:f3:cb:89:a4:cb:6c:00:ba:
                    0c:c5:78:0f:ff:69:b8:94:f4:04:70:43:3f:d8:9e:
                    d7:a7:fb:5d:ce:75:8e:da:e7:c4:07:b1:9d:de:6f:
                    88:4b:b6:4d:9a:cf:f9:bc:fa:9f:cd:32:6d:f6:3a:
                    0b:0d:23:42:78:ec:97:42:bf:0e:4d:60:56:e1:d3:
                    02:f2:19:cb:84:57:90:e5:70:a1:a2:83:35:86:e2:
                    da:86:9f:f9:8a:c4:79:b3:52:28:da:cb:bb:34:ca:
                    d3:da:91:4a:cf:8d:76:a2:b2:6b:9b:f9:96:fd:09:
                    2a:da:11:23:4d:f0:cb:d6:b2:b1:0e:12:6c:9a:19:
                    65:98:87:ca:e4:ee:24:ce:44:ac:90:8f:9d:1b:c5:
                    2a:9d
                Exponent: 65537 (0x10001)
        X509v3 extensions:
            X509v3 Key Usage: 
                Digital Signature, Key Encipherment
            X509v3 Basic Constraints: 
                CA:FALSE
            Netscape Cert Type: 
                SSL Server
            Netscape Comment: 
                OpenSSL Generated Server Certificate
            X509v3 Subject Key Identifier: 
                4D:07:90:AD:FF:1D:0D:E7:1A:DD:D6:2E:FA:BA:34:CB:AA:1F:24:C6
            X509v3 Authority Key Identifier: 
                keyid:F4:A7:C0:CC:91:46:AF:64:F3:91:F2:27:F8:C8:B2:6F:8A:87:32:73
                DirName:/C=DE/ST=Hessen/O=privacyidea/CN=CA001
                serial:FB:C8:EB:AC:83:CD:12:07

            X509v3 Extended Key Usage: 
                TLS Web Server Authentication
    Signature Algorithm: sha256WithRSAEncryption
         7a:11:67:02:8a:3e:83:bb:a7:1d:8d:2f:6e:45:3d:70:17:68:
         4f:e3:02:c1:7e:c9:7e:dd:f0:46:d1:51:4f:d5:98:5e:c9:6a:
         df:da:64:09:30:c9:5a:fd:0f:ef:07:86:7e:e6:69:f5:b6:b7:
         5e:65:ef:4b:c4:46:65:90:35:c5:48:fe:53:31:9f:fe:27:c4:
         f0:6e:f9:62:19:c2:fc:01:4d:4f:24:31:e5:f1:fc:40:be:d3:
         27:3b:c4:05:43:bc:0d:92:5a:07:fb:0c:58:d5:3d:ac:ff:3c:
         9c:c8:b6:3a:42:6b:1d:41:9c:6d:5a:5f:11:cc:6b:b1:ae:e6:
         c3:7e:ec:ce:f9:19:a2:33:43:18:07:68:bc:96:14:fe:b2:0f:
         72:e7:b8:66:e9:72:4b:2b:7b:01:f3:00:d6:f2:3e:3f:3c:6f:
         9c:7c:15:60:e1:2c:50:d0:69:be:c8:5a:44:f2:82:18:03:6d:
         e4:15:c2:c5:f8:1b:36:3a:b9:b1:ee:bb:89:25:1f:05:fe:12:
         e0:96:67:1d:0a:db:2f:66:aa:d2:81:a5:45:05:2b:5c:01:ed:
         e3:1e:94:ed:ae:9c:00:7b:0d:6e:c8:60:dc:1f:b4:a9:f6:98:
         3c:e2:c0:e3:b4:95:3f:57:81:de:8b:0d:76:25:51:99:78:5c:
         d1:be:93:03
-----BEGIN CERTIFICATE-----
MIIEDzCCAvegAwIBAgIEEAAA2DANBgkqhkiG9w0BAQsFADBEMQswCQYDVQQGEwJE
RTEPMA0GA1UECAwGSGVzc2VuMRQwEgYDVQQKDAtwcml2YWN5aWRlYTEOMAwGA1UE
AwwFQ0EwMDEwHhcNMTkxMTI5MTMxMDU3WhcNMjAxMTI4MTMxMDU3WjA9MSUwIwYD
VQQDDBxzZWxmc2VydmljZSxDTj11c2VyLE89cmVhbG0xMRQwEgYJKoZIhvcNAQkB
FgVtZWluZTCCASIwDQYJKoZIhvcNAQEBBQADggEPADCCAQoCggEBAM881DMOEsTm
2s22VqEcJrsmHIpKc6hYirYes4uZ0h0HwpKJecBp2MjfKGGYHrP+riu9eKn3bkfc
o6AWjIUCwU6S/XJu8MgDKZu4AG7Ag5XINCA2nLPl5OZ2c6MarUCW4FNUAOx2eZrG
DX62vSnsg/PLiaTLbAC6DMV4D/9puJT0BHBDP9ie16f7Xc51jtrnxAexnd5viEu2
TZrP+bz6n80ybfY6Cw0jQnjsl0K/Dk1gVuHTAvIZy4RXkOVwoaKDNYbi2oaf+YrE
ebNSKNrLuzTK09qRSs+NdqKya5v5lv0JKtoRI03wy9aysQ4SbJoZZZiHyuTuJM5E
rJCPnRvFKp0CAwEAAaOCAQ4wggEKMAsGA1UdDwQEAwIFoDAJBgNVHRMEAjAAMBEG
CWCGSAGG+EIBAQQEAwIGQDAzBglghkgBhvhCAQ0EJhYkT3BlblNTTCBHZW5lcmF0
ZWQgU2VydmVyIENlcnRpZmljYXRlMB0GA1UdDgQWBBRNB5Ct/x0N5xrd1i76ujTL
qh8kxjB0BgNVHSMEbTBrgBT0p8DMkUavZPOR8if4yLJviocyc6FIpEYwRDELMAkG
A1UEBhMCREUxDzANBgNVBAgMBkhlc3NlbjEUMBIGA1UECgwLcHJpdmFjeWlkZWEx
DjAMBgNVBAMMBUNBMDAxggkA+8jrrIPNEgcwEwYDVR0lBAwwCgYIKwYBBQUHAwEw
DQYJKoZIhvcNAQELBQADggEBAHoRZwKKPoO7px2NL25FPXAXaE/jAsF+yX7d8EbR
UU/VmF7Jat/aZAkwyVr9D+8Hhn7mafW2t15l70vERmWQNcVI/lMxn/4nxPBu+WIZ
wvwBTU8kMeXx/EC+0yc7xAVDvA2SWgf7DFjVPaz/PJzItjpCax1BnG1aXxHMa7Gu
5sN+7M75GaIzQxgHaLyWFP6yD3LnuGbpcksrewHzANbyPj88b5x8FWDhLFDQab7I
WkTyghgDbeQVwsX4GzY6ubHuu4klHwX+EuCWZx0K2y9mqtKBpUUFK1wB7eMelO2u
nAB7DW7IYNwftKn2mDziwOO0lT9Xgd6LDXYlUZl4XNG+kwM=
-----END CERTIFICATE-----
