Certificate:
    Data:
        Version: 3 (0x2)
        Serial Number: 268435621 (0x100000a5)
    Signature Algorithm: sha1WithRSAEncryption
        Issuer: C=DE, ST=Hessen, O=privacyidea, CN=CA001
        Validity
            Not Before: Sep 12 08:32:06 2015 GMT
            Not After : Sep 11 08:32:06 2016 GMT
        Subject: C=DE, ST=Hessen, O=privacyidea, CN=usercert
        Subject Public Key Info:
            Public Key Algorithm: rsaEncryption
                Public-Key: (2048 bit)
                Modulus:
                    00:dc:2f:d1:5f:29:97:d4:7c:c3:53:c8:30:bd:4b:
                    67:70:2c:24:6b:b8:5e:eb:21:7a:48:12:56:7c:81:
                    5c:48:75:b6:68:eb:f6:f2:98:4e:50:51:d1:7f:6c:
                    73:f3:0a:a7:ae:be:48:5e:e5:d6:e1:d9:2a:7c:32:
                    6e:4e:fd:08:f6:5a:54:49:23:73:c3:b9:07:18:d1:
                    ef:b3:ac:f8:8a:dc:94:96:a4:90:3a:8e:74:df:e6:
                    0d:37:1b:bd:5b:b7:25:1a:56:39:da:6f:91:aa:5e:
                    1c:74:f3:f9:7c:14:01:83:12:65:76:c7:bb:fe:36:
                    5b:95:e9:72:65:83:ed:3e:98:30:71:fa:87:dd:a3:
                    36:5a:30:03:2e:26:e0:61:d1:bf:02:3f:b6:06:1f:
                    4a:89:28:1c:5c:a2:ff:4e:be:94:e6:8c:e0:da:82:
                    f1:9d:29:32:48:30:73:b4:04:f6:42:1e:be:f7:e2:
                    32:32:27:3c:9d:89:2f:70:3e:85:9a:6f:5c:c5:09:
                    c0:8c:32:2f:72:22:c9:d2:95:1f:b6:ac:72:60:72:
                    b7:82:4d:6b:ce:5b:e3:00:d0:d2:2f:58:c6:e0:10:
                    e5:51:ca:4d:3b:2e:e6:7e:ab:84:d6:56:f1:93:35:
                    a0:93:64:26:81:75:2f:91:b5:16:06:38:0b:db:cc:
                    2d:07
                Exponent: 65537 (0x10001)
        X509v3 extensions:
            X509v3 Key Usage: 
                Digital Signature, Key Encipherment
            X509v3 Basic Constraints: 
                CA:FALSE
            Netscape Cert Type: 
                SSL Server
            Netscape Comment: 
                OpenSSL Generated Server Certificate
            X509v3 Subject Key Identifier: 
                FC:14:D1:F0:4B:8D:00:90:F2:F5:B8:71:9E:4E:97:C3:92:54:AD:0B
            X509v3 Authority Key Identifier: 
                keyid:F4:A7:C0:CC:91:46:AF:64:F3:91:F2:27:F8:C8:B2:6F:8A:87:32:73
                DirName:/C=DE/ST=Hessen/O=privacyidea/CN=CA001
                serial:FB:C8:EB:AC:83:CD:12:07

            X509v3 Extended Key Usage: 
                TLS Web Server Authentication
    Signature Algorithm: sha1WithRSAEncryption
         0e:c2:82:60:bf:9d:33:7d:8d:0d:2d:80:ea:c8:f7:5d:0d:d0:
         86:23:f1:61:c1:5a:9c:1b:6d:f9:9a:7e:86:47:2f:26:cb:31:
         29:52:2a:6d:2c:b9:4a:37:36:dc:9a:59:ae:82:65:70:c4:77:
         c3:e9:b2:d6:3b:b0:2e:f2:e2:08:0e:c4:3a:53:9e:1d:29:c8:
         fa:d5:b3:15:98:b4:13:59:d2:25:8d:b4:61:c6:35:3b:f4:60:
         7e:47:fd:b3:64:79:4d:8a:68:88:67:ed:16:ad:ec:e0:5b:3f:
         c9:e3:42:2c:47:83:a1:b7:5e:6d:37:6e:99:31:bb:47:2c:cb:
         03:c5:94:49:21:bc:47:ca:11:af:72:fb:2e:17:0b:6f:b2:f2:
         a1:c1:61:b0:97:f3:63:45:61:45:55:e5:64:96:fd:7d:78:4b:
         17:84:ea:5a:1d:ca:4c:54:97:d5:d3:d4:34:a2:6a:69:8d:72:
         03:fb:12:8b:ee:ba:c2:01:b5:47:bb:30:f8:79:82:05:37:20:
         c1:35:62:ea:ef:1f:71:7c:ac:8a:24:fa:4d:20:d9:16:ca:33:
         61:84:0c:61:d2:db:ee:9b:5d:fb:b6:52:78:e2:51:70:b5:75:
         0d:b9:29:c8:e0:d3:75:e0:a3:fc:f1:3e:a0:12:f0:65:71:c1:
         de:d6:c4:3f
-----BEGIN CERTIFICATE-----
MIIEGTCCAwGgAwIBAgIEEAAApTANBgkqhkiG9w0BAQUFADBEMQswCQYDVQQGEwJE
RTEPMA0GA1UECAwGSGVzc2VuMRQwEgYDVQQKDAtwcml2YWN5aWRlYTEOMAwGA1UE
AwwFQ0EwMDEwHhcNMTUwOTEyMDgzMjA2WhcNMTYwOTExMDgzMjA2WjBHMQswCQYD
VQQGEwJERTEPMA0GA1UECAwGSGVzc2VuMRQwEgYDVQQKDAtwcml2YWN5aWRlYTER
MA8GA1UEAwwIdXNlcmNlcnQwggEiMA0GCSqGSIb3DQEBAQUAA4IBDwAwggEKAoIB
AQDcL9FfKZfUfMNTyDC9S2dwLCRruF7rIXpIElZ8gVxIdbZo6/bymE5QUdF/bHPz
Cqeuvkhe5dbh2Sp8Mm5O/Qj2WlRJI3PDuQcY0e+zrPiK3JSWpJA6jnTf5g03G71b
tyUaVjnab5GqXhx08/l8FAGDEmV2x7v+NluV6XJlg+0+mDBx+ofdozZaMAMuJuBh
0b8CP7YGH0qJKBxcov9OvpTmjODagvGdKTJIMHO0BPZCHr734jIyJzydiS9wPoWa
b1zFCcCMMi9yIsnSlR+2rHJgcreCTWvOW+MA0NIvWMbgEOVRyk07LuZ+q4TWVvGT
NaCTZCaBdS+RtRYGOAvbzC0HAgMBAAGjggEOMIIBCjALBgNVHQ8EBAMCBaAwCQYD
VR0TBAIwADARBglghkgBhvhCAQEEBAMCBkAwMwYJYIZIAYb4QgENBCYWJE9wZW5T
U0wgR2VuZXJhdGVkIFNlcnZlciBDZXJ0aWZpY2F0ZTAdBgNVHQ4EFgQU/BTR8EuN
AJDy9bhxnk6Xw5JUrQswdAYDVR0jBG0wa4AU9KfAzJFGr2TzkfIn+Miyb4qHMnOh
SKRGMEQxCzAJBgNVBAYTAkRFMQ8wDQYDVQQIDAZIZXNzZW4xFDASBgNVBAoMC3By
aXZhY3lpZGVhMQ4wDAYDVQQDDAVDQTAwMYIJAPvI66yDzRIHMBMGA1UdJQQMMAoG
CCsGAQUFBwMBMA0GCSqGSIb3DQEBBQUAA4IBAQAOwoJgv50zfY0NLYDqyPddDdCG
I/FhwVqcG235mn6GRy8myzEpUiptLLlKNzbcmlmugmVwxHfD6bLWO7Au8uIIDsQ6
U54dKcj61bMVmLQTWdIljbRhxjU79GB+R/2zZHlNimiIZ+0WrezgWz/J40IsR4Oh
t15tN26ZMbtHLMsDxZRJIbxHyhGvcvsuFwtvsvKhwWGwl/NjRWFFVeVklv19eEsX
hOpaHcpMVJfV09Q0omppjXID+xKL7rrCAbVHuzD4eYIFNyDBNWLq7x9xfKyKJPpN
INkWyjNhhAxh0tvum137tlJ44lFwtXUNuSnI4NN14KP88T6gEvBlccHe1sQ/
-----END CERTIFICATE-----
