Certificate:
    Data:
        Version: 3 (0x2)
        Serial Number: 268435745 (0x10000121)
    Signature Algorithm: sha256WithRSAEncryption
        Issuer: C=DE, ST=Hessen, O=privacyidea, CN=CA001
        Validity
            Not Before: Jan 10 06:29:46 2019 GMT
            Not After : Jan 10 06:29:46 2020 GMT
        Subject: CN=Steve Test/emailAddress=steve@openssl.org
        Subject Public Key Info:
            Public Key Algorithm: rsaEncryption
                Public-Key: (2048 bit)
                Modulus:
                    00:d2:81:89:20:51:48:0f:73:f4:11:32:24:d5:1f:
                    1c:fd:5c:f5:b6:e6:c5:f0:52:81:dc:d2:af:66:4a:
                    7c:93:31:61:5c:af:d1:6d:06:70:03:60:7c:72:0c:
                    88:dd:49:cd:9e:02:6c:d2:5a:d7:53:0f:f3:da:be:
                    69:64:b5:0f:0c:00:e3:b3:50:47:a3:b3:9b:ba:13:
                    50:d6:58:5a:4b:ab:39:e0:11:ca:0a:27:67:03:78:
                    22:66:6d:92:1e:1b:5c:49:ae:e6:6b:d1:8e:3b:9d:
                    06:d3:c6:ac:4d:53:43:10:ab:e8:96:c1:87:82:97:
                    99:8f:20:d3:99:12:37:31:84:e1:8a:ff:29:03:5f:
                    22:90:3e:7f:9b:e0:20:c1:ad:dc:ae:4c:39:1a:31:
                    96:17:02:8c:b2:d9:b4:0d:20:12:9b:7d:86:54:fd:
                    33:fd:c1:2a:62:46:f8:60:96:cf:6e:01:6f:22:df:
                    13:47:e7:97:ec:05:72:23:a3:62:f8:fa:ef:ac:9c:
                    72:f0:37:cb:2f:37:cf:90:a8:27:51:86:c6:d7:78:
                    08:8f:7e:25:a2:15:70:a2:fb:1c:b6:15:5e:a0:97:
                    8b:81:4c:09:28:8a:27:3b:94:bc:71:db:5b:71:37:
                    9a:2b:16:e0:6f:b5:c9:f5:4b:4f:20:ba:65:cf:af:
                    ad:ad
                Exponent: 65537 (0x10001)
        X509v3 extensions:
            X509v3 Key Usage: 
                Digital Signature, Key Encipherment
            X509v3 Basic Constraints: 
                CA:FALSE
            Netscape Cert Type: 
                SSL Server
            Netscape Comment: 
                OpenSSL Generated Server Certificate
            X509v3 Subject Key Identifier: 
                E5:25:6D:3E:AF:0D:DD:3F:4C:F2:45:19:39:D5:14:DB:7E:9C:C0:AD
            X509v3 Authority Key Identifier: 
                keyid:F4:A7:C0:CC:91:46:AF:64:F3:91:F2:27:F8:C8:B2:6F:8A:87:32:73
                DirName:/C=DE/ST=Hessen/O=privacyidea/CN=CA001
                serial:FB:C8:EB:AC:83:CD:12:07

            X509v3 Extended Key Usage: 
                TLS Web Server Authentication
    Signature Algorithm: sha256WithRSAEncryption
         68:ce:bb:64:66:15:1f:1e:46:d8:ec:c9:98:20:c6:1e:1f:0f:
         cb:bd:36:ff:ac:c9:dd:24:dd:ed:d1:eb:21:ec:06:b5:d8:fc:
         7b:b9:73:7d:0d:23:64:44:02:fc:e8:0a:8b:68:7f:24:ff:29:
         2f:1b:1c:d9:a7:73:9b:00:e4:82:6e:f3:15:7a:c5:ea:a7:c8:
         fe:fc:94:3e:c6:7c:2e:cc:26:93:36:2b:fe:27:bb:e6:10:30:
         26:72:56:46:20:fe:7c:10:fe:1a:82:47:ce:fb:66:49:4d:8c:
         4c:d8:cb:dc:71:e9:37:da:f5:a8:34:8a:24:8e:b4:03:cf:45:
         2f:50:08:4c:29:49:f8:5e:8c:e7:12:77:8f:c9:68:bf:a2:16:
         d2:ad:98:9d:58:64:a9:9d:6e:81:38:ef:3b:d3:48:fb:07:a9:
         cc:1b:a8:12:54:75:26:12:6a:2d:a3:c3:f9:aa:63:2b:f9:e7:
         50:9a:e5:9d:b4:5a:db:e3:00:c4:01:70:32:78:15:86:f6:0a:
         41:c5:6f:ca:0c:17:51:54:87:b3:a8:b5:ba:68:f3:35:8e:18:
         82:0f:17:bd:00:df:21:e5:a2:fd:58:6a:82:53:75:f7:2f:3e:
         c5:8e:62:aa:07:c3:f6:14:65:de:10:bd:43:53:76:8a:56:51:
         5f:eb:3f:9e
-----BEGIN CERTIFICATE-----
MIIECTCCAvGgAwIBAgIEEAABITANBgkqhkiG9w0BAQsFADBEMQswCQYDVQQGEwJE
RTEPMA0GA1UECAwGSGVzc2VuMRQwEgYDVQQKDAtwcml2YWN5aWRlYTEOMAwGA1UE
AwwFQ0EwMDEwHhcNMTkwMTEwMDYyOTQ2WhcNMjAwMTEwMDYyOTQ2WjA3MRMwEQYD
VQQDDApTdGV2ZSBUZXN0MSAwHgYJKoZIhvcNAQkBFhFzdGV2ZUBvcGVuc3NsLm9y
ZzCCASIwDQYJKoZIhvcNAQEBBQADggEPADCCAQoCggEBANKBiSBRSA9z9BEyJNUf
HP1c9bbmxfBSgdzSr2ZKfJMxYVyv0W0GcANgfHIMiN1JzZ4CbNJa11MP89q+aWS1
DwwA47NQR6Ozm7oTUNZYWkurOeARygonZwN4ImZtkh4bXEmu5mvRjjudBtPGrE1T
QxCr6JbBh4KXmY8g05kSNzGE4Yr/KQNfIpA+f5vgIMGt3K5MORoxlhcCjLLZtA0g
Ept9hlT9M/3BKmJG+GCWz24BbyLfE0fnl+wFciOjYvj676yccvA3yy83z5CoJ1GG
xtd4CI9+JaIVcKL7HLYVXqCXi4FMCSiKJzuUvHHbW3E3misW4G+1yfVLTyC6Zc+v
ra0CAwEAAaOCAQ4wggEKMAsGA1UdDwQEAwIFoDAJBgNVHRMEAjAAMBEGCWCGSAGG
+EIBAQQEAwIGQDAzBglghkgBhvhCAQ0EJhYkT3BlblNTTCBHZW5lcmF0ZWQgU2Vy
dmVyIENlcnRpZmljYXRlMB0GA1UdDgQWBBTlJW0+rw3dP0zyRRk51RTbfpzArTB0
BgNVHSMEbTBrgBT0p8DMkUavZPOR8if4yLJviocyc6FIpEYwRDELMAkGA1UEBhMC
REUxDzANBgNVBAgMBkhlc3NlbjEUMBIGA1UECgwLcHJpdmFjeWlkZWExDjAMBgNV
BAMMBUNBMDAxggkA+8jrrIPNEgcwEwYDVR0lBAwwCgYIKwYBBQUHAwEwDQYJKoZI
hvcNAQELBQADggEBAGjOu2RmFR8eRtjsyZggxh4fD8u9Nv+syd0k3e3R6yHsBrXY
/Hu5c30NI2REAvzoCotofyT/KS8bHNmnc5sA5IJu8xV6xeqnyP78lD7GfC7MJpM2
K/4nu+YQMCZyVkYg/nwQ/hqCR877ZklNjEzYy9xx6Tfa9ag0iiSOtAPPRS9QCEwp
SfhejOcSd4/JaL+iFtKtmJ1YZKmdboE47zvTSPsHqcwbqBJUdSYSai2jw/mqYyv5
51Ca5Z20WtvjAMQBcDJ4FYb2CkHFb8oMF1FUh7Ootbpo8zWOGIIPF70A3yHlov1Y
aoJTdfcvPsWOYqoHw/YUZd4QvUNTdopWUV/rP54=
-----END CERTIFICATE-----
