Certificate:
    Data:
        Version: 3 (0x2)
        Serial Number: 268435691 (0x100000eb)
        Signature Algorithm: sha256WithRSAEncryption
        Issuer: C=DE, ST=Hessen, O=privacyidea, CN=CA001
        Validity
            Not Before: Oct 24 12:34:04 2019 GMT
            Not After : Oct 23 12:34:04 2020 GMT
        Subject: C=DE, ST=Hessen, O=privacyidea, CN=requester.localdomain
        Subject Public Key Info:
            Public Key Algorithm: rsaEncryption
                RSA Public-Key: (2048 bit)
                Modulus:
                    00:cd:be:14:4f:fa:ce:01:3f:42:22:1b:1d:9c:af:
                    dd:92:d2:7f:db:6c:b7:3e:39:43:43:6b:13:03:f1:
                    05:f4:07:74:bc:76:69:28:0b:af:19:8e:d7:fc:e3:
                    cd:c6:58:f2:ca:7f:08:6d:53:fc:07:02:44:24:c6:
                    b4:34:4c:8c:04:fe:33:0e:40:e2:20:ba:02:73:5a:
                    f7:f5:4f:63:6e:cc:c6:b6:df:54:1d:37:39:7d:51:
                    36:26:5f:bd:dc:3f:a8:8b:6b:a2:ae:b6:9d:d6:21:
                    e7:df:41:b8:7a:28:2a:68:48:ca:a8:2d:ed:e1:e9:
                    46:5e:5a:72:6d:b4:84:38:87:91:fd:94:11:0b:28:
                    84:c6:c2:2f:2a:fb:01:f9:36:7a:09:75:d1:33:88:
                    3c:73:41:5b:c8:bf:94:89:70:a1:f0:c0:b9:2e:50:
                    53:1e:b1:17:64:69:f4:2d:81:e0:a9:0d:0e:32:e9:
                    ba:55:8a:85:f1:1b:6f:49:79:b4:7f:88:c3:0d:3e:
                    54:88:9b:3d:1f:38:8c:04:f3:ee:6a:63:2b:f5:c6:
                    db:b4:83:aa:c4:78:41:3a:7d:4b:e1:c8:3e:71:ca:
                    1b:61:59:ea:c6:c4:ca:32:5e:c9:e9:bf:12:29:e6:
                    c6:c3:63:fe:a0:55:da:7a:f1:60:98:4d:26:ed:fa:
                    70:2d
                Exponent: 65537 (0x10001)
        X509v3 extensions:
            X509v3 Key Usage: 
                Digital Signature, Key Encipherment
            X509v3 Basic Constraints: 
                CA:FALSE
            Netscape Cert Type: 
                SSL Server
            Netscape Comment: 
                OpenSSL Generated Server Certificate
            X509v3 Subject Key Identifier: 
                53:3F:ED:5D:09:07:B3:65:7B:AB:45:C9:24:5B:09:77:80:0A:96:ED
            X509v3 Authority Key Identifier: 
                keyid:F4:A7:C0:CC:91:46:AF:64:F3:91:F2:27:F8:C8:B2:6F:8A:87:32:73
                DirName:/C=DE/ST=Hessen/O=privacyidea/CN=CA001
                serial:FB:C8:EB:AC:83:CD:12:07

            X509v3 Extended Key Usage: 
                TLS Web Server Authentication
    Signature Algorithm: sha256WithRSAEncryption
         7c:e4:81:26:13:3c:92:c2:39:63:4d:df:35:83:ea:bf:21:cc:
         59:28:00:a6:79:d1:8d:5e:dc:b8:69:84:eb:78:f3:36:2b:1d:
         84:67:f8:5c:fc:c7:9c:44:29:d2:9c:68:90:45:8d:0c:98:91:
         e1:34:52:89:9b:e8:3d:e1:65:81:81:9d:6c:1b:cd:18:58:bc:
         d3:09:92:d4:7c:1b:45:e1:58:45:c0:f6:86:0a:44:d8:7b:a3:
         e0:d9:cb:7b:0a:ee:c0:1e:1e:f4:72:57:83:26:62:83:80:7b:
         64:64:06:87:09:b7:e0:51:80:d3:8b:b6:c7:6a:af:2f:99:91:
         30:1f:75:40:86:5d:2a:35:5b:97:24:6d:ba:42:c4:c6:03:f7:
         0f:c5:c9:20:1a:2f:8e:ed:6d:15:e7:1b:8a:79:5b:39:54:98:
         3d:a7:d9:b7:9d:91:59:bb:99:cf:60:69:a0:3a:9a:f8:18:7e:
         45:63:bd:dd:a4:47:27:37:27:93:65:10:2e:f4:54:eb:25:34:
         a4:a3:f7:0f:e2:10:24:96:a6:9a:aa:58:1d:59:6b:35:b8:48:
         d2:99:f8:83:ce:0b:06:27:58:92:cd:70:ef:40:43:8f:6d:58:
         71:b0:f4:9f:2c:2d:7e:88:f4:12:eb:e0:8a:00:9f:41:fc:28:
         9e:7b:e1:67
-----BEGIN CERTIFICATE-----
MIIEJjCCAw6gAwIBAgIEEAAA6zANBgkqhkiG9w0BAQsFADBEMQswCQYDVQQGEwJE
RTEPMA0GA1UECAwGSGVzc2VuMRQwEgYDVQQKDAtwcml2YWN5aWRlYTEOMAwGA1UE
AwwFQ0EwMDEwHhcNMTkxMDI0MTIzNDA0WhcNMjAxMDIzMTIzNDA0WjBUMQswCQYD
VQQGEwJERTEPMA0GA1UECAwGSGVzc2VuMRQwEgYDVQQKDAtwcml2YWN5aWRlYTEe
MBwGA1UEAwwVcmVxdWVzdGVyLmxvY2FsZG9tYWluMIIBIjANBgkqhkiG9w0BAQEF
AAOCAQ8AMIIBCgKCAQEAzb4UT/rOAT9CIhsdnK/dktJ/22y3PjlDQ2sTA/EF9Ad0
vHZpKAuvGY7X/OPNxljyyn8IbVP8BwJEJMa0NEyMBP4zDkDiILoCc1r39U9jbszG
tt9UHTc5fVE2Jl+93D+oi2uirrad1iHn30G4eigqaEjKqC3t4elGXlpybbSEOIeR
/ZQRCyiExsIvKvsB+TZ6CXXRM4g8c0FbyL+UiXCh8MC5LlBTHrEXZGn0LYHgqQ0O
Mum6VYqF8RtvSXm0f4jDDT5UiJs9HziMBPPuamMr9cbbtIOqxHhBOn1L4cg+ccob
YVnqxsTKMl7J6b8SKebGw2P+oFXaevFgmE0m7fpwLQIDAQABo4IBDjCCAQowCwYD
VR0PBAQDAgWgMAkGA1UdEwQCMAAwEQYJYIZIAYb4QgEBBAQDAgZAMDMGCWCGSAGG
+EIBDQQmFiRPcGVuU1NMIEdlbmVyYXRlZCBTZXJ2ZXIgQ2VydGlmaWNhdGUwHQYD
VR0OBBYEFFM/7V0JB7Nle6tFySRbCXeACpbtMHQGA1UdIwRtMGuAFPSnwMyRRq9k
85HyJ/jIsm+KhzJzoUikRjBEMQswCQYDVQQGEwJERTEPMA0GA1UECAwGSGVzc2Vu
MRQwEgYDVQQKDAtwcml2YWN5aWRlYTEOMAwGA1UEAwwFQ0EwMDGCCQD7yOusg80S
BzATBgNVHSUEDDAKBggrBgEFBQcDATANBgkqhkiG9w0BAQsFAAOCAQEAfOSBJhM8
ksI5Y03fNYPqvyHMWSgApnnRjV7cuGmE63jzNisdhGf4XPzHnEQp0pxokEWNDJiR
4TRSiZvoPeFlgYGdbBvNGFi80wmS1HwbReFYRcD2hgpE2Huj4NnLewruwB4e9HJX
gyZig4B7ZGQGhwm34FGA04u2x2qvL5mRMB91QIZdKjVblyRtukLExgP3D8XJIBov
ju1tFecbinlbOVSYPafZt52RWbuZz2BpoDqa+Bh+RWO93aRHJzcnk2UQLvRU6yU0
pKP3D+IQJJammqpYHVlrNbhI0pn4g84LBidYks1w70BDj21YcbD0nywtfoj0Euvg
igCfQfwonnvhZw==
-----END CERTIFICATE-----
