Certificate:
    Data:
        Version: 3 (0x2)
        Serial Number: 268435718 (0x10000106)
    Signature Algorithm: sha256WithRSAEncryption
        Issuer: C=DE, ST=Hessen, O=privacyidea, CN=CA001
        Validity
            Not Before: Jan  9 22:58:29 2019 GMT
            Not After : Jan  9 22:58:29 2020 GMT
        Subject: C=DE, ST=Hessen, O=privacyidea, CN=requester.localdomain
        Subject Public Key Info:
            Public Key Algorithm: rsaEncryption
                Public-Key: (2048 bit)
                Modulus:
                    00:cd:be:14:4f:fa:ce:01:3f:42:22:1b:1d:9c:af:
                    dd:92:d2:7f:db:6c:b7:3e:39:43:43:6b:13:03:f1:
                    05:f4:07:74:bc:76:69:28:0b:af:19:8e:d7:fc:e3:
                    cd:c6:58:f2:ca:7f:08:6d:53:fc:07:02:44:24:c6:
                    b4:34:4c:8c:04:fe:33:0e:40:e2:20:ba:02:73:5a:
                    f7:f5:4f:63:6e:cc:c6:b6:df:54:1d:37:39:7d:51:
                    36:26:5f:bd:dc:3f:a8:8b:6b:a2:ae:b6:9d:d6:21:
                    e7:df:41:b8:7a:28:2a:68:48:ca:a8:2d:ed:e1:e9:
                    46:5e:5a:72:6d:b4:84:38:87:91:fd:94:11:0b:28:
                    84:c6:c2:2f:2a:fb:01:f9:36:7a:09:75:d1:33:88:
                    3c:73:41:5b:c8:bf:94:89:70:a1:f0:c0:b9:2e:50:
                    53:1e:b1:17:64:69:f4:2d:81:e0:a9:0d:0e:32:e9:
                    ba:55:8a:85:f1:1b:6f:49:79:b4:7f:88:c3:0d:3e:
                    54:88:9b:3d:1f:38:8c:04:f3:ee:6a:63:2b:f5:c6:
                    db:b4:83:aa:c4:78:41:3a:7d:4b:e1:c8:3e:71:ca:
                    1b:61:59:ea:c6:c4:ca:32:5e:c9:e9:bf:12:29:e6:
                    c6:c3:63:fe:a0:55:da:7a:f1:60:98:4d:26:ed:fa:
                    70:2d
                Exponent: 65537 (0x10001)
        X509v3 extensions:
            X509v3 Key Usage: 
                Digital Signature, Key Encipherment
            X509v3 Basic Constraints: 
                CA:FALSE
            Netscape Cert Type: 
                SSL Server
            Netscape Comment: 
                OpenSSL Generated Server Certificate
            X509v3 Subject Key Identifier: 
                53:3F:ED:5D:09:07:B3:65:7B:AB:45:C9:24:5B:09:77:80:0A:96:ED
            X509v3 Authority Key Identifier: 
                keyid:F4:A7:C0:CC:91:46:AF:64:F3:91:F2:27:F8:C8:B2:6F:8A:87:32:73
                DirName:/C=DE/ST=Hessen/O=privacyidea/CN=CA001
                serial:FB:C8:EB:AC:83:CD:12:07

            X509v3 Extended Key Usage: 
                TLS Web Server Authentication
    Signature Algorithm: sha256WithRSAEncryption
         6a:74:5a:c7:51:f8:1d:b2:ce:a7:df:e7:9e:f7:0b:12:cf:86:
         56:b9:01:e0:34:1a:8b:2c:71:75:6d:e3:9c:9c:6a:3c:4c:13:
         f4:07:f7:65:1d:3d:d6:da:e9:3f:96:a1:ad:1d:c9:fb:bb:51:
         f2:25:2f:d8:14:39:f2:3c:dd:2c:0b:da:e3:66:7d:59:1a:24:
         55:6d:79:06:18:c9:81:f1:39:db:8a:9e:a2:ca:8f:48:d9:1f:
         fe:d1:ce:cc:00:10:d4:34:f5:27:80:0e:a6:66:0b:c7:bf:e7:
         56:8b:8c:94:b3:4c:07:5b:34:50:6b:73:53:23:f9:87:e4:85:
         49:3a:98:56:b9:b3:50:7a:ea:21:3f:df:b8:d1:d8:a9:e2:98:
         98:27:40:16:57:25:ca:6a:13:fa:4e:db:0d:ca:bf:38:ba:f2:
         81:da:4e:5c:27:a4:88:fe:dd:ad:fe:6a:7f:5c:50:53:8b:a0:
         06:b9:48:6c:54:d3:ef:a4:25:31:b9:04:9d:31:88:b9:7f:65:
         4c:83:d8:96:0e:7c:5e:80:8e:3a:b6:63:73:ee:66:d5:14:3f:
         9d:78:b8:3f:5a:e6:86:57:21:71:89:f1:d4:8b:b3:c8:83:03:
         81:bc:7c:f1:72:34:8d:30:b1:18:5c:c1:56:e0:34:1a:04:c7:
         13:c0:6e:f1
-----BEGIN CERTIFICATE-----
MIIEJjCCAw6gAwIBAgIEEAABBjANBgkqhkiG9w0BAQsFADBEMQswCQYDVQQGEwJE
RTEPMA0GA1UECAwGSGVzc2VuMRQwEgYDVQQKDAtwcml2YWN5aWRlYTEOMAwGA1UE
AwwFQ0EwMDEwHhcNMTkwMTA5MjI1ODI5WhcNMjAwMTA5MjI1ODI5WjBUMQswCQYD
VQQGEwJERTEPMA0GA1UECAwGSGVzc2VuMRQwEgYDVQQKDAtwcml2YWN5aWRlYTEe
MBwGA1UEAwwVcmVxdWVzdGVyLmxvY2FsZG9tYWluMIIBIjANBgkqhkiG9w0BAQEF
AAOCAQ8AMIIBCgKCAQEAzb4UT/rOAT9CIhsdnK/dktJ/22y3PjlDQ2sTA/EF9Ad0
vHZpKAuvGY7X/OPNxljyyn8IbVP8BwJEJMa0NEyMBP4zDkDiILoCc1r39U9jbszG
tt9UHTc5fVE2Jl+93D+oi2uirrad1iHn30G4eigqaEjKqC3t4elGXlpybbSEOIeR
/ZQRCyiExsIvKvsB+TZ6CXXRM4g8c0FbyL+UiXCh8MC5LlBTHrEXZGn0LYHgqQ0O
Mum6VYqF8RtvSXm0f4jDDT5UiJs9HziMBPPuamMr9cbbtIOqxHhBOn1L4cg+ccob
YVnqxsTKMl7J6b8SKebGw2P+oFXaevFgmE0m7fpwLQIDAQABo4IBDjCCAQowCwYD
VR0PBAQDAgWgMAkGA1UdEwQCMAAwEQYJYIZIAYb4QgEBBAQDAgZAMDMGCWCGSAGG
+EIBDQQmFiRPcGVuU1NMIEdlbmVyYXRlZCBTZXJ2ZXIgQ2VydGlmaWNhdGUwHQYD
VR0OBBYEFFM/7V0JB7Nle6tFySRbCXeACpbtMHQGA1UdIwRtMGuAFPSnwMyRRq9k
85HyJ/jIsm+KhzJzoUikRjBEMQswCQYDVQQGEwJERTEPMA0GA1UECAwGSGVzc2Vu
MRQwEgYDVQQKDAtwcml2YWN5aWRlYTEOMAwGA1UEAwwFQ0EwMDGCCQD7yOusg80S
BzATBgNVHSUEDDAKBggrBgEFBQcDATANBgkqhkiG9w0BAQsFAAOCAQEAanRax1H4
HbLOp9/nnvcLEs+GVrkB4DQaiyxxdW3jnJxqPEwT9Af3ZR091trpP5ahrR3J+7tR
8iUv2BQ58jzdLAva42Z9WRokVW15BhjJgfE524qeosqPSNkf/tHOzAAQ1DT1J4AO
pmYLx7/nVouMlLNMB1s0UGtzUyP5h+SFSTqYVrmzUHrqIT/fuNHYqeKYmCdAFlcl
ymoT+k7bDcq/OLrygdpOXCekiP7drf5qf1xQU4ugBrlIbFTT76QlMbkEnTGIuX9l
TIPYlg58XoCOOrZjc+5m1RQ/nXi4P1rmhlchcYnx1IuzyIMDgbx88XI0jTCxGFzB
VuA0GgTHE8Bu8Q==
-----END CERTIFICATE-----
