Certificate:
    Data:
        Version: 3 (0x2)
        Serial Number: 268435712 (0x10000100)
    Signature Algorithm: sha256WithRSAEncryption
        Issuer: C=DE, ST=Hessen, O=privacyidea, CN=CA001
        Validity
            Not Before: Jan  9 21:14:30 2019 GMT
            Not After : Jan  9 21:14:30 2020 GMT
        Subject: CN=Steve Test/emailAddress=steve@openssl.org
        Subject Public Key Info:
            Public Key Algorithm: rsaEncryption
                Public-Key: (2048 bit)
                Modulus:
                    00:d2:81:89:20:51:48:0f:73:f4:11:32:24:d5:1f:
                    1c:fd:5c:f5:b6:e6:c5:f0:52:81:dc:d2:af:66:4a:
                    7c:93:31:61:5c:af:d1:6d:06:70:03:60:7c:72:0c:
                    88:dd:49:cd:9e:02:6c:d2:5a:d7:53:0f:f3:da:be:
                    69:64:b5:0f:0c:00:e3:b3:50:47:a3:b3:9b:ba:13:
                    50:d6:58:5a:4b:ab:39:e0:11:ca:0a:27:67:03:78:
                    22:66:6d:92:1e:1b:5c:49:ae:e6:6b:d1:8e:3b:9d:
                    06:d3:c6:ac:4d:53:43:10:ab:e8:96:c1:87:82:97:
                    99:8f:20:d3:99:12:37:31:84:e1:8a:ff:29:03:5f:
                    22:90:3e:7f:9b:e0:20:c1:ad:dc:ae:4c:39:1a:31:
                    96:17:02:8c:b2:d9:b4:0d:20:12:9b:7d:86:54:fd:
                    33:fd:c1:2a:62:46:f8:60:96:cf:6e:01:6f:22:df:
                    13:47:e7:97:ec:05:72:23:a3:62:f8:fa:ef:ac:9c:
                    72:f0:37:cb:2f:37:cf:90:a8:27:51:86:c6:d7:78:
                    08:8f:7e:25:a2:15:70:a2:fb:1c:b6:15:5e:a0:97:
                    8b:81:4c:09:28:8a:27:3b:94:bc:71:db:5b:71:37:
                    9a:2b:16:e0:6f:b5:c9:f5:4b:4f:20:ba:65:cf:af:
                    ad:ad
                Exponent: 65537 (0x10001)
        X509v3 extensions:
            X509v3 Key Usage: 
                Digital Signature, Key Encipherment
            X509v3 Basic Constraints: 
                CA:FALSE
            Netscape Cert Type: 
                SSL Server
            Netscape Comment: 
                OpenSSL Generated Server Certificate
            X509v3 Subject Key Identifier: 
                E5:25:6D:3E:AF:0D:DD:3F:4C:F2:45:19:39:D5:14:DB:7E:9C:C0:AD
            X509v3 Authority Key Identifier: 
                keyid:F4:A7:C0:CC:91:46:AF:64:F3:91:F2:27:F8:C8:B2:6F:8A:87:32:73
                DirName:/C=DE/ST=Hessen/O=privacyidea/CN=CA001
                serial:FB:C8:EB:AC:83:CD:12:07

            X509v3 Extended Key Usage: 
                TLS Web Server Authentication
    Signature Algorithm: sha256WithRSAEncryption
         79:d6:78:58:67:65:5a:08:9a:a8:78:69:b9:7f:99:76:24:ff:
         6e:e1:f3:1c:7f:e4:a6:0a:53:05:7b:31:79:15:02:4e:ba:b0:
         7e:9b:c1:e4:83:24:39:30:83:7e:51:ae:54:53:2f:5a:d9:47:
         6a:59:a2:03:e8:1a:e6:09:b3:97:b9:fc:53:cc:2e:19:e7:1c:
         eb:bf:8f:74:49:ab:7c:98:37:43:d3:56:73:71:87:c6:f6:22:
         62:82:fd:3a:a4:1e:a2:2d:75:9c:b4:06:f6:fc:6b:aa:98:6f:
         91:c2:64:e0:48:d6:8d:37:71:b7:87:bc:b5:f2:85:9c:f5:0d:
         78:af:34:35:b7:2c:48:f1:45:83:d1:26:b3:cd:5d:d3:6b:cf:
         97:88:68:b8:b0:b9:6e:35:7c:50:87:f1:d3:1f:f7:13:41:d8:
         05:04:3e:a5:7c:35:3e:8f:c4:0e:a6:8e:b6:a4:00:f7:16:6a:
         0a:e9:55:b7:2f:6f:f3:dd:c8:99:3c:f0:a1:c9:8c:1d:9b:30:
         90:13:5c:35:d0:7a:a6:3e:5d:67:99:92:4c:20:54:34:0b:09:
         6f:a4:29:91:63:cb:bd:bf:9f:c2:a1:26:a1:6b:63:56:1c:d2:
         fb:1a:52:29:05:51:b9:70:80:cc:f9:7f:12:6e:23:21:08:9e:
         52:93:33:79
-----BEGIN CERTIFICATE-----
MIIECTCCAvGgAwIBAgIEEAABADANBgkqhkiG9w0BAQsFADBEMQswCQYDVQQGEwJE
RTEPMA0GA1UECAwGSGVzc2VuMRQwEgYDVQQKDAtwcml2YWN5aWRlYTEOMAwGA1UE
AwwFQ0EwMDEwHhcNMTkwMTA5MjExNDMwWhcNMjAwMTA5MjExNDMwWjA3MRMwEQYD
VQQDDApTdGV2ZSBUZXN0MSAwHgYJKoZIhvcNAQkBFhFzdGV2ZUBvcGVuc3NsLm9y
ZzCCASIwDQYJKoZIhvcNAQEBBQADggEPADCCAQoCggEBANKBiSBRSA9z9BEyJNUf
HP1c9bbmxfBSgdzSr2ZKfJMxYVyv0W0GcANgfHIMiN1JzZ4CbNJa11MP89q+aWS1
DwwA47NQR6Ozm7oTUNZYWkurOeARygonZwN4ImZtkh4bXEmu5mvRjjudBtPGrE1T
QxCr6JbBh4KXmY8g05kSNzGE4Yr/KQNfIpA+f5vgIMGt3K5MORoxlhcCjLLZtA0g
Ept9hlT9M/3BKmJG+GCWz24BbyLfE0fnl+wFciOjYvj676yccvA3yy83z5CoJ1GG
xtd4CI9+JaIVcKL7HLYVXqCXi4FMCSiKJzuUvHHbW3E3misW4G+1yfVLTyC6Zc+v
ra0CAwEAAaOCAQ4wggEKMAsGA1UdDwQEAwIFoDAJBgNVHRMEAjAAMBEGCWCGSAGG
+EIBAQQEAwIGQDAzBglghkgBhvhCAQ0EJhYkT3BlblNTTCBHZW5lcmF0ZWQgU2Vy
dmVyIENlcnRpZmljYXRlMB0GA1UdDgQWBBTlJW0+rw3dP0zyRRk51RTbfpzArTB0
BgNVHSMEbTBrgBT0p8DMkUavZPOR8if4yLJviocyc6FIpEYwRDELMAkGA1UEBhMC
REUxDzANBgNVBAgMBkhlc3NlbjEUMBIGA1UECgwLcHJpdmFjeWlkZWExDjAMBgNV
BAMMBUNBMDAxggkA+8jrrIPNEgcwEwYDVR0lBAwwCgYIKwYBBQUHAwEwDQYJKoZI
hvcNAQELBQADggEBAHnWeFhnZVoImqh4abl/mXYk/27h8xx/5KYKUwV7MXkVAk66
sH6bweSDJDkwg35RrlRTL1rZR2pZogPoGuYJs5e5/FPMLhnnHOu/j3RJq3yYN0PT
VnNxh8b2ImKC/TqkHqItdZy0Bvb8a6qYb5HCZOBI1o03cbeHvLXyhZz1DXivNDW3
LEjxRYPRJrPNXdNrz5eIaLiwuW41fFCH8dMf9xNB2AUEPqV8NT6PxA6mjrakAPcW
agrpVbcvb/PdyJk88KHJjB2bMJATXDXQeqY+XWeZkkwgVDQLCW+kKZFjy72/n8Kh
JqFrY1Yc0vsaUikFUblwgMz5fxJuIyEInlKTM3k=
-----END CERTIFICATE-----
