Certificate:
    Data:
        Version: 3 (0x2)
        Serial Number: 268435731 (0x10000113)
    Signature Algorithm: sha256WithRSAEncryption
        Issuer: C=DE, ST=Hessen, O=privacyidea, CN=CA001
        Validity
            Not Before: Jan  9 23:37:21 2019 GMT
            Not After : Jan  9 23:37:21 2020 GMT
        Subject: C=DE, ST=Hessen, O=privacyidea, CN=requester.localdomain
        Subject Public Key Info:
            Public Key Algorithm: rsaEncryption
                Public-Key: (2048 bit)
                Modulus:
                    00:cd:be:14:4f:fa:ce:01:3f:42:22:1b:1d:9c:af:
                    dd:92:d2:7f:db:6c:b7:3e:39:43:43:6b:13:03:f1:
                    05:f4:07:74:bc:76:69:28:0b:af:19:8e:d7:fc:e3:
                    cd:c6:58:f2:ca:7f:08:6d:53:fc:07:02:44:24:c6:
                    b4:34:4c:8c:04:fe:33:0e:40:e2:20:ba:02:73:5a:
                    f7:f5:4f:63:6e:cc:c6:b6:df:54:1d:37:39:7d:51:
                    36:26:5f:bd:dc:3f:a8:8b:6b:a2:ae:b6:9d:d6:21:
                    e7:df:41:b8:7a:28:2a:68:48:ca:a8:2d:ed:e1:e9:
                    46:5e:5a:72:6d:b4:84:38:87:91:fd:94:11:0b:28:
                    84:c6:c2:2f:2a:fb:01:f9:36:7a:09:75:d1:33:88:
                    3c:73:41:5b:c8:bf:94:89:70:a1:f0:c0:b9:2e:50:
                    53:1e:b1:17:64:69:f4:2d:81:e0:a9:0d:0e:32:e9:
                    ba:55:8a:85:f1:1b:6f:49:79:b4:7f:88:c3:0d:3e:
                    54:88:9b:3d:1f:38:8c:04:f3:ee:6a:63:2b:f5:c6:
                    db:b4:83:aa:c4:78:41:3a:7d:4b:e1:c8:3e:71:ca:
                    1b:61:59:ea:c6:c4:ca:32:5e:c9:e9:bf:12:29:e6:
                    c6:c3:63:fe:a0:55:da:7a:f1:60:98:4d:26:ed:fa:
                    70:2d
                Exponent: 65537 (0x10001)
        X509v3 extensions:
            X509v3 Key Usage: 
                Digital Signature, Key Encipherment
            X509v3 Basic Constraints: 
                CA:FALSE
            Netscape Cert Type: 
                SSL Server
            Netscape Comment: 
                OpenSSL Generated Server Certificate
            X509v3 Subject Key Identifier: 
                53:3F:ED:5D:09:07:B3:65:7B:AB:45:C9:24:5B:09:77:80:0A:96:ED
            X509v3 Authority Key Identifier: 
                keyid:F4:A7:C0:CC:91:46:AF:64:F3:91:F2:27:F8:C8:B2:6F:8A:87:32:73
                DirName:/C=DE/ST=Hessen/O=privacyidea/CN=CA001
                serial:FB:C8:EB:AC:83:CD:12:07

            X509v3 Extended Key Usage: 
                TLS Web Server Authentication
    Signature Algorithm: sha256WithRSAEncryption
         69:74:29:3b:35:b9:8e:cd:85:89:49:fd:5e:35:59:09:7e:6f:
         41:02:3c:17:84:53:e3:7f:90:8e:ba:d9:91:b3:61:38:21:49:
         34:57:3b:59:e7:bd:cf:83:f2:05:37:94:b8:f3:b4:b3:e6:d4:
         dc:75:eb:6f:39:19:53:1a:85:6b:39:37:7c:6b:71:c7:be:4c:
         00:c0:d7:e8:ba:51:de:94:20:0c:b1:bb:93:58:6e:3b:ea:83:
         75:48:7e:ba:8f:0c:fc:ed:19:2d:8d:fa:40:fc:32:9b:30:e1:
         ab:4e:b6:9d:c4:81:b7:8e:2c:eb:f6:7e:d9:69:dd:f3:a1:2c:
         56:b0:d3:87:fe:fe:3a:6a:d2:b2:44:13:9d:38:3d:28:2d:bd:
         6c:ee:ae:3d:62:54:ef:a7:03:17:2a:c3:9a:d3:1b:36:ee:77:
         3c:25:ef:eb:20:17:65:e8:ee:e8:4c:fb:29:df:e2:35:3c:9f:
         30:39:46:68:7b:c4:81:ba:92:61:0b:ac:ba:1c:21:fe:45:f7:
         52:c7:01:37:36:24:eb:9c:64:be:31:44:c0:58:32:09:40:fc:
         f3:52:31:6c:1c:e2:81:03:a8:97:35:23:93:74:83:f7:d6:57:
         bb:3c:43:48:ac:f2:e3:77:c9:cf:80:a6:00:c7:0b:de:87:1d:
         74:75:3e:d4
-----BEGIN CERTIFICATE-----
MIIEJjCCAw6gAwIBAgIEEAABEzANBgkqhkiG9w0BAQsFADBEMQswCQYDVQQGEwJE
RTEPMA0GA1UECAwGSGVzc2VuMRQwEgYDVQQKDAtwcml2YWN5aWRlYTEOMAwGA1UE
AwwFQ0EwMDEwHhcNMTkwMTA5MjMzNzIxWhcNMjAwMTA5MjMzNzIxWjBUMQswCQYD
VQQGEwJERTEPMA0GA1UECAwGSGVzc2VuMRQwEgYDVQQKDAtwcml2YWN5aWRlYTEe
MBwGA1UEAwwVcmVxdWVzdGVyLmxvY2FsZG9tYWluMIIBIjANBgkqhkiG9w0BAQEF
AAOCAQ8AMIIBCgKCAQEAzb4UT/rOAT9CIhsdnK/dktJ/22y3PjlDQ2sTA/EF9Ad0
vHZpKAuvGY7X/OPNxljyyn8IbVP8BwJEJMa0NEyMBP4zDkDiILoCc1r39U9jbszG
tt9UHTc5fVE2Jl+93D+oi2uirrad1iHn30G4eigqaEjKqC3t4elGXlpybbSEOIeR
/ZQRCyiExsIvKvsB+TZ6CXXRM4g8c0FbyL+UiXCh8MC5LlBTHrEXZGn0LYHgqQ0O
Mum6VYqF8RtvSXm0f4jDDT5UiJs9HziMBPPuamMr9cbbtIOqxHhBOn1L4cg+ccob
YVnqxsTKMl7J6b8SKebGw2P+oFXaevFgmE0m7fpwLQIDAQABo4IBDjCCAQowCwYD
VR0PBAQDAgWgMAkGA1UdEwQCMAAwEQYJYIZIAYb4QgEBBAQDAgZAMDMGCWCGSAGG
+EIBDQQmFiRPcGVuU1NMIEdlbmVyYXRlZCBTZXJ2ZXIgQ2VydGlmaWNhdGUwHQYD
VR0OBBYEFFM/7V0JB7Nle6tFySRbCXeACpbtMHQGA1UdIwRtMGuAFPSnwMyRRq9k
85HyJ/jIsm+KhzJzoUikRjBEMQswCQYDVQQGEwJERTEPMA0GA1UECAwGSGVzc2Vu
MRQwEgYDVQQKDAtwcml2YWN5aWRlYTEOMAwGA1UEAwwFQ0EwMDGCCQD7yOusg80S
BzATBgNVHSUEDDAKBggrBgEFBQcDATANBgkqhkiG9w0BAQsFAAOCAQEAaXQpOzW5
js2FiUn9XjVZCX5vQQI8F4RT43+QjrrZkbNhOCFJNFc7Wee9z4PyBTeUuPO0s+bU
3HXrbzkZUxqFazk3fGtxx75MAMDX6LpR3pQgDLG7k1huO+qDdUh+uo8M/O0ZLY36
QPwymzDhq062ncSBt44s6/Z+2Wnd86EsVrDTh/7+OmrSskQTnTg9KC29bO6uPWJU
76cDFyrDmtMbNu53PCXv6yAXZeju6Ez7Kd/iNTyfMDlGaHvEgbqSYQusuhwh/kX3
UscBNzYk65xkvjFEwFgyCUD881IxbBzigQOolzUjk3SD99ZXuzxDSKzy43fJz4Cm
AMcL3ocddHU+1A==
-----END CERTIFICATE-----
