Certificate:
    Data:
        Version: 3 (0x2)
        Serial Number: 268435723 (0x1000010b)
    Signature Algorithm: sha256WithRSAEncryption
        Issuer: C=DE, ST=Hessen, O=privacyidea, CN=CA001
        Validity
            Not Before: Jan  9 23:05:41 2019 GMT
            Not After : Jan  9 23:05:41 2020 GMT
        Subject: C=DE, ST=Hessen, O=privacyidea, CN=requester.localdomain
        Subject Public Key Info:
            Public Key Algorithm: rsaEncryption
                Public-Key: (2048 bit)
                Modulus:
                    00:cd:be:14:4f:fa:ce:01:3f:42:22:1b:1d:9c:af:
                    dd:92:d2:7f:db:6c:b7:3e:39:43:43:6b:13:03:f1:
                    05:f4:07:74:bc:76:69:28:0b:af:19:8e:d7:fc:e3:
                    cd:c6:58:f2:ca:7f:08:6d:53:fc:07:02:44:24:c6:
                    b4:34:4c:8c:04:fe:33:0e:40:e2:20:ba:02:73:5a:
                    f7:f5:4f:63:6e:cc:c6:b6:df:54:1d:37:39:7d:51:
                    36:26:5f:bd:dc:3f:a8:8b:6b:a2:ae:b6:9d:d6:21:
                    e7:df:41:b8:7a:28:2a:68:48:ca:a8:2d:ed:e1:e9:
                    46:5e:5a:72:6d:b4:84:38:87:91:fd:94:11:0b:28:
                    84:c6:c2:2f:2a:fb:01:f9:36:7a:09:75:d1:33:88:
                    3c:73:41:5b:c8:bf:94:89:70:a1:f0:c0:b9:2e:50:
                    53:1e:b1:17:64:69:f4:2d:81:e0:a9:0d:0e:32:e9:
                    ba:55:8a:85:f1:1b:6f:49:79:b4:7f:88:c3:0d:3e:
                    54:88:9b:3d:1f:38:8c:04:f3:ee:6a:63:2b:f5:c6:
                    db:b4:83:aa:c4:78:41:3a:7d:4b:e1:c8:3e:71:ca:
                    1b:61:59:ea:c6:c4:ca:32:5e:c9:e9:bf:12:29:e6:
                    c6:c3:63:fe:a0:55:da:7a:f1:60:98:4d:26:ed:fa:
                    70:2d
                Exponent: 65537 (0x10001)
        X509v3 extensions:
            X509v3 Key Usage: 
                Digital Signature, Key Encipherment
            X509v3 Basic Constraints: 
                CA:FALSE
            Netscape Cert Type: 
                SSL Server
            Netscape Comment: 
                OpenSSL Generated Server Certificate
            X509v3 Subject Key Identifier: 
                53:3F:ED:5D:09:07:B3:65:7B:AB:45:C9:24:5B:09:77:80:0A:96:ED
            X509v3 Authority Key Identifier: 
                keyid:F4:A7:C0:CC:91:46:AF:64:F3:91:F2:27:F8:C8:B2:6F:8A:87:32:73
                DirName:/C=DE/ST=Hessen/O=privacyidea/CN=CA001
                serial:FB:C8:EB:AC:83:CD:12:07

            X509v3 Extended Key Usage: 
                TLS Web Server Authentication
    Signature Algorithm: sha256WithRSAEncryption
         3d:85:3e:c4:f2:ec:f6:02:ce:b7:29:70:ef:eb:a1:f8:37:04:
         7a:bc:4a:ce:e8:b8:9c:c2:8d:f3:41:3f:eb:a7:b0:14:bf:13:
         d1:b2:68:ae:ff:f5:e7:8e:d4:c9:02:ae:92:91:03:9d:d7:00:
         4d:3f:0f:68:fa:ae:21:df:77:81:27:56:13:22:d3:8c:41:f5:
         96:b4:a8:41:2c:00:5f:b0:b5:c0:fa:06:da:05:cd:4c:bc:4f:
         96:18:98:db:13:f2:34:43:71:b8:3b:63:3d:63:bb:1f:ae:fc:
         28:e6:a7:54:e5:c2:91:7b:36:ad:b8:96:41:92:7b:28:07:ea:
         a5:77:27:ba:d5:09:72:26:91:1f:ab:88:65:85:ca:fd:89:77:
         c4:5f:5c:30:24:47:30:9d:99:8e:ab:58:b1:fb:95:01:db:11:
         e7:b1:83:ad:9d:54:64:b9:ae:9b:ef:83:a3:10:d7:95:2c:3b:
         d8:a5:ef:46:ef:95:a8:18:87:14:b2:f2:b1:d5:91:11:bc:5d:
         0c:71:ef:20:53:9f:41:84:18:76:31:a1:bf:6a:a7:18:b5:87:
         8f:85:31:6f:3a:3c:ca:9d:bd:d6:37:e5:54:ba:77:7b:af:46:
         2f:42:3e:42:89:9e:55:47:25:e3:24:eb:db:89:60:25:56:9c:
         f6:d7:fd:e1
-----BEGIN CERTIFICATE-----
MIIEJjCCAw6gAwIBAgIEEAABCzANBgkqhkiG9w0BAQsFADBEMQswCQYDVQQGEwJE
RTEPMA0GA1UECAwGSGVzc2VuMRQwEgYDVQQKDAtwcml2YWN5aWRlYTEOMAwGA1UE
AwwFQ0EwMDEwHhcNMTkwMTA5MjMwNTQxWhcNMjAwMTA5MjMwNTQxWjBUMQswCQYD
VQQGEwJERTEPMA0GA1UECAwGSGVzc2VuMRQwEgYDVQQKDAtwcml2YWN5aWRlYTEe
MBwGA1UEAwwVcmVxdWVzdGVyLmxvY2FsZG9tYWluMIIBIjANBgkqhkiG9w0BAQEF
AAOCAQ8AMIIBCgKCAQEAzb4UT/rOAT9CIhsdnK/dktJ/22y3PjlDQ2sTA/EF9Ad0
vHZpKAuvGY7X/OPNxljyyn8IbVP8BwJEJMa0NEyMBP4zDkDiILoCc1r39U9jbszG
tt9UHTc5fVE2Jl+93D+oi2uirrad1iHn30G4eigqaEjKqC3t4elGXlpybbSEOIeR
/ZQRCyiExsIvKvsB+TZ6CXXRM4g8c0FbyL+UiXCh8MC5LlBTHrEXZGn0LYHgqQ0O
Mum6VYqF8RtvSXm0f4jDDT5UiJs9HziMBPPuamMr9cbbtIOqxHhBOn1L4cg+ccob
YVnqxsTKMl7J6b8SKebGw2P+oFXaevFgmE0m7fpwLQIDAQABo4IBDjCCAQowCwYD
VR0PBAQDAgWgMAkGA1UdEwQCMAAwEQYJYIZIAYb4QgEBBAQDAgZAMDMGCWCGSAGG
+EIBDQQmFiRPcGVuU1NMIEdlbmVyYXRlZCBTZXJ2ZXIgQ2VydGlmaWNhdGUwHQYD
VR0OBBYEFFM/7V0JB7Nle6tFySRbCXeACpbtMHQGA1UdIwRtMGuAFPSnwMyRRq9k
85HyJ/jIsm+KhzJzoUikRjBEMQswCQYDVQQGEwJERTEPMA0GA1UECAwGSGVzc2Vu
MRQwEgYDVQQKDAtwcml2YWN5aWRlYTEOMAwGA1UEAwwFQ0EwMDGCCQD7yOusg80S
BzATBgNVHSUEDDAKBggrBgEFBQcDATANBgkqhkiG9w0BAQsFAAOCAQEAPYU+xPLs
9gLOtylw7+uh+DcEerxKzui4nMKN80E/66ewFL8T0bJorv/1547UyQKukpEDndcA
TT8PaPquId93gSdWEyLTjEH1lrSoQSwAX7C1wPoG2gXNTLxPlhiY2xPyNENxuDtj
PWO7H678KOanVOXCkXs2rbiWQZJ7KAfqpXcnutUJciaRH6uIZYXK/Yl3xF9cMCRH
MJ2ZjqtYsfuVAdsR57GDrZ1UZLmum++DoxDXlSw72KXvRu+VqBiHFLLysdWREbxd
DHHvIFOfQYQYdjGhv2qnGLWHj4Uxbzo8yp291jflVLp3e69GL0I+QomeVUcl4yTr
24lgJVac9tf94Q==
-----END CERTIFICATE-----
