Certificate:
    Data:
        Version: 3 (0x2)
        Serial Number: 268435669 (0x100000d5)
        Signature Algorithm: sha256WithRSAEncryption
        Issuer: C=DE, ST=Hessen, O=privacyidea, CN=CA001
        Validity
            Not Before: Nov 29 13:08:02 2019 GMT
            Not After : Dec 18 13:08:02 2021 GMT
        Subject: CN=Steve Test/emailAddress=steve@openssl.org
        Subject Public Key Info:
            Public Key Algorithm: rsaEncryption
                RSA Public-Key: (2048 bit)
                Modulus:
                    00:d2:81:89:20:51:48:0f:73:f4:11:32:24:d5:1f:
                    1c:fd:5c:f5:b6:e6:c5:f0:52:81:dc:d2:af:66:4a:
                    7c:93:31:61:5c:af:d1:6d:06:70:03:60:7c:72:0c:
                    88:dd:49:cd:9e:02:6c:d2:5a:d7:53:0f:f3:da:be:
                    69:64:b5:0f:0c:00:e3:b3:50:47:a3:b3:9b:ba:13:
                    50:d6:58:5a:4b:ab:39:e0:11:ca:0a:27:67:03:78:
                    22:66:6d:92:1e:1b:5c:49:ae:e6:6b:d1:8e:3b:9d:
                    06:d3:c6:ac:4d:53:43:10:ab:e8:96:c1:87:82:97:
                    99:8f:20:d3:99:12:37:31:84:e1:8a:ff:29:03:5f:
                    22:90:3e:7f:9b:e0:20:c1:ad:dc:ae:4c:39:1a:31:
                    96:17:02:8c:b2:d9:b4:0d:20:12:9b:7d:86:54:fd:
                    33:fd:c1:2a:62:46:f8:60:96:cf:6e:01:6f:22:df:
                    13:47:e7:97:ec:05:72:23:a3:62:f8:fa:ef:ac:9c:
                    72:f0:37:cb:2f:37:cf:90:a8:27:51:86:c6:d7:78:
                    08:8f:7e:25:a2:15:70:a2:fb:1c:b6:15:5e:a0:97:
                    8b:81:4c:09:28:8a:27:3b:94:bc:71:db:5b:71:37:
                    9a:2b:16:e0:6f:b5:c9:f5:4b:4f:20:ba:65:cf:af:
                    ad:ad
                Exponent: 65537 (0x10001)
        X509v3 extensions:
            X509v3 Key Usage: 
                Digital Signature, Key Encipherment
            X509v3 Basic Constraints: 
                CA:FALSE
            Netscape Cert Type: 
                SSL Server
            Netscape Comment: 
                OpenSSL Generated Server Certificate
            X509v3 Subject Key Identifier: 
                E5:25:6D:3E:AF:0D:DD:3F:4C:F2:45:19:39:D5:14:DB:7E:9C:C0:AD
            X509v3 Authority Key Identifier: 
                keyid:F4:A7:C0:CC:91:46:AF:64:F3:91:F2:27:F8:C8:B2:6F:8A:87:32:73
                DirName:/C=DE/ST=Hessen/O=privacyidea/CN=CA001
                serial:FB:C8:EB:AC:83:CD:12:07

            X509v3 Extended Key Usage: 
                TLS Web Server Authentication
    Signature Algorithm: sha256WithRSAEncryption
         6f:a3:0c:70:7f:71:d8:2a:31:68:ca:27:7b:14:a3:7a:c3:0f:
         9a:47:b0:a6:28:fd:f8:d5:e0:96:1d:b4:e0:3f:b1:9c:52:47:
         a7:08:58:9a:e7:99:d4:48:6b:dc:11:98:a5:26:8f:f3:e9:c8:
         0d:13:41:95:24:24:bf:d6:64:d0:5c:80:1e:3b:aa:95:23:74:
         a8:59:6d:b2:a9:a0:2d:a7:81:17:47:56:f1:68:91:e6:ee:b8:
         ef:c3:2d:47:65:86:a5:dd:a5:48:18:13:f4:87:81:c5:29:07:
         fe:a9:ac:8e:ea:59:fc:e1:19:4c:a7:1f:d8:5b:eb:7e:a2:bb:
         4b:e0:d1:06:af:92:b5:da:1b:4f:e8:2a:34:6b:f0:ec:54:f5:
         c6:a2:74:95:a3:90:0d:eb:99:d4:38:21:dc:0a:25:64:17:73:
         0f:e9:e0:cd:e0:d3:0a:f8:28:95:d7:8f:17:87:bf:10:5e:99:
         a6:ab:53:1b:e1:8e:9c:d7:a7:4e:55:9f:15:e3:ac:f4:4b:48:
         fd:27:22:b3:c6:57:5f:41:4c:9c:61:c1:9d:5b:63:ce:44:25:
         01:1d:31:e8:c6:a2:ba:3c:35:a9:13:7e:c2:fa:89:8a:7b:a7:
         68:bf:d6:54:6a:ad:d1:2c:38:e3:8f:07:da:8c:83:b3:e2:19:
         d4:59:e5:2d
-----BEGIN CERTIFICATE-----
MIIECTCCAvGgAwIBAgIEEAAA1TANBgkqhkiG9w0BAQsFADBEMQswCQYDVQQGEwJE
RTEPMA0GA1UECAwGSGVzc2VuMRQwEgYDVQQKDAtwcml2YWN5aWRlYTEOMAwGA1UE
AwwFQ0EwMDEwHhcNMTkxMTI5MTMwODAyWhcNMjExMjE4MTMwODAyWjA3MRMwEQYD
VQQDDApTdGV2ZSBUZXN0MSAwHgYJKoZIhvcNAQkBFhFzdGV2ZUBvcGVuc3NsLm9y
ZzCCASIwDQYJKoZIhvcNAQEBBQADggEPADCCAQoCggEBANKBiSBRSA9z9BEyJNUf
HP1c9bbmxfBSgdzSr2ZKfJMxYVyv0W0GcANgfHIMiN1JzZ4CbNJa11MP89q+aWS1
DwwA47NQR6Ozm7oTUNZYWkurOeARygonZwN4ImZtkh4bXEmu5mvRjjudBtPGrE1T
QxCr6JbBh4KXmY8g05kSNzGE4Yr/KQNfIpA+f5vgIMGt3K5MORoxlhcCjLLZtA0g
Ept9hlT9M/3BKmJG+GCWz24BbyLfE0fnl+wFciOjYvj676yccvA3yy83z5CoJ1GG
xtd4CI9+JaIVcKL7HLYVXqCXi4FMCSiKJzuUvHHbW3E3misW4G+1yfVLTyC6Zc+v
ra0CAwEAAaOCAQ4wggEKMAsGA1UdDwQEAwIFoDAJBgNVHRMEAjAAMBEGCWCGSAGG
+EIBAQQEAwIGQDAzBglghkgBhvhCAQ0EJhYkT3BlblNTTCBHZW5lcmF0ZWQgU2Vy
dmVyIENlcnRpZmljYXRlMB0GA1UdDgQWBBTlJW0+rw3dP0zyRRk51RTbfpzArTB0
BgNVHSMEbTBrgBT0p8DMkUavZPOR8if4yLJviocyc6FIpEYwRDELMAkGA1UEBhMC
REUxDzANBgNVBAgMBkhlc3NlbjEUMBIGA1UECgwLcHJpdmFjeWlkZWExDjAMBgNV
BAMMBUNBMDAxggkA+8jrrIPNEgcwEwYDVR0lBAwwCgYIKwYBBQUHAwEwDQYJKoZI
hvcNAQELBQADggEBAG+jDHB/cdgqMWjKJ3sUo3rDD5pHsKYo/fjV4JYdtOA/sZxS
R6cIWJrnmdRIa9wRmKUmj/PpyA0TQZUkJL/WZNBcgB47qpUjdKhZbbKpoC2ngRdH
VvFokebuuO/DLUdlhqXdpUgYE/SHgcUpB/6prI7qWfzhGUynH9hb636iu0vg0Qav
krXaG0/oKjRr8OxU9caidJWjkA3rmdQ4IdwKJWQXcw/p4M3g0wr4KJXXjxeHvxBe
maarUxvhjpzXp05VnxXjrPRLSP0nIrPGV19BTJxhwZ1bY85EJQEdMejGoro8NakT
fsL6iYp7p2i/1lRqrdEsOOOPB9qMg7PiGdRZ5S0=
-----END CERTIFICATE-----
