Certificate:
    Data:
        Version: 3 (0x2)
        Serial Number: 268435729 (0x10000111)
    Signature Algorithm: sha256WithRSAEncryption
        Issuer: C=DE, ST=Hessen, O=privacyidea, CN=CA001
        Validity
            Not Before: Jan  9 23:32:42 2019 GMT
            Not After : Jan  9 23:32:42 2020 GMT
        Subject: CN=Steve Test/emailAddress=steve@openssl.org
        Subject Public Key Info:
            Public Key Algorithm: rsaEncryption
                Public-Key: (2048 bit)
                Modulus:
                    00:d2:81:89:20:51:48:0f:73:f4:11:32:24:d5:1f:
                    1c:fd:5c:f5:b6:e6:c5:f0:52:81:dc:d2:af:66:4a:
                    7c:93:31:61:5c:af:d1:6d:06:70:03:60:7c:72:0c:
                    88:dd:49:cd:9e:02:6c:d2:5a:d7:53:0f:f3:da:be:
                    69:64:b5:0f:0c:00:e3:b3:50:47:a3:b3:9b:ba:13:
                    50:d6:58:5a:4b:ab:39:e0:11:ca:0a:27:67:03:78:
                    22:66:6d:92:1e:1b:5c:49:ae:e6:6b:d1:8e:3b:9d:
                    06:d3:c6:ac:4d:53:43:10:ab:e8:96:c1:87:82:97:
                    99:8f:20:d3:99:12:37:31:84:e1:8a:ff:29:03:5f:
                    22:90:3e:7f:9b:e0:20:c1:ad:dc:ae:4c:39:1a:31:
                    96:17:02:8c:b2:d9:b4:0d:20:12:9b:7d:86:54:fd:
                    33:fd:c1:2a:62:46:f8:60:96:cf:6e:01:6f:22:df:
                    13:47:e7:97:ec:05:72:23:a3:62:f8:fa:ef:ac:9c:
                    72:f0:37:cb:2f:37:cf:90:a8:27:51:86:c6:d7:78:
                    08:8f:7e:25:a2:15:70:a2:fb:1c:b6:15:5e:a0:97:
                    8b:81:4c:09:28:8a:27:3b:94:bc:71:db:5b:71:37:
                    9a:2b:16:e0:6f:b5:c9:f5:4b:4f:20:ba:65:cf:af:
                    ad:ad
                Exponent: 65537 (0x10001)
        X509v3 extensions:
            X509v3 Key Usage: 
                Digital Signature, Key Encipherment
            X509v3 Basic Constraints: 
                CA:FALSE
            Netscape Cert Type: 
                SSL Server
            Netscape Comment: 
                OpenSSL Generated Server Certificate
            X509v3 Subject Key Identifier: 
                E5:25:6D:3E:AF:0D:DD:3F:4C:F2:45:19:39:D5:14:DB:7E:9C:C0:AD
            X509v3 Authority Key Identifier: 
                keyid:F4:A7:C0:CC:91:46:AF:64:F3:91:F2:27:F8:C8:B2:6F:8A:87:32:73
                DirName:/C=DE/ST=Hessen/O=privacyidea/CN=CA001
                serial:FB:C8:EB:AC:83:CD:12:07

            X509v3 Extended Key Usage: 
                TLS Web Server Authentication
    Signature Algorithm: sha256WithRSAEncryption
         87:53:93:df:7b:8b:cd:6f:45:fb:9c:0a:09:11:94:ad:b4:f8:
         4a:70:36:e9:cd:3f:3c:e1:02:78:9e:97:0c:03:f0:48:17:89:
         41:87:6b:54:a4:8b:47:75:18:62:5d:2e:e0:82:28:44:24:1b:
         9c:ad:09:68:77:ac:aa:26:ab:e2:d1:1a:c6:fa:26:23:9b:62:
         10:68:8f:0f:2c:df:51:c1:9a:9a:10:19:50:74:30:67:e5:ac:
         7b:03:1c:48:e0:54:27:3e:2e:59:db:ff:c6:63:e0:6a:65:47:
         7e:a5:f0:a6:35:c2:52:c2:30:9e:79:cb:be:86:35:17:4b:fc:
         89:b6:7f:a6:32:4a:b7:c8:6f:7c:d8:60:ac:e6:27:76:91:d3:
         6d:8e:86:6c:ee:69:e4:6d:cb:6b:d3:fa:00:7f:cf:34:3d:e2:
         f2:ee:5b:a2:24:b9:9f:6d:bb:28:8e:d6:84:6b:6a:cb:78:e8:
         09:5f:5d:f4:05:96:3e:64:e4:64:09:71:fc:7b:e4:10:df:ac:
         1e:fb:b7:74:7a:5f:1a:e4:74:a8:4c:3e:ff:ea:44:13:ab:31:
         d0:be:63:af:c2:82:4f:de:7b:a8:a4:44:e7:42:c1:04:48:77:
         c9:20:21:bd:d6:e7:aa:d8:9c:52:1d:61:77:9b:5e:84:52:a2:
         f6:3c:d1:f3
-----BEGIN CERTIFICATE-----
MIIECTCCAvGgAwIBAgIEEAABETANBgkqhkiG9w0BAQsFADBEMQswCQYDVQQGEwJE
RTEPMA0GA1UECAwGSGVzc2VuMRQwEgYDVQQKDAtwcml2YWN5aWRlYTEOMAwGA1UE
AwwFQ0EwMDEwHhcNMTkwMTA5MjMzMjQyWhcNMjAwMTA5MjMzMjQyWjA3MRMwEQYD
VQQDDApTdGV2ZSBUZXN0MSAwHgYJKoZIhvcNAQkBFhFzdGV2ZUBvcGVuc3NsLm9y
ZzCCASIwDQYJKoZIhvcNAQEBBQADggEPADCCAQoCggEBANKBiSBRSA9z9BEyJNUf
HP1c9bbmxfBSgdzSr2ZKfJMxYVyv0W0GcANgfHIMiN1JzZ4CbNJa11MP89q+aWS1
DwwA47NQR6Ozm7oTUNZYWkurOeARygonZwN4ImZtkh4bXEmu5mvRjjudBtPGrE1T
QxCr6JbBh4KXmY8g05kSNzGE4Yr/KQNfIpA+f5vgIMGt3K5MORoxlhcCjLLZtA0g
Ept9hlT9M/3BKmJG+GCWz24BbyLfE0fnl+wFciOjYvj676yccvA3yy83z5CoJ1GG
xtd4CI9+JaIVcKL7HLYVXqCXi4FMCSiKJzuUvHHbW3E3misW4G+1yfVLTyC6Zc+v
ra0CAwEAAaOCAQ4wggEKMAsGA1UdDwQEAwIFoDAJBgNVHRMEAjAAMBEGCWCGSAGG
+EIBAQQEAwIGQDAzBglghkgBhvhCAQ0EJhYkT3BlblNTTCBHZW5lcmF0ZWQgU2Vy
dmVyIENlcnRpZmljYXRlMB0GA1UdDgQWBBTlJW0+rw3dP0zyRRk51RTbfpzArTB0
BgNVHSMEbTBrgBT0p8DMkUavZPOR8if4yLJviocyc6FIpEYwRDELMAkGA1UEBhMC
REUxDzANBgNVBAgMBkhlc3NlbjEUMBIGA1UECgwLcHJpdmFjeWlkZWExDjAMBgNV
BAMMBUNBMDAxggkA+8jrrIPNEgcwEwYDVR0lBAwwCgYIKwYBBQUHAwEwDQYJKoZI
hvcNAQELBQADggEBAIdTk997i81vRfucCgkRlK20+EpwNunNPzzhAnielwwD8EgX
iUGHa1Ski0d1GGJdLuCCKEQkG5ytCWh3rKomq+LRGsb6JiObYhBojw8s31HBmpoQ
GVB0MGflrHsDHEjgVCc+Llnb/8Zj4GplR36l8KY1wlLCMJ55y76GNRdL/Im2f6Yy
SrfIb3zYYKzmJ3aR022OhmzuaeRty2vT+gB/zzQ94vLuW6IkuZ9tuyiO1oRrast4
6AlfXfQFlj5k5GQJcfx75BDfrB77t3R6XxrkdKhMPv/qRBOrMdC+Y6/Cgk/ee6ik
ROdCwQRId8kgIb3W56rYnFIdYXebXoRSovY80fM=
-----END CERTIFICATE-----
