Certificate:
    Data:
        Version: 3 (0x2)
        Serial Number: 268435755 (0x1000012b)
    Signature Algorithm: sha256WithRSAEncryption
        Issuer: C=DE, ST=Hessen, O=privacyidea, CN=CA001
        Validity
            Not Before: Jan 10 08:33:58 2019 GMT
            Not After : Jan 10 08:33:58 2020 GMT
        Subject: C=DE, ST=Hessen, O=privacyidea, CN=requester.localdomain
        Subject Public Key Info:
            Public Key Algorithm: rsaEncryption
                Public-Key: (2048 bit)
                Modulus:
                    00:cd:be:14:4f:fa:ce:01:3f:42:22:1b:1d:9c:af:
                    dd:92:d2:7f:db:6c:b7:3e:39:43:43:6b:13:03:f1:
                    05:f4:07:74:bc:76:69:28:0b:af:19:8e:d7:fc:e3:
                    cd:c6:58:f2:ca:7f:08:6d:53:fc:07:02:44:24:c6:
                    b4:34:4c:8c:04:fe:33:0e:40:e2:20:ba:02:73:5a:
                    f7:f5:4f:63:6e:cc:c6:b6:df:54:1d:37:39:7d:51:
                    36:26:5f:bd:dc:3f:a8:8b:6b:a2:ae:b6:9d:d6:21:
                    e7:df:41:b8:7a:28:2a:68:48:ca:a8:2d:ed:e1:e9:
                    46:5e:5a:72:6d:b4:84:38:87:91:fd:94:11:0b:28:
                    84:c6:c2:2f:2a:fb:01:f9:36:7a:09:75:d1:33:88:
                    3c:73:41:5b:c8:bf:94:89:70:a1:f0:c0:b9:2e:50:
                    53:1e:b1:17:64:69:f4:2d:81:e0:a9:0d:0e:32:e9:
                    ba:55:8a:85:f1:1b:6f:49:79:b4:7f:88:c3:0d:3e:
                    54:88:9b:3d:1f:38:8c:04:f3:ee:6a:63:2b:f5:c6:
                    db:b4:83:aa:c4:78:41:3a:7d:4b:e1:c8:3e:71:ca:
                    1b:61:59:ea:c6:c4:ca:32:5e:c9:e9:bf:12:29:e6:
                    c6:c3:63:fe:a0:55:da:7a:f1:60:98:4d:26:ed:fa:
                    70:2d
                Exponent: 65537 (0x10001)
        X509v3 extensions:
            X509v3 Key Usage: 
                Digital Signature, Key Encipherment
            X509v3 Basic Constraints: 
                CA:FALSE
            Netscape Cert Type: 
                SSL Server
            Netscape Comment: 
                OpenSSL Generated Server Certificate
            X509v3 Subject Key Identifier: 
                53:3F:ED:5D:09:07:B3:65:7B:AB:45:C9:24:5B:09:77:80:0A:96:ED
            X509v3 Authority Key Identifier: 
                keyid:F4:A7:C0:CC:91:46:AF:64:F3:91:F2:27:F8:C8:B2:6F:8A:87:32:73
                DirName:/C=DE/ST=Hessen/O=privacyidea/CN=CA001
                serial:FB:C8:EB:AC:83:CD:12:07

            X509v3 Extended Key Usage: 
                TLS Web Server Authentication
    Signature Algorithm: sha256WithRSAEncryption
         08:8a:f0:00:5a:d7:e2:45:e4:79:21:9c:cc:ce:74:f1:74:a6:
         ba:3c:7b:f7:29:4c:7d:3d:ab:94:b9:c2:99:4d:93:c7:bb:66:
         b4:f7:8d:7e:f3:26:2c:bb:43:35:87:6b:59:d5:8a:46:91:06:
         f2:1a:49:65:14:c7:ee:8b:3d:9b:b4:3b:15:8e:ca:65:ae:b1:
         5a:54:1c:3d:2d:72:14:0d:1b:59:51:90:50:e0:6a:ab:fe:f9:
         fa:3f:2f:b3:1d:99:17:21:25:a0:5c:16:94:39:83:bd:12:bf:
         39:a4:be:b2:3c:a4:4a:4d:8f:ea:78:07:2c:8e:eb:5c:db:e5:
         26:fe:9a:87:8e:41:67:b5:5d:00:b1:0d:aa:49:85:d7:96:94:
         fc:4e:a9:ab:7c:0a:0a:25:5f:2a:3f:04:22:ea:65:c9:10:90:
         70:f8:94:6b:7a:4c:2c:c0:e4:78:6c:23:95:8b:b0:4e:11:61:
         de:ef:22:ba:a0:cb:02:cc:9c:7c:7a:ac:54:b0:45:da:71:40:
         49:40:b9:84:f1:3d:85:bd:c3:37:2e:e4:c2:f1:8a:89:d3:cd:
         ee:73:8b:b8:76:78:68:eb:d0:ff:dd:6b:46:5e:45:c4:f8:ab:
         a6:ad:25:73:91:f6:65:36:9f:48:4a:c0:b9:84:47:47:64:91:
         6e:30:ee:d5
-----BEGIN CERTIFICATE-----
MIIEJjCCAw6gAwIBAgIEEAABKzANBgkqhkiG9w0BAQsFADBEMQswCQYDVQQGEwJE
RTEPMA0GA1UECAwGSGVzc2VuMRQwEgYDVQQKDAtwcml2YWN5aWRlYTEOMAwGA1UE
AwwFQ0EwMDEwHhcNMTkwMTEwMDgzMzU4WhcNMjAwMTEwMDgzMzU4WjBUMQswCQYD
VQQGEwJERTEPMA0GA1UECAwGSGVzc2VuMRQwEgYDVQQKDAtwcml2YWN5aWRlYTEe
MBwGA1UEAwwVcmVxdWVzdGVyLmxvY2FsZG9tYWluMIIBIjANBgkqhkiG9w0BAQEF
AAOCAQ8AMIIBCgKCAQEAzb4UT/rOAT9CIhsdnK/dktJ/22y3PjlDQ2sTA/EF9Ad0
vHZpKAuvGY7X/OPNxljyyn8IbVP8BwJEJMa0NEyMBP4zDkDiILoCc1r39U9jbszG
tt9UHTc5fVE2Jl+93D+oi2uirrad1iHn30G4eigqaEjKqC3t4elGXlpybbSEOIeR
/ZQRCyiExsIvKvsB+TZ6CXXRM4g8c0FbyL+UiXCh8MC5LlBTHrEXZGn0LYHgqQ0O
Mum6VYqF8RtvSXm0f4jDDT5UiJs9HziMBPPuamMr9cbbtIOqxHhBOn1L4cg+ccob
YVnqxsTKMl7J6b8SKebGw2P+oFXaevFgmE0m7fpwLQIDAQABo4IBDjCCAQowCwYD
VR0PBAQDAgWgMAkGA1UdEwQCMAAwEQYJYIZIAYb4QgEBBAQDAgZAMDMGCWCGSAGG
+EIBDQQmFiRPcGVuU1NMIEdlbmVyYXRlZCBTZXJ2ZXIgQ2VydGlmaWNhdGUwHQYD
VR0OBBYEFFM/7V0JB7Nle6tFySRbCXeACpbtMHQGA1UdIwRtMGuAFPSnwMyRRq9k
85HyJ/jIsm+KhzJzoUikRjBEMQswCQYDVQQGEwJERTEPMA0GA1UECAwGSGVzc2Vu
MRQwEgYDVQQKDAtwcml2YWN5aWRlYTEOMAwGA1UEAwwFQ0EwMDGCCQD7yOusg80S
BzATBgNVHSUEDDAKBggrBgEFBQcDATANBgkqhkiG9w0BAQsFAAOCAQEACIrwAFrX
4kXkeSGczM508XSmujx79ylMfT2rlLnCmU2Tx7tmtPeNfvMmLLtDNYdrWdWKRpEG
8hpJZRTH7os9m7Q7FY7KZa6xWlQcPS1yFA0bWVGQUOBqq/75+j8vsx2ZFyEloFwW
lDmDvRK/OaS+sjykSk2P6ngHLI7rXNvlJv6ah45BZ7VdALENqkmF15aU/E6pq3wK
CiVfKj8EIuplyRCQcPiUa3pMLMDkeGwjlYuwThFh3u8iuqDLAsycfHqsVLBF2nFA
SUC5hPE9hb3DNy7kwvGKidPN7nOLuHZ4aOvQ/91rRl5FxPirpq0lc5H2ZTafSErA
uYRHR2SRbjDu1Q==
-----END CERTIFICATE-----
