Certificate:
    Data:
        Version: 3 (0x2)
        Serial Number: 268435678 (0x100000de)
        Signature Algorithm: sha256WithRSAEncryption
        Issuer: C=DE, ST=Hessen, O=privacyidea, CN=CA001
        Validity
            Not Before: Nov 15 18:55:54 2019 GMT
            Not After : Nov 14 18:55:54 2020 GMT
        Subject: CN=selfservice,CN=user,O=realm1/emailAddress=meine
        Subject Public Key Info:
            Public Key Algorithm: rsaEncryption
                RSA Public-Key: (2048 bit)
                Modulus:
                    00:cf:3c:d4:33:0e:12:c4:e6:da:cd:b6:56:a1:1c:
                    26:bb:26:1c:8a:4a:73:a8:58:8a:b6:1e:b3:8b:99:
                    d2:1d:07:c2:92:89:79:c0:69:d8:c8:df:28:61:98:
                    1e:b3:fe:ae:2b:bd:78:a9:f7:6e:47:dc:a3:a0:16:
                    8c:85:02:c1:4e:92:fd:72:6e:f0:c8:03:29:9b:b8:
                    00:6e:c0:83:95:c8:34:20:36:9c:b3:e5:e4:e6:76:
                    73:a3:1a:ad:40:96:e0:53:54:00:ec:76:79:9a:c6:
                    0d:7e:b6:bd:29:ec:83:f3:cb:89:a4:cb:6c:00:ba:
                    0c:c5:78:0f:ff:69:b8:94:f4:04:70:43:3f:d8:9e:
                    d7:a7:fb:5d:ce:75:8e:da:e7:c4:07:b1:9d:de:6f:
                    88:4b:b6:4d:9a:cf:f9:bc:fa:9f:cd:32:6d:f6:3a:
                    0b:0d:23:42:78:ec:97:42:bf:0e:4d:60:56:e1:d3:
                    02:f2:19:cb:84:57:90:e5:70:a1:a2:83:35:86:e2:
                    da:86:9f:f9:8a:c4:79:b3:52:28:da:cb:bb:34:ca:
                    d3:da:91:4a:cf:8d:76:a2:b2:6b:9b:f9:96:fd:09:
                    2a:da:11:23:4d:f0:cb:d6:b2:b1:0e:12:6c:9a:19:
                    65:98:87:ca:e4:ee:24:ce:44:ac:90:8f:9d:1b:c5:
                    2a:9d
                Exponent: 65537 (0x10001)
        X509v3 extensions:
            X509v3 Key Usage: 
                Digital Signature, Key Encipherment
            X509v3 Basic Constraints: 
                CA:FALSE
            Netscape Cert Type: 
                SSL Server
            Netscape Comment: 
                OpenSSL Generated Server Certificate
            X509v3 Subject Key Identifier: 
                4D:07:90:AD:FF:1D:0D:E7:1A:DD:D6:2E:FA:BA:34:CB:AA:1F:24:C6
            X509v3 Authority Key Identifier: 
                keyid:F4:A7:C0:CC:91:46:AF:64:F3:91:F2:27:F8:C8:B2:6F:8A:87:32:73
                DirName:/C=DE/ST=Hessen/O=privacyidea/CN=CA001
                serial:FB:C8:EB:AC:83:CD:12:07

            X509v3 Extended Key Usage: 
                TLS Web Server Authentication
    Signature Algorithm: sha256WithRSAEncryption
         19:02:d8:f6:6b:bc:55:0e:24:d5:00:27:4a:3f:f8:94:03:27:
         12:73:08:c6:69:79:7e:50:bd:a4:dd:9f:52:ff:60:25:33:ad:
         2f:e3:c4:af:b9:1c:81:d4:2e:8f:9e:e2:89:9e:a0:d2:32:45:
         38:dc:ef:ae:f3:a7:95:07:5b:e9:5b:36:14:b5:33:53:37:87:
         98:b2:9c:b3:f6:7e:30:8d:de:34:1e:d2:d5:49:66:3c:de:6b:
         b1:98:6d:75:02:95:9b:5e:89:e4:78:d6:87:fb:5d:38:1d:b7:
         be:2e:aa:75:d4:67:c9:d5:ad:e6:6a:26:d1:eb:87:04:85:d0:
         02:10:f0:07:1f:03:52:87:16:bd:ef:09:7a:e0:5e:8e:31:d1:
         ac:fc:97:a7:36:d6:9c:90:17:cd:36:c7:b2:e0:b6:fb:bc:40:
         9f:64:5e:da:1e:45:a5:6c:d0:d8:f4:9e:55:29:4e:33:ac:c3:
         2b:77:d2:ac:ad:86:fd:47:31:2d:1c:cd:1a:a2:cf:74:29:28:
         59:95:9c:c0:72:95:cc:e0:e5:ee:89:bd:bc:bc:15:41:13:02:
         b9:d3:eb:76:ef:33:8a:eb:0d:87:7c:2b:38:ae:81:fa:ee:d7:
         ee:05:ab:a4:25:24:e3:38:11:0d:ab:28:11:9f:a3:04:46:f3:
         7b:7b:a2:81
-----BEGIN CERTIFICATE-----
MIIEDzCCAvegAwIBAgIEEAAA3jANBgkqhkiG9w0BAQsFADBEMQswCQYDVQQGEwJE
RTEPMA0GA1UECAwGSGVzc2VuMRQwEgYDVQQKDAtwcml2YWN5aWRlYTEOMAwGA1UE
AwwFQ0EwMDEwHhcNMTkxMTE1MTg1NTU0WhcNMjAxMTE0MTg1NTU0WjA9MSUwIwYD
VQQDDBxzZWxmc2VydmljZSxDTj11c2VyLE89cmVhbG0xMRQwEgYJKoZIhvcNAQkB
FgVtZWluZTCCASIwDQYJKoZIhvcNAQEBBQADggEPADCCAQoCggEBAM881DMOEsTm
2s22VqEcJrsmHIpKc6hYirYes4uZ0h0HwpKJecBp2MjfKGGYHrP+riu9eKn3bkfc
o6AWjIUCwU6S/XJu8MgDKZu4AG7Ag5XINCA2nLPl5OZ2c6MarUCW4FNUAOx2eZrG
DX62vSnsg/PLiaTLbAC6DMV4D/9puJT0BHBDP9ie16f7Xc51jtrnxAexnd5viEu2
TZrP+bz6n80ybfY6Cw0jQnjsl0K/Dk1gVuHTAvIZy4RXkOVwoaKDNYbi2oaf+YrE
ebNSKNrLuzTK09qRSs+NdqKya5v5lv0JKtoRI03wy9aysQ4SbJoZZZiHyuTuJM5E
rJCPnRvFKp0CAwEAAaOCAQ4wggEKMAsGA1UdDwQEAwIFoDAJBgNVHRMEAjAAMBEG
CWCGSAGG+EIBAQQEAwIGQDAzBglghkgBhvhCAQ0EJhYkT3BlblNTTCBHZW5lcmF0
ZWQgU2VydmVyIENlcnRpZmljYXRlMB0GA1UdDgQWBBRNB5Ct/x0N5xrd1i76ujTL
qh8kxjB0BgNVHSMEbTBrgBT0p8DMkUavZPOR8if4yLJviocyc6FIpEYwRDELMAkG
A1UEBhMCREUxDzANBgNVBAgMBkhlc3NlbjEUMBIGA1UECgwLcHJpdmFjeWlkZWEx
DjAMBgNVBAMMBUNBMDAxggkA+8jrrIPNEgcwEwYDVR0lBAwwCgYIKwYBBQUHAwEw
DQYJKoZIhvcNAQELBQADggEBABkC2PZrvFUOJNUAJ0o/+JQDJxJzCMZpeX5QvaTd
n1L/YCUzrS/jxK+5HIHULo+e4omeoNIyRTjc767zp5UHW+lbNhS1M1M3h5iynLP2
fjCN3jQe0tVJZjzea7GYbXUClZteieR41of7XTgdt74uqnXUZ8nVreZqJtHrhwSF
0AIQ8AcfA1KHFr3vCXrgXo4x0az8l6c21pyQF802x7Lgtvu8QJ9kXtoeRaVs0Nj0
nlUpTjOswyt30qythv1HMS0czRqiz3QpKFmVnMBylczg5e6Jvby8FUETArnT63bv
M4rrDYd8Kziugfru1+4Fq6QlJOM4EQ2rKBGfowRG83t7ooE=
-----END CERTIFICATE-----
