Certificate:
    Data:
        Version: 3 (0x2)
        Serial Number: 268435670 (0x100000d6)
        Signature Algorithm: sha256WithRSAEncryption
        Issuer: C=DE, ST=Hessen, O=privacyidea, CN=CA001
        Validity
            Not Before: Nov 29 13:09:45 2019 GMT
            Not After : Nov 28 13:09:45 2020 GMT
        Subject: C=DE, ST=Hessen, O=privacyidea, CN=requester.localdomain
        Subject Public Key Info:
            Public Key Algorithm: rsaEncryption
                RSA Public-Key: (2048 bit)
                Modulus:
                    00:cd:be:14:4f:fa:ce:01:3f:42:22:1b:1d:9c:af:
                    dd:92:d2:7f:db:6c:b7:3e:39:43:43:6b:13:03:f1:
                    05:f4:07:74:bc:76:69:28:0b:af:19:8e:d7:fc:e3:
                    cd:c6:58:f2:ca:7f:08:6d:53:fc:07:02:44:24:c6:
                    b4:34:4c:8c:04:fe:33:0e:40:e2:20:ba:02:73:5a:
                    f7:f5:4f:63:6e:cc:c6:b6:df:54:1d:37:39:7d:51:
                    36:26:5f:bd:dc:3f:a8:8b:6b:a2:ae:b6:9d:d6:21:
                    e7:df:41:b8:7a:28:2a:68:48:ca:a8:2d:ed:e1:e9:
                    46:5e:5a:72:6d:b4:84:38:87:91:fd:94:11:0b:28:
                    84:c6:c2:2f:2a:fb:01:f9:36:7a:09:75:d1:33:88:
                    3c:73:41:5b:c8:bf:94:89:70:a1:f0:c0:b9:2e:50:
                    53:1e:b1:17:64:69:f4:2d:81:e0:a9:0d:0e:32:e9:
                    ba:55:8a:85:f1:1b:6f:49:79:b4:7f:88:c3:0d:3e:
                    54:88:9b:3d:1f:38:8c:04:f3:ee:6a:63:2b:f5:c6:
                    db:b4:83:aa:c4:78:41:3a:7d:4b:e1:c8:3e:71:ca:
                    1b:61:59:ea:c6:c4:ca:32:5e:c9:e9:bf:12:29:e6:
                    c6:c3:63:fe:a0:55:da:7a:f1:60:98:4d:26:ed:fa:
                    70:2d
                Exponent: 65537 (0x10001)
        X509v3 extensions:
            X509v3 Key Usage: 
                Digital Signature, Key Encipherment
            X509v3 Basic Constraints: 
                CA:FALSE
            Netscape Cert Type: 
                SSL Server
            Netscape Comment: 
                OpenSSL Generated Server Certificate
            X509v3 Subject Key Identifier: 
                53:3F:ED:5D:09:07:B3:65:7B:AB:45:C9:24:5B:09:77:80:0A:96:ED
            X509v3 Authority Key Identifier: 
                keyid:F4:A7:C0:CC:91:46:AF:64:F3:91:F2:27:F8:C8:B2:6F:8A:87:32:73
                DirName:/C=DE/ST=Hessen/O=privacyidea/CN=CA001
                serial:FB:C8:EB:AC:83:CD:12:07

            X509v3 Extended Key Usage: 
                TLS Web Server Authentication
    Signature Algorithm: sha256WithRSAEncryption
         2f:ae:34:64:90:22:db:2b:b6:9d:02:51:9b:c8:b2:72:20:6c:
         75:a6:9f:5e:d1:34:d5:a4:87:d4:36:8c:c0:3e:b1:c2:13:0d:
         49:53:b2:3d:fc:22:54:28:87:fc:99:3a:70:9d:8f:fa:0f:82:
         25:cf:bb:7a:51:61:a6:cf:2d:52:8f:c1:a6:12:78:1c:2d:e5:
         54:4a:fb:d8:e4:99:b3:0c:c0:1d:a6:ed:6f:1b:5c:74:39:7d:
         24:07:97:3a:99:0c:1e:f5:85:2c:e3:6f:a4:ad:10:f0:a2:21:
         22:63:c3:6e:cc:9f:61:36:a1:72:fd:2c:60:7b:22:a5:02:65:
         09:df:77:21:c8:ba:58:52:df:51:1c:cd:ef:98:bf:2c:21:36:
         f2:b4:0f:7d:04:d8:80:bc:e9:17:3a:6a:de:20:8d:74:df:76:
         37:b4:e5:f7:46:84:e1:0e:17:bf:4d:7b:58:a3:d6:fa:ed:ea:
         cd:7e:a8:bd:2d:0b:4f:f6:aa:b5:49:d7:1d:ae:09:bf:ec:b9:
         9b:46:2a:6c:42:82:f8:eb:c9:0e:e9:d4:f6:cb:59:15:1e:43:
         d1:1b:d0:a7:13:a8:96:94:ff:7c:95:9f:be:e5:b0:df:1b:dc:
         a3:de:71:55:1e:44:1b:40:76:5b:0e:4b:84:28:94:b2:32:ac:
         22:4c:e6:fd
-----BEGIN CERTIFICATE-----
MIIEJjCCAw6gAwIBAgIEEAAA1jANBgkqhkiG9w0BAQsFADBEMQswCQYDVQQGEwJE
RTEPMA0GA1UECAwGSGVzc2VuMRQwEgYDVQQKDAtwcml2YWN5aWRlYTEOMAwGA1UE
AwwFQ0EwMDEwHhcNMTkxMTI5MTMwOTQ1WhcNMjAxMTI4MTMwOTQ1WjBUMQswCQYD
VQQGEwJERTEPMA0GA1UECAwGSGVzc2VuMRQwEgYDVQQKDAtwcml2YWN5aWRlYTEe
MBwGA1UEAwwVcmVxdWVzdGVyLmxvY2FsZG9tYWluMIIBIjANBgkqhkiG9w0BAQEF
AAOCAQ8AMIIBCgKCAQEAzb4UT/rOAT9CIhsdnK/dktJ/22y3PjlDQ2sTA/EF9Ad0
vHZpKAuvGY7X/OPNxljyyn8IbVP8BwJEJMa0NEyMBP4zDkDiILoCc1r39U9jbszG
tt9UHTc5fVE2Jl+93D+oi2uirrad1iHn30G4eigqaEjKqC3t4elGXlpybbSEOIeR
/ZQRCyiExsIvKvsB+TZ6CXXRM4g8c0FbyL+UiXCh8MC5LlBTHrEXZGn0LYHgqQ0O
Mum6VYqF8RtvSXm0f4jDDT5UiJs9HziMBPPuamMr9cbbtIOqxHhBOn1L4cg+ccob
YVnqxsTKMl7J6b8SKebGw2P+oFXaevFgmE0m7fpwLQIDAQABo4IBDjCCAQowCwYD
VR0PBAQDAgWgMAkGA1UdEwQCMAAwEQYJYIZIAYb4QgEBBAQDAgZAMDMGCWCGSAGG
+EIBDQQmFiRPcGVuU1NMIEdlbmVyYXRlZCBTZXJ2ZXIgQ2VydGlmaWNhdGUwHQYD
VR0OBBYEFFM/7V0JB7Nle6tFySRbCXeACpbtMHQGA1UdIwRtMGuAFPSnwMyRRq9k
85HyJ/jIsm+KhzJzoUikRjBEMQswCQYDVQQGEwJERTEPMA0GA1UECAwGSGVzc2Vu
MRQwEgYDVQQKDAtwcml2YWN5aWRlYTEOMAwGA1UEAwwFQ0EwMDGCCQD7yOusg80S
BzATBgNVHSUEDDAKBggrBgEFBQcDATANBgkqhkiG9w0BAQsFAAOCAQEAL640ZJAi
2yu2nQJRm8iyciBsdaafXtE01aSH1DaMwD6xwhMNSVOyPfwiVCiH/Jk6cJ2P+g+C
Jc+7elFhps8tUo/BphJ4HC3lVEr72OSZswzAHabtbxtcdDl9JAeXOpkMHvWFLONv
pK0Q8KIhImPDbsyfYTahcv0sYHsipQJlCd93Ici6WFLfURzN75i/LCE28rQPfQTY
gLzpFzpq3iCNdN92N7Tl90aE4Q4Xv017WKPW+u3qzX6ovS0LT/aqtUnXHa4Jv+y5
m0YqbEKC+OvJDunU9stZFR5D0RvQpxOolpT/fJWfvuWw3xvco95xVR5EG0B2Ww5L
hCiUsjKsIkzm/Q==
-----END CERTIFICATE-----
