Certificate:
    Data:
        Version: 3 (0x2)
        Serial Number: 268435752 (0x10000128)
    Signature Algorithm: sha256WithRSAEncryption
        Issuer: C=DE, ST=Hessen, O=privacyidea, CN=CA001
        Validity
            Not Before: Jan 10 08:29:03 2019 GMT
            Not After : Jan 10 08:29:03 2020 GMT
        Subject: C=DE, ST=Hessen, O=privacyidea, CN=usercert
        Subject Public Key Info:
            Public Key Algorithm: rsaEncryption
                Public-Key: (2048 bit)
                Modulus:
                    00:dc:2f:d1:5f:29:97:d4:7c:c3:53:c8:30:bd:4b:
                    67:70:2c:24:6b:b8:5e:eb:21:7a:48:12:56:7c:81:
                    5c:48:75:b6:68:eb:f6:f2:98:4e:50:51:d1:7f:6c:
                    73:f3:0a:a7:ae:be:48:5e:e5:d6:e1:d9:2a:7c:32:
                    6e:4e:fd:08:f6:5a:54:49:23:73:c3:b9:07:18:d1:
                    ef:b3:ac:f8:8a:dc:94:96:a4:90:3a:8e:74:df:e6:
                    0d:37:1b:bd:5b:b7:25:1a:56:39:da:6f:91:aa:5e:
                    1c:74:f3:f9:7c:14:01:83:12:65:76:c7:bb:fe:36:
                    5b:95:e9:72:65:83:ed:3e:98:30:71:fa:87:dd:a3:
                    36:5a:30:03:2e:26:e0:61:d1:bf:02:3f:b6:06:1f:
                    4a:89:28:1c:5c:a2:ff:4e:be:94:e6:8c:e0:da:82:
                    f1:9d:29:32:48:30:73:b4:04:f6:42:1e:be:f7:e2:
                    32:32:27:3c:9d:89:2f:70:3e:85:9a:6f:5c:c5:09:
                    c0:8c:32:2f:72:22:c9:d2:95:1f:b6:ac:72:60:72:
                    b7:82:4d:6b:ce:5b:e3:00:d0:d2:2f:58:c6:e0:10:
                    e5:51:ca:4d:3b:2e:e6:7e:ab:84:d6:56:f1:93:35:
                    a0:93:64:26:81:75:2f:91:b5:16:06:38:0b:db:cc:
                    2d:07
                Exponent: 65537 (0x10001)
        X509v3 extensions:
            X509v3 Key Usage: 
                Digital Signature, Key Encipherment
            X509v3 Basic Constraints: 
                CA:FALSE
            Netscape Cert Type: 
                SSL Server
            Netscape Comment: 
                OpenSSL Generated Server Certificate
            X509v3 Subject Key Identifier: 
                FC:14:D1:F0:4B:8D:00:90:F2:F5:B8:71:9E:4E:97:C3:92:54:AD:0B
            X509v3 Authority Key Identifier: 
                keyid:F4:A7:C0:CC:91:46:AF:64:F3:91:F2:27:F8:C8:B2:6F:8A:87:32:73
                DirName:/C=DE/ST=Hessen/O=privacyidea/CN=CA001
                serial:FB:C8:EB:AC:83:CD:12:07

            X509v3 Extended Key Usage: 
                TLS Web Server Authentication
    Signature Algorithm: sha256WithRSAEncryption
         69:64:ba:6b:46:6a:98:56:98:00:bf:94:af:de:c2:a3:3f:ba:
         22:83:b7:2c:a3:66:e0:dd:93:83:2a:91:b5:14:d7:02:51:ea:
         d9:21:e8:25:f0:80:72:de:9c:31:45:5b:5f:9a:a7:d1:8d:f7:
         46:ac:39:82:84:c6:c3:70:ae:a4:45:af:2e:c1:2a:06:45:05:
         02:50:82:59:b2:f6:98:63:d4:e1:06:22:14:f2:c4:8d:e4:ed:
         f1:ac:cf:6f:48:64:77:c9:0d:10:69:01:d9:55:f5:39:55:f4:
         92:a4:53:ed:60:ef:82:52:00:c6:59:0a:7b:31:00:cd:7d:b7:
         ea:b4:ef:55:ce:78:58:c3:07:3e:b7:1a:b0:95:6c:d1:4b:3f:
         f4:b5:c0:81:2a:38:a3:75:36:f4:10:57:c4:bb:1c:9d:5a:71:
         bd:13:f9:5b:e8:e9:ea:44:dd:e9:8c:f5:c2:ee:da:4b:6a:a3:
         86:d6:eb:6b:6f:4c:d1:2b:bb:0d:90:6d:15:84:9a:3f:3a:87:
         dc:6b:9b:5f:38:cc:f1:28:83:b5:b9:79:e3:e8:de:bb:90:ab:
         1f:33:75:22:fd:d8:f3:70:c8:73:29:0f:92:5a:4c:71:97:bd:
         a7:39:b4:ba:48:33:5e:26:a4:df:65:a6:0d:66:b8:74:4e:8b:
         6c:9f:71:ba
-----BEGIN CERTIFICATE-----
MIIEGTCCAwGgAwIBAgIEEAABKDANBgkqhkiG9w0BAQsFADBEMQswCQYDVQQGEwJE
RTEPMA0GA1UECAwGSGVzc2VuMRQwEgYDVQQKDAtwcml2YWN5aWRlYTEOMAwGA1UE
AwwFQ0EwMDEwHhcNMTkwMTEwMDgyOTAzWhcNMjAwMTEwMDgyOTAzWjBHMQswCQYD
VQQGEwJERTEPMA0GA1UECAwGSGVzc2VuMRQwEgYDVQQKDAtwcml2YWN5aWRlYTER
MA8GA1UEAwwIdXNlcmNlcnQwggEiMA0GCSqGSIb3DQEBAQUAA4IBDwAwggEKAoIB
AQDcL9FfKZfUfMNTyDC9S2dwLCRruF7rIXpIElZ8gVxIdbZo6/bymE5QUdF/bHPz
Cqeuvkhe5dbh2Sp8Mm5O/Qj2WlRJI3PDuQcY0e+zrPiK3JSWpJA6jnTf5g03G71b
tyUaVjnab5GqXhx08/l8FAGDEmV2x7v+NluV6XJlg+0+mDBx+ofdozZaMAMuJuBh
0b8CP7YGH0qJKBxcov9OvpTmjODagvGdKTJIMHO0BPZCHr734jIyJzydiS9wPoWa
b1zFCcCMMi9yIsnSlR+2rHJgcreCTWvOW+MA0NIvWMbgEOVRyk07LuZ+q4TWVvGT
NaCTZCaBdS+RtRYGOAvbzC0HAgMBAAGjggEOMIIBCjALBgNVHQ8EBAMCBaAwCQYD
VR0TBAIwADARBglghkgBhvhCAQEEBAMCBkAwMwYJYIZIAYb4QgENBCYWJE9wZW5T
U0wgR2VuZXJhdGVkIFNlcnZlciBDZXJ0aWZpY2F0ZTAdBgNVHQ4EFgQU/BTR8EuN
AJDy9bhxnk6Xw5JUrQswdAYDVR0jBG0wa4AU9KfAzJFGr2TzkfIn+Miyb4qHMnOh
SKRGMEQxCzAJBgNVBAYTAkRFMQ8wDQYDVQQIDAZIZXNzZW4xFDASBgNVBAoMC3By
aXZhY3lpZGVhMQ4wDAYDVQQDDAVDQTAwMYIJAPvI66yDzRIHMBMGA1UdJQQMMAoG
CCsGAQUFBwMBMA0GCSqGSIb3DQEBCwUAA4IBAQBpZLprRmqYVpgAv5Sv3sKjP7oi
g7cso2bg3ZODKpG1FNcCUerZIegl8IBy3pwxRVtfmqfRjfdGrDmChMbDcK6kRa8u
wSoGRQUCUIJZsvaYY9ThBiIU8sSN5O3xrM9vSGR3yQ0QaQHZVfU5VfSSpFPtYO+C
UgDGWQp7MQDNfbfqtO9VznhYwwc+txqwlWzRSz/0tcCBKjijdTb0EFfEuxydWnG9
E/lb6OnqRN3pjPXC7tpLaqOG1utrb0zRK7sNkG0VhJo/Oofca5tfOMzxKIO1uXnj
6N67kKsfM3Ui/djzcMhzKQ+SWkxxl72nObS6SDNeJqTfZaYNZrh0Totsn3G6
-----END CERTIFICATE-----
