Certificate:
    Data:
        Version: 3 (0x2)
        Serial Number: 268435679 (0x100000df)
        Signature Algorithm: sha256WithRSAEncryption
        Issuer: C=DE, ST=Hessen, O=privacyidea, CN=CA001
        Validity
            Not Before: Oct 24 09:42:16 2019 GMT
            Not After : Oct 23 09:42:16 2020 GMT
        Subject: C=DE, ST=Hessen, O=privacyidea, CN=usercert
        Subject Public Key Info:
            Public Key Algorithm: rsaEncryption
                RSA Public-Key: (2048 bit)
                Modulus:
                    00:dc:2f:d1:5f:29:97:d4:7c:c3:53:c8:30:bd:4b:
                    67:70:2c:24:6b:b8:5e:eb:21:7a:48:12:56:7c:81:
                    5c:48:75:b6:68:eb:f6:f2:98:4e:50:51:d1:7f:6c:
                    73:f3:0a:a7:ae:be:48:5e:e5:d6:e1:d9:2a:7c:32:
                    6e:4e:fd:08:f6:5a:54:49:23:73:c3:b9:07:18:d1:
                    ef:b3:ac:f8:8a:dc:94:96:a4:90:3a:8e:74:df:e6:
                    0d:37:1b:bd:5b:b7:25:1a:56:39:da:6f:91:aa:5e:
                    1c:74:f3:f9:7c:14:01:83:12:65:76:c7:bb:fe:36:
                    5b:95:e9:72:65:83:ed:3e:98:30:71:fa:87:dd:a3:
                    36:5a:30:03:2e:26:e0:61:d1:bf:02:3f:b6:06:1f:
                    4a:89:28:1c:5c:a2:ff:4e:be:94:e6:8c:e0:da:82:
                    f1:9d:29:32:48:30:73:b4:04:f6:42:1e:be:f7:e2:
                    32:32:27:3c:9d:89:2f:70:3e:85:9a:6f:5c:c5:09:
                    c0:8c:32:2f:72:22:c9:d2:95:1f:b6:ac:72:60:72:
                    b7:82:4d:6b:ce:5b:e3:00:d0:d2:2f:58:c6:e0:10:
                    e5:51:ca:4d:3b:2e:e6:7e:ab:84:d6:56:f1:93:35:
                    a0:93:64:26:81:75:2f:91:b5:16:06:38:0b:db:cc:
                    2d:07
                Exponent: 65537 (0x10001)
        X509v3 extensions:
            X509v3 Key Usage: 
                Digital Signature, Key Encipherment
            X509v3 Basic Constraints: 
                CA:FALSE
            Netscape Cert Type: 
                SSL Server
            Netscape Comment: 
                OpenSSL Generated Server Certificate
            X509v3 Subject Key Identifier: 
                FC:14:D1:F0:4B:8D:00:90:F2:F5:B8:71:9E:4E:97:C3:92:54:AD:0B
            X509v3 Authority Key Identifier: 
                keyid:F4:A7:C0:CC:91:46:AF:64:F3:91:F2:27:F8:C8:B2:6F:8A:87:32:73
                DirName:/C=DE/ST=Hessen/O=privacyidea/CN=CA001
                serial:FB:C8:EB:AC:83:CD:12:07

            X509v3 Extended Key Usage: 
                TLS Web Server Authentication
    Signature Algorithm: sha256WithRSAEncryption
         01:30:9e:76:32:4f:22:d7:6b:b7:d6:36:34:11:d0:d8:cf:d7:
         9f:79:b4:4a:b3:c4:5d:39:9d:5d:3d:2b:e0:a2:30:0c:b9:7f:
         c0:96:ef:ac:23:ea:8e:c3:50:56:7f:90:5a:43:ce:6c:bc:42:
         5b:e5:82:b1:7d:50:77:58:c6:a1:5d:e4:fb:28:d6:2e:0b:19:
         55:99:93:ac:af:1d:dc:86:b9:16:9e:ed:73:a2:66:ef:e7:54:
         27:40:d4:19:28:c8:40:f7:21:e0:82:32:18:56:2f:2a:9c:cb:
         d1:e3:b4:c7:5b:ce:9f:ce:0b:59:d3:10:d3:11:66:75:30:26:
         52:f7:96:b8:80:1b:86:7b:aa:8a:8f:4a:f7:e9:9a:84:6b:6a:
         af:c9:97:e3:32:a2:75:55:9b:f9:60:f9:1b:9b:fd:cc:27:29:
         a5:40:05:0e:7c:e7:e3:cd:49:f3:42:6a:96:16:02:6a:26:64:
         eb:77:dd:72:87:40:62:7f:62:18:bd:65:67:93:6b:17:c0:3d:
         ff:fd:18:d6:8e:5d:95:5b:29:6e:60:a7:b7:7d:ad:f0:27:99:
         11:66:d4:13:a5:7d:72:8a:68:2d:d3:de:e0:c1:d0:a1:f6:ed:
         c7:62:4b:95:2b:1b:5e:bb:ba:ad:5b:d7:0f:cb:c7:18:c7:b2:
         03:e0:db:9a
-----BEGIN CERTIFICATE-----
MIIEGTCCAwGgAwIBAgIEEAAA3zANBgkqhkiG9w0BAQsFADBEMQswCQYDVQQGEwJE
RTEPMA0GA1UECAwGSGVzc2VuMRQwEgYDVQQKDAtwcml2YWN5aWRlYTEOMAwGA1UE
AwwFQ0EwMDEwHhcNMTkxMDI0MDk0MjE2WhcNMjAxMDIzMDk0MjE2WjBHMQswCQYD
VQQGEwJERTEPMA0GA1UECAwGSGVzc2VuMRQwEgYDVQQKDAtwcml2YWN5aWRlYTER
MA8GA1UEAwwIdXNlcmNlcnQwggEiMA0GCSqGSIb3DQEBAQUAA4IBDwAwggEKAoIB
AQDcL9FfKZfUfMNTyDC9S2dwLCRruF7rIXpIElZ8gVxIdbZo6/bymE5QUdF/bHPz
Cqeuvkhe5dbh2Sp8Mm5O/Qj2WlRJI3PDuQcY0e+zrPiK3JSWpJA6jnTf5g03G71b
tyUaVjnab5GqXhx08/l8FAGDEmV2x7v+NluV6XJlg+0+mDBx+ofdozZaMAMuJuBh
0b8CP7YGH0qJKBxcov9OvpTmjODagvGdKTJIMHO0BPZCHr734jIyJzydiS9wPoWa
b1zFCcCMMi9yIsnSlR+2rHJgcreCTWvOW+MA0NIvWMbgEOVRyk07LuZ+q4TWVvGT
NaCTZCaBdS+RtRYGOAvbzC0HAgMBAAGjggEOMIIBCjALBgNVHQ8EBAMCBaAwCQYD
VR0TBAIwADARBglghkgBhvhCAQEEBAMCBkAwMwYJYIZIAYb4QgENBCYWJE9wZW5T
U0wgR2VuZXJhdGVkIFNlcnZlciBDZXJ0aWZpY2F0ZTAdBgNVHQ4EFgQU/BTR8EuN
AJDy9bhxnk6Xw5JUrQswdAYDVR0jBG0wa4AU9KfAzJFGr2TzkfIn+Miyb4qHMnOh
SKRGMEQxCzAJBgNVBAYTAkRFMQ8wDQYDVQQIDAZIZXNzZW4xFDASBgNVBAoMC3By
aXZhY3lpZGVhMQ4wDAYDVQQDDAVDQTAwMYIJAPvI66yDzRIHMBMGA1UdJQQMMAoG
CCsGAQUFBwMBMA0GCSqGSIb3DQEBCwUAA4IBAQABMJ52Mk8i12u31jY0EdDYz9ef
ebRKs8RdOZ1dPSvgojAMuX/Alu+sI+qOw1BWf5BaQ85svEJb5YKxfVB3WMahXeT7
KNYuCxlVmZOsrx3chrkWnu1zombv51QnQNQZKMhA9yHggjIYVi8qnMvR47THW86f
zgtZ0xDTEWZ1MCZS95a4gBuGe6qKj0r36ZqEa2qvyZfjMqJ1VZv5YPkbm/3MJyml
QAUOfOfjzUnzQmqWFgJqJmTrd91yh0Bif2IYvWVnk2sXwD3//RjWjl2VWyluYKe3
fa3wJ5kRZtQTpX1yimgt097gwdCh9u3HYkuVKxteu7qtW9cPy8cYx7ID4Nua
-----END CERTIFICATE-----
