Certificate:
    Data:
        Version: 3 (0x2)
        Serial Number: 268435632 (0x100000b0)
    Signature Algorithm: sha1WithRSAEncryption
        Issuer: C=DE, ST=Hessen, O=privacyidea, CN=CA001
        Validity
            Not Before: Sep 12 09:42:06 2015 GMT
            Not After : Sep 11 09:42:06 2016 GMT
        Subject: C=DE, ST=Hessen, O=privacyidea, CN=requester.localdomain
        Subject Public Key Info:
            Public Key Algorithm: rsaEncryption
                Public-Key: (2048 bit)
                Modulus:
                    00:cd:be:14:4f:fa:ce:01:3f:42:22:1b:1d:9c:af:
                    dd:92:d2:7f:db:6c:b7:3e:39:43:43:6b:13:03:f1:
                    05:f4:07:74:bc:76:69:28:0b:af:19:8e:d7:fc:e3:
                    cd:c6:58:f2:ca:7f:08:6d:53:fc:07:02:44:24:c6:
                    b4:34:4c:8c:04:fe:33:0e:40:e2:20:ba:02:73:5a:
                    f7:f5:4f:63:6e:cc:c6:b6:df:54:1d:37:39:7d:51:
                    36:26:5f:bd:dc:3f:a8:8b:6b:a2:ae:b6:9d:d6:21:
                    e7:df:41:b8:7a:28:2a:68:48:ca:a8:2d:ed:e1:e9:
                    46:5e:5a:72:6d:b4:84:38:87:91:fd:94:11:0b:28:
                    84:c6:c2:2f:2a:fb:01:f9:36:7a:09:75:d1:33:88:
                    3c:73:41:5b:c8:bf:94:89:70:a1:f0:c0:b9:2e:50:
                    53:1e:b1:17:64:69:f4:2d:81:e0:a9:0d:0e:32:e9:
                    ba:55:8a:85:f1:1b:6f:49:79:b4:7f:88:c3:0d:3e:
                    54:88:9b:3d:1f:38:8c:04:f3:ee:6a:63:2b:f5:c6:
                    db:b4:83:aa:c4:78:41:3a:7d:4b:e1:c8:3e:71:ca:
                    1b:61:59:ea:c6:c4:ca:32:5e:c9:e9:bf:12:29:e6:
                    c6:c3:63:fe:a0:55:da:7a:f1:60:98:4d:26:ed:fa:
                    70:2d
                Exponent: 65537 (0x10001)
        X509v3 extensions:
            X509v3 Key Usage: 
                Digital Signature, Key Encipherment
            X509v3 Basic Constraints: 
                CA:FALSE
            Netscape Cert Type: 
                SSL Server
            Netscape Comment: 
                OpenSSL Generated Server Certificate
            X509v3 Subject Key Identifier: 
                53:3F:ED:5D:09:07:B3:65:7B:AB:45:C9:24:5B:09:77:80:0A:96:ED
            X509v3 Authority Key Identifier: 
                keyid:F4:A7:C0:CC:91:46:AF:64:F3:91:F2:27:F8:C8:B2:6F:8A:87:32:73
                DirName:/C=DE/ST=Hessen/O=privacyidea/CN=CA001
                serial:FB:C8:EB:AC:83:CD:12:07

            X509v3 Extended Key Usage: 
                TLS Web Server Authentication
    Signature Algorithm: sha1WithRSAEncryption
         ae:55:9f:a7:e5:af:90:0f:b8:25:fd:47:98:ab:81:7f:eb:36:
         56:62:0e:55:51:65:79:f8:94:bb:29:9c:71:9c:d7:52:da:0e:
         2e:9b:28:49:b7:4e:86:17:87:3a:1c:94:be:21:59:44:30:f1:
         ec:25:35:ec:78:3a:4b:45:1b:18:73:05:19:09:4e:62:ec:25:
         9c:f5:8c:6f:cd:3e:03:7e:ca:3b:4a:56:90:66:d4:7b:b8:50:
         f1:b8:ab:6a:7b:91:3e:33:ab:8c:7b:82:8d:e9:d6:65:8f:12:
         e9:c7:bc:8c:14:83:da:f2:c1:aa:26:d5:33:8b:38:74:08:19:
         9b:41:c5:0e:57:f9:6f:75:4a:47:d8:b4:b8:c4:b9:e9:43:2f:
         ea:6d:ca:25:e5:c7:2e:10:9a:bc:5a:17:ee:1b:e0:7e:a0:02:
         27:67:85:c0:d2:4d:c5:ae:21:c9:56:2f:db:c2:8b:c4:9c:2c:
         cb:72:56:0c:ee:62:85:88:bd:33:76:65:d8:ee:4d:57:2d:34:
         07:8c:f3:98:f4:2a:30:55:be:38:32:e9:ca:e3:a0:bf:7b:53:
         b2:d2:df:c3:a3:ea:e4:49:19:58:0c:60:15:9b:f0:17:48:6e:
         29:42:6b:49:13:b2:ca:56:1b:29:e3:f1:50:a0:a5:ce:6c:73:
         70:d1:c7:52
-----BEGIN CERTIFICATE-----
MIIEJjCCAw6gAwIBAgIEEAAAsDANBgkqhkiG9w0BAQUFADBEMQswCQYDVQQGEwJE
RTEPMA0GA1UECAwGSGVzc2VuMRQwEgYDVQQKDAtwcml2YWN5aWRlYTEOMAwGA1UE
AwwFQ0EwMDEwHhcNMTUwOTEyMDk0MjA2WhcNMTYwOTExMDk0MjA2WjBUMQswCQYD
VQQGEwJERTEPMA0GA1UECAwGSGVzc2VuMRQwEgYDVQQKDAtwcml2YWN5aWRlYTEe
MBwGA1UEAwwVcmVxdWVzdGVyLmxvY2FsZG9tYWluMIIBIjANBgkqhkiG9w0BAQEF
AAOCAQ8AMIIBCgKCAQEAzb4UT/rOAT9CIhsdnK/dktJ/22y3PjlDQ2sTA/EF9Ad0
vHZpKAuvGY7X/OPNxljyyn8IbVP8BwJEJMa0NEyMBP4zDkDiILoCc1r39U9jbszG
tt9UHTc5fVE2Jl+93D+oi2uirrad1iHn30G4eigqaEjKqC3t4elGXlpybbSEOIeR
/ZQRCyiExsIvKvsB+TZ6CXXRM4g8c0FbyL+UiXCh8MC5LlBTHrEXZGn0LYHgqQ0O
Mum6VYqF8RtvSXm0f4jDDT5UiJs9HziMBPPuamMr9cbbtIOqxHhBOn1L4cg+ccob
YVnqxsTKMl7J6b8SKebGw2P+oFXaevFgmE0m7fpwLQIDAQABo4IBDjCCAQowCwYD
VR0PBAQDAgWgMAkGA1UdEwQCMAAwEQYJYIZIAYb4QgEBBAQDAgZAMDMGCWCGSAGG
+EIBDQQmFiRPcGVuU1NMIEdlbmVyYXRlZCBTZXJ2ZXIgQ2VydGlmaWNhdGUwHQYD
VR0OBBYEFFM/7V0JB7Nle6tFySRbCXeACpbtMHQGA1UdIwRtMGuAFPSnwMyRRq9k
85HyJ/jIsm+KhzJzoUikRjBEMQswCQYDVQQGEwJERTEPMA0GA1UECAwGSGVzc2Vu
MRQwEgYDVQQKDAtwcml2YWN5aWRlYTEOMAwGA1UEAwwFQ0EwMDGCCQD7yOusg80S
BzATBgNVHSUEDDAKBggrBgEFBQcDATANBgkqhkiG9w0BAQUFAAOCAQEArlWfp+Wv
kA+4Jf1HmKuBf+s2VmIOVVFlefiUuymccZzXUtoOLpsoSbdOhheHOhyUviFZRDDx
7CU17Hg6S0UbGHMFGQlOYuwlnPWMb80+A37KO0pWkGbUe7hQ8biranuRPjOrjHuC
jenWZY8S6ce8jBSD2vLBqibVM4s4dAgZm0HFDlf5b3VKR9i0uMS56UMv6m3KJeXH
LhCavFoX7hvgfqACJ2eFwNJNxa4hyVYv28KLxJwsy3JWDO5ihYi9M3Zl2O5NVy00
B4zzmPQqMFW+ODLpyuOgv3tTstLfw6Pq5EkZWAxgFZvwF0huKUJrSROyylYbKePx
UKClzmxzcNHHUg==
-----END CERTIFICATE-----
