Certificate:
    Data:
        Version: 3 (0x2)
        Serial Number: 268435666 (0x100000d2)
        Signature Algorithm: sha256WithRSAEncryption
        Issuer: C=DE, ST=Hessen, O=privacyidea, CN=CA001
        Validity
            Not Before: Nov 29 13:08:02 2019 GMT
            Not After : Nov 28 13:08:02 2020 GMT
        Subject: C=DE, ST=Hessen, O=privacyidea, CN=requester.localdomain
        Subject Public Key Info:
            Public Key Algorithm: rsaEncryption
                RSA Public-Key: (2048 bit)
                Modulus:
                    00:cd:be:14:4f:fa:ce:01:3f:42:22:1b:1d:9c:af:
                    dd:92:d2:7f:db:6c:b7:3e:39:43:43:6b:13:03:f1:
                    05:f4:07:74:bc:76:69:28:0b:af:19:8e:d7:fc:e3:
                    cd:c6:58:f2:ca:7f:08:6d:53:fc:07:02:44:24:c6:
                    b4:34:4c:8c:04:fe:33:0e:40:e2:20:ba:02:73:5a:
                    f7:f5:4f:63:6e:cc:c6:b6:df:54:1d:37:39:7d:51:
                    36:26:5f:bd:dc:3f:a8:8b:6b:a2:ae:b6:9d:d6:21:
                    e7:df:41:b8:7a:28:2a:68:48:ca:a8:2d:ed:e1:e9:
                    46:5e:5a:72:6d:b4:84:38:87:91:fd:94:11:0b:28:
                    84:c6:c2:2f:2a:fb:01:f9:36:7a:09:75:d1:33:88:
                    3c:73:41:5b:c8:bf:94:89:70:a1:f0:c0:b9:2e:50:
                    53:1e:b1:17:64:69:f4:2d:81:e0:a9:0d:0e:32:e9:
                    ba:55:8a:85:f1:1b:6f:49:79:b4:7f:88:c3:0d:3e:
                    54:88:9b:3d:1f:38:8c:04:f3:ee:6a:63:2b:f5:c6:
                    db:b4:83:aa:c4:78:41:3a:7d:4b:e1:c8:3e:71:ca:
                    1b:61:59:ea:c6:c4:ca:32:5e:c9:e9:bf:12:29:e6:
                    c6:c3:63:fe:a0:55:da:7a:f1:60:98:4d:26:ed:fa:
                    70:2d
                Exponent: 65537 (0x10001)
        X509v3 extensions:
            X509v3 Key Usage: 
                Digital Signature, Key Encipherment
            X509v3 Basic Constraints: 
                CA:FALSE
            Netscape Cert Type: 
                SSL Server
            Netscape Comment: 
                OpenSSL Generated Server Certificate
            X509v3 Subject Key Identifier: 
                53:3F:ED:5D:09:07:B3:65:7B:AB:45:C9:24:5B:09:77:80:0A:96:ED
            X509v3 Authority Key Identifier: 
                keyid:F4:A7:C0:CC:91:46:AF:64:F3:91:F2:27:F8:C8:B2:6F:8A:87:32:73
                DirName:/C=DE/ST=Hessen/O=privacyidea/CN=CA001
                serial:FB:C8:EB:AC:83:CD:12:07

            X509v3 Extended Key Usage: 
                TLS Web Server Authentication
    Signature Algorithm: sha256WithRSAEncryption
         6d:f4:e7:69:1b:e2:f6:3c:89:2b:e1:d6:cd:56:42:db:06:7c:
         3c:2b:09:b6:f4:e0:48:4d:4b:0b:cf:6b:e5:ae:a4:ee:d1:92:
         36:7f:16:53:16:47:f8:1c:35:80:bb:29:ed:92:a6:01:82:67:
         9d:7e:53:db:51:8d:d0:53:22:17:33:3c:53:de:19:b4:95:61:
         4a:2b:1f:95:46:8b:29:16:1e:7b:8b:c2:0b:15:0e:da:d4:a0:
         5f:84:3a:fa:7a:2c:0d:84:49:d9:ad:d5:9a:95:22:9a:e8:5f:
         32:e3:25:47:32:5a:5a:0a:8e:fa:8e:3a:35:60:aa:bb:dd:6d:
         cf:0a:fd:28:0e:88:f7:1a:b6:bb:7d:2d:c8:27:66:17:17:29:
         a2:68:88:b5:91:f8:78:4c:fa:e4:2d:9c:84:7f:82:de:02:ad:
         fa:33:6c:0e:a9:a5:c1:30:e8:e5:d9:92:21:9b:cc:ac:20:cf:
         45:a8:3f:a8:89:24:bd:9b:c7:47:b2:09:18:cd:f2:75:98:9f:
         5f:ff:b9:a7:be:fd:89:fb:15:38:d5:8f:4a:d0:3e:59:4d:20:
         58:78:ae:f5:9a:c1:a4:b2:62:c2:9c:19:e6:de:5c:06:e4:bb:
         6e:f6:b4:9a:85:c9:b0:e2:86:d1:5d:3b:5e:a6:79:5a:c7:e3:
         59:57:16:0a
-----BEGIN CERTIFICATE-----
MIIEJjCCAw6gAwIBAgIEEAAA0jANBgkqhkiG9w0BAQsFADBEMQswCQYDVQQGEwJE
RTEPMA0GA1UECAwGSGVzc2VuMRQwEgYDVQQKDAtwcml2YWN5aWRlYTEOMAwGA1UE
AwwFQ0EwMDEwHhcNMTkxMTI5MTMwODAyWhcNMjAxMTI4MTMwODAyWjBUMQswCQYD
VQQGEwJERTEPMA0GA1UECAwGSGVzc2VuMRQwEgYDVQQKDAtwcml2YWN5aWRlYTEe
MBwGA1UEAwwVcmVxdWVzdGVyLmxvY2FsZG9tYWluMIIBIjANBgkqhkiG9w0BAQEF
AAOCAQ8AMIIBCgKCAQEAzb4UT/rOAT9CIhsdnK/dktJ/22y3PjlDQ2sTA/EF9Ad0
vHZpKAuvGY7X/OPNxljyyn8IbVP8BwJEJMa0NEyMBP4zDkDiILoCc1r39U9jbszG
tt9UHTc5fVE2Jl+93D+oi2uirrad1iHn30G4eigqaEjKqC3t4elGXlpybbSEOIeR
/ZQRCyiExsIvKvsB+TZ6CXXRM4g8c0FbyL+UiXCh8MC5LlBTHrEXZGn0LYHgqQ0O
Mum6VYqF8RtvSXm0f4jDDT5UiJs9HziMBPPuamMr9cbbtIOqxHhBOn1L4cg+ccob
YVnqxsTKMl7J6b8SKebGw2P+oFXaevFgmE0m7fpwLQIDAQABo4IBDjCCAQowCwYD
VR0PBAQDAgWgMAkGA1UdEwQCMAAwEQYJYIZIAYb4QgEBBAQDAgZAMDMGCWCGSAGG
+EIBDQQmFiRPcGVuU1NMIEdlbmVyYXRlZCBTZXJ2ZXIgQ2VydGlmaWNhdGUwHQYD
VR0OBBYEFFM/7V0JB7Nle6tFySRbCXeACpbtMHQGA1UdIwRtMGuAFPSnwMyRRq9k
85HyJ/jIsm+KhzJzoUikRjBEMQswCQYDVQQGEwJERTEPMA0GA1UECAwGSGVzc2Vu
MRQwEgYDVQQKDAtwcml2YWN5aWRlYTEOMAwGA1UEAwwFQ0EwMDGCCQD7yOusg80S
BzATBgNVHSUEDDAKBggrBgEFBQcDATANBgkqhkiG9w0BAQsFAAOCAQEAbfTnaRvi
9jyJK+HWzVZC2wZ8PCsJtvTgSE1LC89r5a6k7tGSNn8WUxZH+Bw1gLsp7ZKmAYJn
nX5T21GN0FMiFzM8U94ZtJVhSisflUaLKRYee4vCCxUO2tSgX4Q6+nosDYRJ2a3V
mpUimuhfMuMlRzJaWgqO+o46NWCqu91tzwr9KA6I9xq2u30tyCdmFxcpomiItZH4
eEz65C2chH+C3gKt+jNsDqmlwTDo5dmSIZvMrCDPRag/qIkkvZvHR7IJGM3ydZif
X/+5p779ifsVONWPStA+WU0gWHiu9ZrBpLJiwpwZ5t5cBuS7bva0moXJsOKG0V07
XqZ5WsfjWVcWCg==
-----END CERTIFICATE-----
