Certificate:
    Data:
        Version: 3 (0x2)
        Serial Number: 268435613 (0x1000009d)
    Signature Algorithm: sha1WithRSAEncryption
        Issuer: C=DE, ST=Hessen, O=privacyidea, CN=CA001
        Validity
            Not Before: Sep 27 07:57:55 2015 GMT
            Not After : Sep 26 07:57:55 2016 GMT
        Subject: C=DE, ST=Hessen, O=privacyidea, CN=usercert
        Subject Public Key Info:
            Public Key Algorithm: rsaEncryption
                Public-Key: (2048 bit)
                Modulus:
                    00:dc:2f:d1:5f:29:97:d4:7c:c3:53:c8:30:bd:4b:
                    67:70:2c:24:6b:b8:5e:eb:21:7a:48:12:56:7c:81:
                    5c:48:75:b6:68:eb:f6:f2:98:4e:50:51:d1:7f:6c:
                    73:f3:0a:a7:ae:be:48:5e:e5:d6:e1:d9:2a:7c:32:
                    6e:4e:fd:08:f6:5a:54:49:23:73:c3:b9:07:18:d1:
                    ef:b3:ac:f8:8a:dc:94:96:a4:90:3a:8e:74:df:e6:
                    0d:37:1b:bd:5b:b7:25:1a:56:39:da:6f:91:aa:5e:
                    1c:74:f3:f9:7c:14:01:83:12:65:76:c7:bb:fe:36:
                    5b:95:e9:72:65:83:ed:3e:98:30:71:fa:87:dd:a3:
                    36:5a:30:03:2e:26:e0:61:d1:bf:02:3f:b6:06:1f:
                    4a:89:28:1c:5c:a2:ff:4e:be:94:e6:8c:e0:da:82:
                    f1:9d:29:32:48:30:73:b4:04:f6:42:1e:be:f7:e2:
                    32:32:27:3c:9d:89:2f:70:3e:85:9a:6f:5c:c5:09:
                    c0:8c:32:2f:72:22:c9:d2:95:1f:b6:ac:72:60:72:
                    b7:82:4d:6b:ce:5b:e3:00:d0:d2:2f:58:c6:e0:10:
                    e5:51:ca:4d:3b:2e:e6:7e:ab:84:d6:56:f1:93:35:
                    a0:93:64:26:81:75:2f:91:b5:16:06:38:0b:db:cc:
                    2d:07
                Exponent: 65537 (0x10001)
        X509v3 extensions:
            X509v3 Key Usage: 
                Digital Signature, Key Encipherment
            X509v3 Basic Constraints: 
                CA:FALSE
            Netscape Cert Type: 
                SSL Server
            Netscape Comment: 
                OpenSSL Generated Server Certificate
            X509v3 Subject Key Identifier: 
                FC:14:D1:F0:4B:8D:00:90:F2:F5:B8:71:9E:4E:97:C3:92:54:AD:0B
            X509v3 Authority Key Identifier: 
                keyid:F4:A7:C0:CC:91:46:AF:64:F3:91:F2:27:F8:C8:B2:6F:8A:87:32:73
                DirName:/C=DE/ST=Hessen/O=privacyidea/CN=CA001
                serial:FB:C8:EB:AC:83:CD:12:07

            X509v3 Extended Key Usage: 
                TLS Web Server Authentication
    Signature Algorithm: sha1WithRSAEncryption
         3a:b7:48:e4:19:a2:81:3c:90:9d:06:ba:80:0d:8b:29:04:89:
         0f:08:0c:62:ac:91:3e:59:e5:9d:0d:f3:63:3d:c9:de:07:12:
         b7:2d:fc:e1:08:24:3b:f5:41:49:c1:68:15:34:ea:f8:63:92:
         cc:8c:af:d9:6d:08:40:fe:35:f1:9b:d0:ca:2b:06:1a:66:82:
         c4:19:15:55:a0:68:53:f0:6a:ae:1b:81:fa:35:5c:dd:e5:a6:
         31:87:40:ee:03:48:69:1c:68:c2:c4:8e:30:dd:5a:31:18:63:
         8a:f9:ba:d3:83:98:0d:50:46:52:0b:f3:fc:62:b5:af:86:9f:
         6d:93:6a:f0:c0:0c:94:02:94:13:90:1d:a0:eb:fa:c2:83:ed:
         e7:d2:fc:80:12:75:f1:15:f6:93:f7:da:7d:2e:01:af:c0:a2:
         00:7f:4d:f6:3c:ea:ce:88:a1:31:ee:7c:24:e1:e3:7c:1c:95:
         0b:31:54:92:e5:7a:30:5f:c8:42:6b:36:55:78:68:cc:b6:1e:
         74:74:82:ec:5c:cd:8d:fd:29:f6:ff:49:0a:1d:76:b7:ea:bd:
         9a:a9:af:79:b5:0e:b7:23:ea:9c:b8:11:38:1f:26:71:68:a6:
         36:ad:87:78:d9:92:89:4a:5c:23:dc:bf:2e:19:c6:bd:89:9e:
         82:c8:6b:7f
-----BEGIN CERTIFICATE-----
MIIEGTCCAwGgAwIBAgIEEAAAnTANBgkqhkiG9w0BAQUFADBEMQswCQYDVQQGEwJE
RTEPMA0GA1UECAwGSGVzc2VuMRQwEgYDVQQKDAtwcml2YWN5aWRlYTEOMAwGA1UE
AwwFQ0EwMDEwHhcNMTUwOTI3MDc1NzU1WhcNMTYwOTI2MDc1NzU1WjBHMQswCQYD
VQQGEwJERTEPMA0GA1UECAwGSGVzc2VuMRQwEgYDVQQKDAtwcml2YWN5aWRlYTER
MA8GA1UEAwwIdXNlcmNlcnQwggEiMA0GCSqGSIb3DQEBAQUAA4IBDwAwggEKAoIB
AQDcL9FfKZfUfMNTyDC9S2dwLCRruF7rIXpIElZ8gVxIdbZo6/bymE5QUdF/bHPz
Cqeuvkhe5dbh2Sp8Mm5O/Qj2WlRJI3PDuQcY0e+zrPiK3JSWpJA6jnTf5g03G71b
tyUaVjnab5GqXhx08/l8FAGDEmV2x7v+NluV6XJlg+0+mDBx+ofdozZaMAMuJuBh
0b8CP7YGH0qJKBxcov9OvpTmjODagvGdKTJIMHO0BPZCHr734jIyJzydiS9wPoWa
b1zFCcCMMi9yIsnSlR+2rHJgcreCTWvOW+MA0NIvWMbgEOVRyk07LuZ+q4TWVvGT
NaCTZCaBdS+RtRYGOAvbzC0HAgMBAAGjggEOMIIBCjALBgNVHQ8EBAMCBaAwCQYD
VR0TBAIwADARBglghkgBhvhCAQEEBAMCBkAwMwYJYIZIAYb4QgENBCYWJE9wZW5T
U0wgR2VuZXJhdGVkIFNlcnZlciBDZXJ0aWZpY2F0ZTAdBgNVHQ4EFgQU/BTR8EuN
AJDy9bhxnk6Xw5JUrQswdAYDVR0jBG0wa4AU9KfAzJFGr2TzkfIn+Miyb4qHMnOh
SKRGMEQxCzAJBgNVBAYTAkRFMQ8wDQYDVQQIDAZIZXNzZW4xFDASBgNVBAoMC3By
aXZhY3lpZGVhMQ4wDAYDVQQDDAVDQTAwMYIJAPvI66yDzRIHMBMGA1UdJQQMMAoG
CCsGAQUFBwMBMA0GCSqGSIb3DQEBBQUAA4IBAQA6t0jkGaKBPJCdBrqADYspBIkP
CAxirJE+WeWdDfNjPcneBxK3LfzhCCQ79UFJwWgVNOr4Y5LMjK/ZbQhA/jXxm9DK
KwYaZoLEGRVVoGhT8GquG4H6NVzd5aYxh0DuA0hpHGjCxI4w3VoxGGOK+brTg5gN
UEZSC/P8YrWvhp9tk2rwwAyUApQTkB2g6/rCg+3n0vyAEnXxFfaT99p9LgGvwKIA
f032POrOiKEx7nwk4eN8HJULMVSS5XowX8hCazZVeGjMth50dILsXM2N/Sn2/0kK
HXa36r2aqa95tQ63I+qcuBE4HyZxaKY2rYd42ZKJSlwj3L8uGca9iZ6CyGt/
-----END CERTIFICATE-----
