Certificate:
    Data:
        Version: 3 (0x2)
        Serial Number: 268435634 (0x100000b2)
    Signature Algorithm: sha1WithRSAEncryption
        Issuer: C=DE, ST=Hessen, O=privacyidea, CN=CA001
        Validity
            Not Before: Sep 12 09:42:06 2015 GMT
            Not After : Sep 11 09:42:06 2016 GMT
        Subject: CN=Steve Test/emailAddress=steve@openssl.org
        Subject Public Key Info:
            Public Key Algorithm: rsaEncryption
                Public-Key: (2048 bit)
                Modulus:
                    00:d2:81:89:20:51:48:0f:73:f4:11:32:24:d5:1f:
                    1c:fd:5c:f5:b6:e6:c5:f0:52:81:dc:d2:af:66:4a:
                    7c:93:31:61:5c:af:d1:6d:06:70:03:60:7c:72:0c:
                    88:dd:49:cd:9e:02:6c:d2:5a:d7:53:0f:f3:da:be:
                    69:64:b5:0f:0c:00:e3:b3:50:47:a3:b3:9b:ba:13:
                    50:d6:58:5a:4b:ab:39:e0:11:ca:0a:27:67:03:78:
                    22:66:6d:92:1e:1b:5c:49:ae:e6:6b:d1:8e:3b:9d:
                    06:d3:c6:ac:4d:53:43:10:ab:e8:96:c1:87:82:97:
                    99:8f:20:d3:99:12:37:31:84:e1:8a:ff:29:03:5f:
                    22:90:3e:7f:9b:e0:20:c1:ad:dc:ae:4c:39:1a:31:
                    96:17:02:8c:b2:d9:b4:0d:20:12:9b:7d:86:54:fd:
                    33:fd:c1:2a:62:46:f8:60:96:cf:6e:01:6f:22:df:
                    13:47:e7:97:ec:05:72:23:a3:62:f8:fa:ef:ac:9c:
                    72:f0:37:cb:2f:37:cf:90:a8:27:51:86:c6:d7:78:
                    08:8f:7e:25:a2:15:70:a2:fb:1c:b6:15:5e:a0:97:
                    8b:81:4c:09:28:8a:27:3b:94:bc:71:db:5b:71:37:
                    9a:2b:16:e0:6f:b5:c9:f5:4b:4f:20:ba:65:cf:af:
                    ad:ad
                Exponent: 65537 (0x10001)
        X509v3 extensions:
            X509v3 Key Usage: 
                Digital Signature, Key Encipherment
            X509v3 Basic Constraints: 
                CA:FALSE
            Netscape Cert Type: 
                SSL Server
            Netscape Comment: 
                OpenSSL Generated Server Certificate
            X509v3 Subject Key Identifier: 
                E5:25:6D:3E:AF:0D:DD:3F:4C:F2:45:19:39:D5:14:DB:7E:9C:C0:AD
            X509v3 Authority Key Identifier: 
                keyid:F4:A7:C0:CC:91:46:AF:64:F3:91:F2:27:F8:C8:B2:6F:8A:87:32:73
                DirName:/C=DE/ST=Hessen/O=privacyidea/CN=CA001
                serial:FB:C8:EB:AC:83:CD:12:07

            X509v3 Extended Key Usage: 
                TLS Web Server Authentication
    Signature Algorithm: sha1WithRSAEncryption
         82:10:d4:d6:a9:d7:21:52:5a:a9:38:85:ee:9a:db:05:3c:c4:
         68:2e:2f:19:c0:52:3e:fd:61:37:b8:20:c6:e7:1d:c7:0e:f1:
         4d:fc:b4:f0:b5:1a:fc:2a:fc:33:75:af:17:7c:2b:c5:84:79:
         09:91:89:38:26:ee:5e:d1:84:20:80:af:f5:6d:82:4f:d4:1b:
         af:0e:27:16:d3:13:32:dd:c3:7c:6c:1f:ff:85:78:74:3e:45:
         74:06:6e:9e:03:32:09:27:50:d2:f9:a1:c9:74:39:64:09:aa:
         98:10:cf:fb:5c:c7:c9:e6:f8:f0:1c:70:bb:57:9a:f8:cd:04:
         86:9d:68:a9:d1:07:23:76:b5:2d:b4:b4:d2:5c:1a:dc:ba:a9:
         66:be:d3:3e:fc:c0:55:ea:11:1d:50:b8:fc:b6:43:65:c6:a9:
         49:26:db:a1:3b:07:a9:26:e0:6a:7e:ec:18:01:48:23:f3:b9:
         16:fe:52:52:ed:59:54:bf:c3:b9:c4:e7:7f:5a:95:df:9d:4c:
         92:e3:3b:c8:fc:c7:bb:6f:0c:04:c4:7d:4e:a7:7d:b7:11:06:
         35:b6:d9:ff:0d:7d:16:c3:e8:1b:b5:35:ef:91:5c:bc:6c:23:
         b8:84:2f:a2:18:e2:04:76:c5:72:2c:b5:3c:35:50:a1:8e:68:
         f2:48:58:ed
-----BEGIN CERTIFICATE-----
MIIECTCCAvGgAwIBAgIEEAAAsjANBgkqhkiG9w0BAQUFADBEMQswCQYDVQQGEwJE
RTEPMA0GA1UECAwGSGVzc2VuMRQwEgYDVQQKDAtwcml2YWN5aWRlYTEOMAwGA1UE
AwwFQ0EwMDEwHhcNMTUwOTEyMDk0MjA2WhcNMTYwOTExMDk0MjA2WjA3MRMwEQYD
VQQDEwpTdGV2ZSBUZXN0MSAwHgYJKoZIhvcNAQkBFhFzdGV2ZUBvcGVuc3NsLm9y
ZzCCASIwDQYJKoZIhvcNAQEBBQADggEPADCCAQoCggEBANKBiSBRSA9z9BEyJNUf
HP1c9bbmxfBSgdzSr2ZKfJMxYVyv0W0GcANgfHIMiN1JzZ4CbNJa11MP89q+aWS1
DwwA47NQR6Ozm7oTUNZYWkurOeARygonZwN4ImZtkh4bXEmu5mvRjjudBtPGrE1T
QxCr6JbBh4KXmY8g05kSNzGE4Yr/KQNfIpA+f5vgIMGt3K5MORoxlhcCjLLZtA0g
Ept9hlT9M/3BKmJG+GCWz24BbyLfE0fnl+wFciOjYvj676yccvA3yy83z5CoJ1GG
xtd4CI9+JaIVcKL7HLYVXqCXi4FMCSiKJzuUvHHbW3E3misW4G+1yfVLTyC6Zc+v
ra0CAwEAAaOCAQ4wggEKMAsGA1UdDwQEAwIFoDAJBgNVHRMEAjAAMBEGCWCGSAGG
+EIBAQQEAwIGQDAzBglghkgBhvhCAQ0EJhYkT3BlblNTTCBHZW5lcmF0ZWQgU2Vy
dmVyIENlcnRpZmljYXRlMB0GA1UdDgQWBBTlJW0+rw3dP0zyRRk51RTbfpzArTB0
BgNVHSMEbTBrgBT0p8DMkUavZPOR8if4yLJviocyc6FIpEYwRDELMAkGA1UEBhMC
REUxDzANBgNVBAgMBkhlc3NlbjEUMBIGA1UECgwLcHJpdmFjeWlkZWExDjAMBgNV
BAMMBUNBMDAxggkA+8jrrIPNEgcwEwYDVR0lBAwwCgYIKwYBBQUHAwEwDQYJKoZI
hvcNAQEFBQADggEBAIIQ1Nap1yFSWqk4he6a2wU8xGguLxnAUj79YTe4IMbnHccO
8U38tPC1Gvwq/DN1rxd8K8WEeQmRiTgm7l7RhCCAr/Vtgk/UG68OJxbTEzLdw3xs
H/+FeHQ+RXQGbp4DMgknUNL5ocl0OWQJqpgQz/tcx8nm+PAccLtXmvjNBIadaKnR
ByN2tS20tNJcGty6qWa+0z78wFXqER1QuPy2Q2XGqUkm26E7B6km4Gp+7BgBSCPz
uRb+UlLtWVS/w7nE539ald+dTJLjO8j8x7tvDATEfU6nfbcRBjW22f8NfRbD6Bu1
Ne+RXLxsI7iEL6IY4gR2xXIstTw1UKGOaPJIWO0=
-----END CERTIFICATE-----
