Certificate:
    Data:
        Version: 3 (0x2)
        Serial Number: 268435667 (0x100000d3)
        Signature Algorithm: sha256WithRSAEncryption
        Issuer: C=DE, ST=Hessen, O=privacyidea, CN=CA001
        Validity
            Not Before: Nov 29 13:08:02 2019 GMT
            Not After : Nov 28 13:08:02 2020 GMT
        Subject: C=DE, ST=Hessen, O=privacyidea, CN=usercert
        Subject Public Key Info:
            Public Key Algorithm: rsaEncryption
                RSA Public-Key: (2048 bit)
                Modulus:
                    00:dc:2f:d1:5f:29:97:d4:7c:c3:53:c8:30:bd:4b:
                    67:70:2c:24:6b:b8:5e:eb:21:7a:48:12:56:7c:81:
                    5c:48:75:b6:68:eb:f6:f2:98:4e:50:51:d1:7f:6c:
                    73:f3:0a:a7:ae:be:48:5e:e5:d6:e1:d9:2a:7c:32:
                    6e:4e:fd:08:f6:5a:54:49:23:73:c3:b9:07:18:d1:
                    ef:b3:ac:f8:8a:dc:94:96:a4:90:3a:8e:74:df:e6:
                    0d:37:1b:bd:5b:b7:25:1a:56:39:da:6f:91:aa:5e:
                    1c:74:f3:f9:7c:14:01:83:12:65:76:c7:bb:fe:36:
                    5b:95:e9:72:65:83:ed:3e:98:30:71:fa:87:dd:a3:
                    36:5a:30:03:2e:26:e0:61:d1:bf:02:3f:b6:06:1f:
                    4a:89:28:1c:5c:a2:ff:4e:be:94:e6:8c:e0:da:82:
                    f1:9d:29:32:48:30:73:b4:04:f6:42:1e:be:f7:e2:
                    32:32:27:3c:9d:89:2f:70:3e:85:9a:6f:5c:c5:09:
                    c0:8c:32:2f:72:22:c9:d2:95:1f:b6:ac:72:60:72:
                    b7:82:4d:6b:ce:5b:e3:00:d0:d2:2f:58:c6:e0:10:
                    e5:51:ca:4d:3b:2e:e6:7e:ab:84:d6:56:f1:93:35:
                    a0:93:64:26:81:75:2f:91:b5:16:06:38:0b:db:cc:
                    2d:07
                Exponent: 65537 (0x10001)
        X509v3 extensions:
            X509v3 Key Usage: 
                Digital Signature, Key Encipherment
            X509v3 Basic Constraints: 
                CA:FALSE
            Netscape Cert Type: 
                SSL Server
            Netscape Comment: 
                OpenSSL Generated Server Certificate
            X509v3 Subject Key Identifier: 
                FC:14:D1:F0:4B:8D:00:90:F2:F5:B8:71:9E:4E:97:C3:92:54:AD:0B
            X509v3 Authority Key Identifier: 
                keyid:F4:A7:C0:CC:91:46:AF:64:F3:91:F2:27:F8:C8:B2:6F:8A:87:32:73
                DirName:/C=DE/ST=Hessen/O=privacyidea/CN=CA001
                serial:FB:C8:EB:AC:83:CD:12:07

            X509v3 Extended Key Usage: 
                TLS Web Server Authentication
    Signature Algorithm: sha256WithRSAEncryption
         11:ab:ec:9f:d0:6e:27:58:cb:a0:f5:b6:10:f3:de:6c:63:f1:
         97:c2:25:06:87:c5:dc:11:8b:cb:01:f0:a5:b2:04:10:8e:26:
         6c:29:43:a4:45:a3:18:88:72:db:d5:bb:0b:c1:4c:96:95:93:
         7f:c1:8f:ab:26:24:14:fa:e3:b2:58:3b:5b:25:c0:28:54:51:
         72:82:0a:b7:aa:81:1e:ca:26:37:25:2d:da:b0:41:bb:0f:2f:
         cc:cc:c4:c9:a8:91:42:ea:f1:f3:5f:9f:18:75:92:19:b3:e3:
         80:d9:0b:f7:ae:b1:8b:6a:19:6f:66:3f:46:e3:4a:b8:b5:1d:
         d7:ac:bd:93:2a:e6:6e:8e:39:dc:6b:06:ef:59:87:cf:5c:b8:
         9d:e2:97:23:dd:1b:90:dd:56:8f:85:c4:cc:08:ae:59:f6:82:
         05:77:dd:33:4c:81:64:3f:b5:39:9d:27:6d:54:58:12:44:b2:
         fc:b7:38:02:8d:f5:a8:5a:fe:ce:37:3e:27:b9:0c:eb:12:51:
         18:bc:1f:74:33:36:ad:13:8f:2f:0c:ca:de:8b:47:ea:45:a1:
         2b:93:cc:06:fd:17:ee:10:f8:31:d4:6f:5f:76:f7:b0:2c:c6:
         b7:57:ca:24:d4:79:68:a7:7a:22:6d:ae:5d:ec:c5:62:18:55:
         cc:94:e4:63
-----BEGIN CERTIFICATE-----
MIIEGTCCAwGgAwIBAgIEEAAA0zANBgkqhkiG9w0BAQsFADBEMQswCQYDVQQGEwJE
RTEPMA0GA1UECAwGSGVzc2VuMRQwEgYDVQQKDAtwcml2YWN5aWRlYTEOMAwGA1UE
AwwFQ0EwMDEwHhcNMTkxMTI5MTMwODAyWhcNMjAxMTI4MTMwODAyWjBHMQswCQYD
VQQGEwJERTEPMA0GA1UECAwGSGVzc2VuMRQwEgYDVQQKDAtwcml2YWN5aWRlYTER
MA8GA1UEAwwIdXNlcmNlcnQwggEiMA0GCSqGSIb3DQEBAQUAA4IBDwAwggEKAoIB
AQDcL9FfKZfUfMNTyDC9S2dwLCRruF7rIXpIElZ8gVxIdbZo6/bymE5QUdF/bHPz
Cqeuvkhe5dbh2Sp8Mm5O/Qj2WlRJI3PDuQcY0e+zrPiK3JSWpJA6jnTf5g03G71b
tyUaVjnab5GqXhx08/l8FAGDEmV2x7v+NluV6XJlg+0+mDBx+ofdozZaMAMuJuBh
0b8CP7YGH0qJKBxcov9OvpTmjODagvGdKTJIMHO0BPZCHr734jIyJzydiS9wPoWa
b1zFCcCMMi9yIsnSlR+2rHJgcreCTWvOW+MA0NIvWMbgEOVRyk07LuZ+q4TWVvGT
NaCTZCaBdS+RtRYGOAvbzC0HAgMBAAGjggEOMIIBCjALBgNVHQ8EBAMCBaAwCQYD
VR0TBAIwADARBglghkgBhvhCAQEEBAMCBkAwMwYJYIZIAYb4QgENBCYWJE9wZW5T
U0wgR2VuZXJhdGVkIFNlcnZlciBDZXJ0aWZpY2F0ZTAdBgNVHQ4EFgQU/BTR8EuN
AJDy9bhxnk6Xw5JUrQswdAYDVR0jBG0wa4AU9KfAzJFGr2TzkfIn+Miyb4qHMnOh
SKRGMEQxCzAJBgNVBAYTAkRFMQ8wDQYDVQQIDAZIZXNzZW4xFDASBgNVBAoMC3By
aXZhY3lpZGVhMQ4wDAYDVQQDDAVDQTAwMYIJAPvI66yDzRIHMBMGA1UdJQQMMAoG
CCsGAQUFBwMBMA0GCSqGSIb3DQEBCwUAA4IBAQARq+yf0G4nWMug9bYQ895sY/GX
wiUGh8XcEYvLAfClsgQQjiZsKUOkRaMYiHLb1bsLwUyWlZN/wY+rJiQU+uOyWDtb
JcAoVFFyggq3qoEeyiY3JS3asEG7Dy/MzMTJqJFC6vHzX58YdZIZs+OA2Qv3rrGL
ahlvZj9G40q4tR3XrL2TKuZujjncawbvWYfPXLid4pcj3RuQ3VaPhcTMCK5Z9oIF
d90zTIFkP7U5nSdtVFgSRLL8tzgCjfWoWv7ONz4nuQzrElEYvB90MzatE48vDMre
i0fqRaErk8wG/RfuEPgx1G9fdvewLMa3V8ok1Hlop3oiba5d7MViGFXMlORj
-----END CERTIFICATE-----
