Certificate:
    Data:
        Version: 3 (0x2)
        Serial Number: 268435677 (0x100000dd)
        Signature Algorithm: sha256WithRSAEncryption
        Issuer: C=DE, ST=Hessen, O=privacyidea, CN=CA001
        Validity
            Not Before: Nov 15 18:54:19 2019 GMT
            Not After : Nov 14 18:54:19 2020 GMT
        Subject: OU=realm1, CN=cornelius/emailAddress=user@localhost.localdomain
        Subject Public Key Info:
            Public Key Algorithm: rsaEncryption
                RSA Public-Key: (2048 bit)
                Modulus:
                    00:c0:d9:48:74:d6:18:fd:8c:d2:81:32:71:2a:3e:
                    53:22:c2:5a:1d:de:bc:03:4b:0f:fe:1b:93:68:7c:
                    9f:a8:8e:c6:2a:f4:1d:3f:33:e9:7b:8b:a7:2f:74:
                    3f:50:0c:6b:24:80:37:18:09:e4:63:3c:d7:f2:42:
                    c1:b4:c5:40:a7:99:68:7d:e3:b6:24:ee:49:48:fe:
                    cd:8f:0e:da:8e:37:37:72:30:d0:fa:da:05:aa:50:
                    73:61:ff:41:e0:a2:fa:6e:f8:36:a0:1d:5c:1e:b0:
                    23:9e:0c:22:99:cd:69:6b:86:df:0b:ea:03:48:2d:
                    22:8c:f4:77:bf:aa:87:4f:a0:17:cf:fe:19:f3:df:
                    21:9f:90:cd:2b:f6:53:f7:5c:75:0e:44:e4:c3:36:
                    05:98:d4:44:e3:9a:6b:b3:e3:13:40:8b:2a:87:45:
                    b9:4a:70:ba:8d:52:99:d5:fd:9f:90:7d:f3:2f:7c:
                    2d:40:2f:75:7c:08:64:86:51:69:30:08:bd:a0:7c:
                    9e:4d:24:b0:1f:8f:74:db:0a:f6:19:be:93:5c:d6:
                    85:64:dd:e6:8b:df:3a:65:2d:c3:9d:9c:e5:cd:85:
                    7f:5c:d9:61:38:01:a1:5a:1a:57:df:41:fb:f8:cc:
                    85:c9:9b:de:cb:cd:6d:b7:ba:3a:70:57:e3:44:d5:
                    ca:9f
                Exponent: 65537 (0x10001)
        X509v3 extensions:
            X509v3 Key Usage: 
                Digital Signature, Key Encipherment
            X509v3 Basic Constraints: 
                CA:FALSE
            Netscape Cert Type: 
                SSL Server
            Netscape Comment: 
                OpenSSL Generated Server Certificate
            X509v3 Subject Key Identifier: 
                9F:3E:36:5E:B0:43:4D:F2:58:65:C8:61:08:F4:A1:8D:9D:AE:2B:8A
            X509v3 Authority Key Identifier: 
                keyid:F4:A7:C0:CC:91:46:AF:64:F3:91:F2:27:F8:C8:B2:6F:8A:87:32:73
                DirName:/C=DE/ST=Hessen/O=privacyidea/CN=CA001
                serial:FB:C8:EB:AC:83:CD:12:07

            X509v3 Extended Key Usage: 
                TLS Web Server Authentication
    Signature Algorithm: sha256WithRSAEncryption
         17:ac:eb:22:62:fe:de:9a:3e:18:72:f1:cb:6b:e0:d9:17:a6:
         70:83:5a:8b:be:e5:7a:69:7b:fd:39:01:c5:c8:54:41:86:8f:
         f0:76:a4:8b:37:c2:b6:a8:31:a2:c3:79:16:17:da:f7:2b:ee:
         27:68:0c:4f:ad:26:2a:f6:e5:40:40:1e:61:8a:1f:b8:15:ea:
         51:98:35:5f:89:4c:56:82:53:ec:e8:34:17:7d:5a:84:c8:55:
         cf:03:2e:d3:f7:0e:71:6c:66:02:e0:4e:42:b6:73:17:fe:85:
         c1:ae:3c:86:ba:98:84:40:f4:a6:66:fc:7a:d5:9b:72:a6:c8:
         da:2b:9a:13:cd:74:cc:c9:c2:12:1e:3e:69:10:2e:9f:49:7f:
         fd:cd:15:84:03:17:46:a2:ff:fa:42:4b:6a:b9:e1:b9:e4:93:
         32:94:ef:ce:9e:90:66:fc:32:65:bb:b6:19:ef:40:37:fc:6e:
         40:c2:84:d8:98:02:d5:0c:86:15:26:1a:48:df:41:52:ea:61:
         18:6c:86:f1:8d:ce:94:56:20:a6:4b:3a:33:cb:1a:65:7d:ed:
         8f:f2:5e:d3:55:80:c8:20:c2:19:36:ba:70:50:5a:00:a2:a0:
         ee:5a:eb:4a:9d:c0:07:5d:e6:11:ea:cd:b4:0c:cc:da:62:1c:
         f6:de:09:8e
-----BEGIN CERTIFICATE-----
MIIEIjCCAwqgAwIBAgIEEAAA3TANBgkqhkiG9w0BAQsFADBEMQswCQYDVQQGEwJE
RTEPMA0GA1UECAwGSGVzc2VuMRQwEgYDVQQKDAtwcml2YWN5aWRlYTEOMAwGA1UE
AwwFQ0EwMDEwHhcNMTkxMTE1MTg1NDE5WhcNMjAxMTE0MTg1NDE5WjBQMQ8wDQYD
VQQLDAZyZWFsbTExEjAQBgNVBAMMCWNvcm5lbGl1czEpMCcGCSqGSIb3DQEJARYa
dXNlckBsb2NhbGhvc3QubG9jYWxkb21haW4wggEiMA0GCSqGSIb3DQEBAQUAA4IB
DwAwggEKAoIBAQDA2Uh01hj9jNKBMnEqPlMiwlod3rwDSw/+G5NofJ+ojsYq9B0/
M+l7i6cvdD9QDGskgDcYCeRjPNfyQsG0xUCnmWh947Yk7klI/s2PDtqONzdyMND6
2gWqUHNh/0Hgovpu+DagHVwesCOeDCKZzWlrht8L6gNILSKM9He/qodPoBfP/hnz
3yGfkM0r9lP3XHUOROTDNgWY1ETjmmuz4xNAiyqHRblKcLqNUpnV/Z+QffMvfC1A
L3V8CGSGUWkwCL2gfJ5NJLAfj3TbCvYZvpNc1oVk3eaL3zplLcOdnOXNhX9c2WE4
AaFaGlffQfv4zIXJm97LzW23ujpwV+NE1cqfAgMBAAGjggEOMIIBCjALBgNVHQ8E
BAMCBaAwCQYDVR0TBAIwADARBglghkgBhvhCAQEEBAMCBkAwMwYJYIZIAYb4QgEN
BCYWJE9wZW5TU0wgR2VuZXJhdGVkIFNlcnZlciBDZXJ0aWZpY2F0ZTAdBgNVHQ4E
FgQUnz42XrBDTfJYZchhCPShjZ2uK4owdAYDVR0jBG0wa4AU9KfAzJFGr2TzkfIn
+Miyb4qHMnOhSKRGMEQxCzAJBgNVBAYTAkRFMQ8wDQYDVQQIDAZIZXNzZW4xFDAS
BgNVBAoMC3ByaXZhY3lpZGVhMQ4wDAYDVQQDDAVDQTAwMYIJAPvI66yDzRIHMBMG
A1UdJQQMMAoGCCsGAQUFBwMBMA0GCSqGSIb3DQEBCwUAA4IBAQAXrOsiYv7emj4Y
cvHLa+DZF6Zwg1qLvuV6aXv9OQHFyFRBho/wdqSLN8K2qDGiw3kWF9r3K+4naAxP
rSYq9uVAQB5hih+4FepRmDVfiUxWglPs6DQXfVqEyFXPAy7T9w5xbGYC4E5CtnMX
/oXBrjyGupiEQPSmZvx61ZtypsjaK5oTzXTMycISHj5pEC6fSX/9zRWEAxdGov/6
QktqueG55JMylO/OnpBm/DJlu7YZ70A3/G5AwoTYmALVDIYVJhpI30FS6mEYbIbx
jc6UViCmSzozyxplfe2P8l7TVYDIIMIZNrpwUFoAoqDuWutKncAHXeYR6s20DMza
Yhz23gmO
-----END CERTIFICATE-----
