Certificate:
    Data:
        Version: 3 (0x2)
        Serial Number: 268435662 (0x100000ce)
    Signature Algorithm: sha1WithRSAEncryption
        Issuer: C=DE, ST=Hessen, O=privacyidea, CN=CA001
        Validity
            Not Before: Jan 22 10:48:43 2017 GMT
            Not After : Jan 22 10:48:43 2018 GMT
        Subject: OU=realm1, CN=cornelius/emailAddress=user@localhost.localdomain
        Subject Public Key Info:
            Public Key Algorithm: rsaEncryption
                Public-Key: (2048 bit)
                Modulus:
                    00:cb:15:23:26:45:de:68:08:a9:7b:68:4b:6a:ff:
                    95:2c:67:7f:d2:4c:99:6b:36:cc:a8:b4:33:80:cd:
                    8d:bc:f6:51:82:cf:b9:6f:b0:c8:cc:6a:ba:8e:5c:
                    d6:72:e4:17:3a:8d:e2:99:d1:39:f4:b8:08:c2:8e:
                    4d:c9:be:aa:5b:58:13:ae:b8:79:1c:98:b1:4c:6a:
                    33:33:c3:0a:7e:2f:b0:d4:04:c4:58:4e:7f:b0:99:
                    94:cd:4b:94:cb:6c:be:79:23:3e:63:1b:19:66:4b:
                    2e:f6:46:e0:2e:f9:c6:37:f9:62:b9:88:fa:40:9f:
                    a0:28:f4:51:60:9f:91:31:d4:e7:6f:6c:4f:0c:c6:
                    3d:55:56:49:a9:dc:68:8d:ce:bb:66:74:ad:46:fa:
                    de:b1:dc:07:0d:36:4c:81:0e:87:62:cf:07:44:f5:
                    bb:d9:bf:cf:9a:8b:54:db:66:ee:f4:f7:45:60:7d:
                    85:72:31:31:f4:5f:07:b6:ff:5f:1e:2d:26:18:2b:
                    8b:2a:5d:22:cc:36:39:84:17:9e:7d:d5:2f:9e:4b:
                    ef:41:47:55:72:e4:fa:d6:69:f3:89:44:e6:72:88:
                    7b:af:14:43:e1:7f:12:76:8a:04:5e:e8:2a:18:09:
                    98:5c:c0:25:b6:81:2c:3f:9d:50:2e:b0:34:57:81:
                    d8:d5
                Exponent: 65537 (0x10001)
        X509v3 extensions:
            X509v3 Key Usage: 
                Digital Signature, Key Encipherment
            X509v3 Basic Constraints: 
                CA:FALSE
            Netscape Cert Type: 
                SSL Server
            Netscape Comment: 
                OpenSSL Generated Server Certificate
            X509v3 Subject Key Identifier: 
                1E:4F:8E:30:D0:35:91:80:F4:6A:B5:F8:33:CC:1C:69:54:57:55:93
            X509v3 Authority Key Identifier: 
                keyid:F4:A7:C0:CC:91:46:AF:64:F3:91:F2:27:F8:C8:B2:6F:8A:87:32:73
                DirName:/C=DE/ST=Hessen/O=privacyidea/CN=CA001
                serial:FB:C8:EB:AC:83:CD:12:07

            X509v3 Extended Key Usage: 
                TLS Web Server Authentication
    Signature Algorithm: sha1WithRSAEncryption
         00:65:32:5a:07:90:c2:6a:b9:b7:57:42:5e:50:ff:b7:39:b6:
         f7:20:89:3e:fb:ab:55:14:64:0d:d0:63:fd:08:78:3e:53:f6:
         13:7f:fc:8d:0e:8c:a2:d8:a2:ae:eb:4a:67:ec:78:b7:48:6d:
         6d:3d:45:2b:b7:91:d5:f2:db:24:2c:84:0c:8d:e8:cc:09:64:
         db:7b:00:54:c1:67:84:7c:ce:ea:a2:2c:0c:bc:5e:a2:64:95:
         2c:1e:77:1a:98:a5:61:83:cb:11:07:b6:3e:a4:6f:06:54:1b:
         e1:f9:6b:6e:e4:94:e0:35:36:be:19:ad:dd:4d:74:f2:36:79:
         38:54:9e:18:bf:78:9a:98:2d:70:a4:7e:1d:b4:7f:f6:95:2e:
         ab:73:0a:93:eb:22:4a:a9:08:62:ca:a1:27:48:69:d9:7f:ea:
         e0:22:de:58:2b:4b:2c:03:da:7f:a1:f6:e0:85:4b:cc:bc:8e:
         a4:05:00:1d:f0:e5:29:90:6d:ef:91:1a:b8:db:2a:35:c8:f6:
         d7:e1:98:74:31:f6:32:c4:f3:f1:ca:ce:89:0f:7c:4f:c7:34:
         bb:28:e6:19:e0:19:02:cc:bd:be:f5:23:34:72:b4:83:57:83:
         9a:99:5f:1b:38:f7:6e:55:1a:75:e8:f4:79:c1:53:a6:31:af:
         51:ca:64:aa
-----BEGIN CERTIFICATE-----
MIIEIjCCAwqgAwIBAgIEEAAAzjANBgkqhkiG9w0BAQUFADBEMQswCQYDVQQGEwJE
RTEPMA0GA1UECAwGSGVzc2VuMRQwEgYDVQQKDAtwcml2YWN5aWRlYTEOMAwGA1UE
AwwFQ0EwMDEwHhcNMTcwMTIyMTA0ODQzWhcNMTgwMTIyMTA0ODQzWjBQMQ8wDQYD
VQQLDAZyZWFsbTExEjAQBgNVBAMMCWNvcm5lbGl1czEpMCcGCSqGSIb3DQEJARYa
dXNlckBsb2NhbGhvc3QubG9jYWxkb21haW4wggEiMA0GCSqGSIb3DQEBAQUAA4IB
DwAwggEKAoIBAQDLFSMmRd5oCKl7aEtq/5UsZ3/STJlrNsyotDOAzY289lGCz7lv
sMjMarqOXNZy5Bc6jeKZ0Tn0uAjCjk3JvqpbWBOuuHkcmLFMajMzwwp+L7DUBMRY
Tn+wmZTNS5TLbL55Iz5jGxlmSy72RuAu+cY3+WK5iPpAn6Ao9FFgn5Ex1OdvbE8M
xj1VVkmp3GiNzrtmdK1G+t6x3AcNNkyBDodizwdE9bvZv8+ai1TbZu7090VgfYVy
MTH0Xwe2/18eLSYYK4sqXSLMNjmEF5591S+eS+9BR1Vy5PrWafOJROZyiHuvFEPh
fxJ2igRe6CoYCZhcwCW2gSw/nVAusDRXgdjVAgMBAAGjggEOMIIBCjALBgNVHQ8E
BAMCBaAwCQYDVR0TBAIwADARBglghkgBhvhCAQEEBAMCBkAwMwYJYIZIAYb4QgEN
BCYWJE9wZW5TU0wgR2VuZXJhdGVkIFNlcnZlciBDZXJ0aWZpY2F0ZTAdBgNVHQ4E
FgQUHk+OMNA1kYD0arX4M8wcaVRXVZMwdAYDVR0jBG0wa4AU9KfAzJFGr2TzkfIn
+Miyb4qHMnOhSKRGMEQxCzAJBgNVBAYTAkRFMQ8wDQYDVQQIDAZIZXNzZW4xFDAS
BgNVBAoMC3ByaXZhY3lpZGVhMQ4wDAYDVQQDDAVDQTAwMYIJAPvI66yDzRIHMBMG
A1UdJQQMMAoGCCsGAQUFBwMBMA0GCSqGSIb3DQEBBQUAA4IBAQAAZTJaB5DCarm3
V0JeUP+3Obb3IIk++6tVFGQN0GP9CHg+U/YTf/yNDoyi2KKu60pn7Hi3SG1tPUUr
t5HV8tskLIQMjejMCWTbewBUwWeEfM7qoiwMvF6iZJUsHncamKVhg8sRB7Y+pG8G
VBvh+Wtu5JTgNTa+Ga3dTXTyNnk4VJ4Yv3iamC1wpH4dtH/2lS6rcwqT6yJKqQhi
yqEnSGnZf+rgIt5YK0ssA9p/ofbghUvMvI6kBQAd8OUpkG3vkRq42yo1yPbX4Zh0
MfYyxPPxys6JD3xPxzS7KOYZ4BkCzL2+9SM0crSDV4OamV8bOPduVRp16PR5wVOm
Ma9RymSq
-----END CERTIFICATE-----
