Certificate:
    Data:
        Version: 3 (0x2)
        Serial Number: 268435661 (0x100000cd)
    Signature Algorithm: sha1WithRSAEncryption
        Issuer: C=DE, ST=Hessen, O=privacyidea, CN=CA001
        Validity
            Not Before: Jan 22 10:48:40 2017 GMT
            Not After : Jan 22 10:48:40 2018 GMT
        Subject: C=DE, ST=Hessen, O=privacyidea, CN=requester.localdomain
        Subject Public Key Info:
            Public Key Algorithm: rsaEncryption
                Public-Key: (2048 bit)
                Modulus:
                    00:cd:be:14:4f:fa:ce:01:3f:42:22:1b:1d:9c:af:
                    dd:92:d2:7f:db:6c:b7:3e:39:43:43:6b:13:03:f1:
                    05:f4:07:74:bc:76:69:28:0b:af:19:8e:d7:fc:e3:
                    cd:c6:58:f2:ca:7f:08:6d:53:fc:07:02:44:24:c6:
                    b4:34:4c:8c:04:fe:33:0e:40:e2:20:ba:02:73:5a:
                    f7:f5:4f:63:6e:cc:c6:b6:df:54:1d:37:39:7d:51:
                    36:26:5f:bd:dc:3f:a8:8b:6b:a2:ae:b6:9d:d6:21:
                    e7:df:41:b8:7a:28:2a:68:48:ca:a8:2d:ed:e1:e9:
                    46:5e:5a:72:6d:b4:84:38:87:91:fd:94:11:0b:28:
                    84:c6:c2:2f:2a:fb:01:f9:36:7a:09:75:d1:33:88:
                    3c:73:41:5b:c8:bf:94:89:70:a1:f0:c0:b9:2e:50:
                    53:1e:b1:17:64:69:f4:2d:81:e0:a9:0d:0e:32:e9:
                    ba:55:8a:85:f1:1b:6f:49:79:b4:7f:88:c3:0d:3e:
                    54:88:9b:3d:1f:38:8c:04:f3:ee:6a:63:2b:f5:c6:
                    db:b4:83:aa:c4:78:41:3a:7d:4b:e1:c8:3e:71:ca:
                    1b:61:59:ea:c6:c4:ca:32:5e:c9:e9:bf:12:29:e6:
                    c6:c3:63:fe:a0:55:da:7a:f1:60:98:4d:26:ed:fa:
                    70:2d
                Exponent: 65537 (0x10001)
        X509v3 extensions:
            X509v3 Key Usage: 
                Digital Signature, Key Encipherment
            X509v3 Basic Constraints: 
                CA:FALSE
            Netscape Cert Type: 
                SSL Server
            Netscape Comment: 
                OpenSSL Generated Server Certificate
            X509v3 Subject Key Identifier: 
                53:3F:ED:5D:09:07:B3:65:7B:AB:45:C9:24:5B:09:77:80:0A:96:ED
            X509v3 Authority Key Identifier: 
                keyid:F4:A7:C0:CC:91:46:AF:64:F3:91:F2:27:F8:C8:B2:6F:8A:87:32:73
                DirName:/C=DE/ST=Hessen/O=privacyidea/CN=CA001
                serial:FB:C8:EB:AC:83:CD:12:07

            X509v3 Extended Key Usage: 
                TLS Web Server Authentication
    Signature Algorithm: sha1WithRSAEncryption
         90:b9:6d:41:d9:18:65:45:94:3e:a7:b1:8c:e8:5b:c5:8f:c7:
         f8:b8:dd:92:c6:98:34:c8:f4:c6:9e:02:22:85:3e:df:77:4e:
         6d:52:ec:55:6c:67:76:26:b0:60:96:f1:de:4c:6e:a3:5a:53:
         5d:ef:90:53:29:f8:47:50:5f:6c:63:c7:88:9b:5d:57:8f:cc:
         ed:74:8e:8f:ec:86:77:0c:0a:77:2d:04:7f:46:e9:60:f4:be:
         30:f3:16:71:ee:3b:d8:be:e0:c5:df:9c:7d:b2:5d:dd:ed:d3:
         8b:be:50:70:c1:05:e5:0c:28:fa:00:c8:69:72:76:aa:0d:6c:
         f9:b5:9e:28:76:31:5f:b3:c9:89:23:d8:3c:f2:87:a0:4d:03:
         1b:d8:57:b3:72:ec:dd:cb:d8:cf:80:a1:01:d3:11:b4:a1:2c:
         55:4d:0b:0c:60:a2:50:e2:cb:2d:80:14:5f:fe:9f:c6:14:af:
         c2:4f:ad:55:ef:e4:50:b4:ff:88:cb:ba:84:1c:25:65:1e:04:
         88:53:37:76:7f:cf:76:3a:90:59:c4:41:5d:68:b9:ca:d8:db:
         a5:0e:fe:9d:7a:ea:29:06:12:d8:82:e2:84:58:ce:89:c1:3f:
         b1:ce:7b:9d:b8:d5:16:89:82:d2:a9:55:dd:43:d3:87:3f:77:
         ca:03:0c:5d
-----BEGIN CERTIFICATE-----
MIIEJjCCAw6gAwIBAgIEEAAAzTANBgkqhkiG9w0BAQUFADBEMQswCQYDVQQGEwJE
RTEPMA0GA1UECAwGSGVzc2VuMRQwEgYDVQQKDAtwcml2YWN5aWRlYTEOMAwGA1UE
AwwFQ0EwMDEwHhcNMTcwMTIyMTA0ODQwWhcNMTgwMTIyMTA0ODQwWjBUMQswCQYD
VQQGEwJERTEPMA0GA1UECAwGSGVzc2VuMRQwEgYDVQQKDAtwcml2YWN5aWRlYTEe
MBwGA1UEAwwVcmVxdWVzdGVyLmxvY2FsZG9tYWluMIIBIjANBgkqhkiG9w0BAQEF
AAOCAQ8AMIIBCgKCAQEAzb4UT/rOAT9CIhsdnK/dktJ/22y3PjlDQ2sTA/EF9Ad0
vHZpKAuvGY7X/OPNxljyyn8IbVP8BwJEJMa0NEyMBP4zDkDiILoCc1r39U9jbszG
tt9UHTc5fVE2Jl+93D+oi2uirrad1iHn30G4eigqaEjKqC3t4elGXlpybbSEOIeR
/ZQRCyiExsIvKvsB+TZ6CXXRM4g8c0FbyL+UiXCh8MC5LlBTHrEXZGn0LYHgqQ0O
Mum6VYqF8RtvSXm0f4jDDT5UiJs9HziMBPPuamMr9cbbtIOqxHhBOn1L4cg+ccob
YVnqxsTKMl7J6b8SKebGw2P+oFXaevFgmE0m7fpwLQIDAQABo4IBDjCCAQowCwYD
VR0PBAQDAgWgMAkGA1UdEwQCMAAwEQYJYIZIAYb4QgEBBAQDAgZAMDMGCWCGSAGG
+EIBDQQmFiRPcGVuU1NMIEdlbmVyYXRlZCBTZXJ2ZXIgQ2VydGlmaWNhdGUwHQYD
VR0OBBYEFFM/7V0JB7Nle6tFySRbCXeACpbtMHQGA1UdIwRtMGuAFPSnwMyRRq9k
85HyJ/jIsm+KhzJzoUikRjBEMQswCQYDVQQGEwJERTEPMA0GA1UECAwGSGVzc2Vu
MRQwEgYDVQQKDAtwcml2YWN5aWRlYTEOMAwGA1UEAwwFQ0EwMDGCCQD7yOusg80S
BzATBgNVHSUEDDAKBggrBgEFBQcDATANBgkqhkiG9w0BAQUFAAOCAQEAkLltQdkY
ZUWUPqexjOhbxY/H+LjdksaYNMj0xp4CIoU+33dObVLsVWxndiawYJbx3kxuo1pT
Xe+QUyn4R1BfbGPHiJtdV4/M7XSOj+yGdwwKdy0Ef0bpYPS+MPMWce472L7gxd+c
fbJd3e3Ti75QcMEF5Qwo+gDIaXJ2qg1s+bWeKHYxX7PJiSPYPPKHoE0DG9hXs3Ls
3cvYz4ChAdMRtKEsVU0LDGCiUOLLLYAUX/6fxhSvwk+tVe/kULT/iMu6hBwlZR4E
iFM3dn/PdjqQWcRBXWi5ytjbpQ7+nXrqKQYS2ILihFjOicE/sc57nbjVFomC0qlV
3UPThz93ygMMXQ==
-----END CERTIFICATE-----
