Certificate:
    Data:
        Version: 3 (0x2)
        Serial Number: 268435732 (0x10000114)
    Signature Algorithm: sha256WithRSAEncryption
        Issuer: C=DE, ST=Hessen, O=privacyidea, CN=CA001
        Validity
            Not Before: Jan  9 23:37:22 2019 GMT
            Not After : Jan  9 23:37:22 2020 GMT
        Subject: OU=realm1, CN=cornelius/emailAddress=user@localhost.localdomain
        Subject Public Key Info:
            Public Key Algorithm: rsaEncryption
                Public-Key: (2048 bit)
                Modulus:
                    00:e0:dc:3b:d6:f6:ce:3c:83:ce:9f:de:ee:2e:4f:
                    38:05:c5:0d:7c:a9:14:c7:41:e5:85:e3:b5:b0:db:
                    c3:1d:f8:8d:7f:0b:ba:c1:38:7f:29:2e:46:c1:0a:
                    19:5b:4f:7e:be:9b:f0:d6:77:ef:6f:be:62:ce:3d:
                    ed:b3:3c:ee:38:56:75:4a:55:09:69:e0:1a:48:b6:
                    37:dd:b2:67:30:c8:3d:aa:fc:87:3e:75:a1:47:4d:
                    49:91:c2:49:0c:46:28:fc:95:97:56:23:f3:d4:88:
                    10:c0:cb:61:24:0f:36:25:a5:73:f6:52:74:6b:1e:
                    a9:ea:50:60:8b:fa:fd:b6:25:ed:5b:a6:4d:2e:cd:
                    ca:6c:89:68:15:93:d4:eb:03:cd:c0:36:0d:97:41:
                    d3:22:b8:41:d3:af:3d:dd:9d:46:b2:88:46:ff:ee:
                    94:06:88:3f:6f:d7:a5:27:b9:3d:1c:a4:d1:e6:f8:
                    9e:17:67:11:78:01:96:f0:ff:94:f7:93:62:ac:5e:
                    cf:64:8b:56:87:3b:fb:4a:62:ed:22:d9:3d:c5:b2:
                    4b:57:88:c8:a4:2e:e5:6f:8d:cc:95:5d:46:50:84:
                    1b:89:e2:dc:f9:ae:84:7f:59:2d:4b:5e:6c:d2:54:
                    c6:9f:f9:b1:a2:ed:99:7c:62:e2:17:56:2a:7b:4b:
                    2f:a1
                Exponent: 65537 (0x10001)
        X509v3 extensions:
            X509v3 Key Usage: 
                Digital Signature, Key Encipherment
            X509v3 Basic Constraints: 
                CA:FALSE
            Netscape Cert Type: 
                SSL Server
            Netscape Comment: 
                OpenSSL Generated Server Certificate
            X509v3 Subject Key Identifier: 
                16:6A:B7:A7:B4:7F:50:4B:B1:68:8E:1B:D7:C5:35:8E:64:FE:E3:35
            X509v3 Authority Key Identifier: 
                keyid:F4:A7:C0:CC:91:46:AF:64:F3:91:F2:27:F8:C8:B2:6F:8A:87:32:73
                DirName:/C=DE/ST=Hessen/O=privacyidea/CN=CA001
                serial:FB:C8:EB:AC:83:CD:12:07

            X509v3 Extended Key Usage: 
                TLS Web Server Authentication
    Signature Algorithm: sha256WithRSAEncryption
         68:bf:17:aa:eb:37:e8:1f:79:e6:b0:8a:d6:12:8d:e4:68:fd:
         e3:2a:c0:77:60:d1:26:a8:80:99:ed:96:5d:9e:ae:2a:2c:77:
         3c:72:fd:20:43:da:16:a7:20:cd:e6:f1:93:08:0d:48:3f:e7:
         f0:aa:62:6c:2e:6e:4b:dd:8a:b7:13:46:9d:5b:64:eb:4d:ea:
         90:91:50:bc:33:7b:65:4c:db:db:92:28:99:2b:a5:1e:6b:46:
         70:cf:f8:b7:d5:10:fb:4e:5d:70:9d:c8:87:c1:b7:52:b8:10:
         ce:01:a3:fc:f3:3e:e4:81:d4:f4:3a:4f:4c:3b:98:8a:7a:2b:
         c4:b0:02:97:44:9b:69:75:72:59:e4:2c:93:85:7f:57:b2:24:
         0b:76:8a:f8:57:07:fd:c5:89:3e:30:34:0b:9d:b5:ed:e2:be:
         82:9e:08:5d:e5:c0:77:18:b6:be:6f:de:dd:ca:21:a1:6a:df:
         3e:d8:2e:8c:35:a6:7b:07:50:cd:9a:14:41:df:17:71:5a:54:
         cb:9e:b6:08:e2:6f:10:53:12:0b:90:33:29:ae:25:a5:00:a2:
         af:46:d1:08:1a:a8:29:a6:21:36:1c:8b:cc:4a:c5:eb:5d:28:
         b9:b8:53:fd:00:30:7f:cb:2b:3b:e4:4a:9f:55:da:ff:4b:ea:
         fc:82:71:92
-----BEGIN CERTIFICATE-----
MIIEIjCCAwqgAwIBAgIEEAABFDANBgkqhkiG9w0BAQsFADBEMQswCQYDVQQGEwJE
RTEPMA0GA1UECAwGSGVzc2VuMRQwEgYDVQQKDAtwcml2YWN5aWRlYTEOMAwGA1UE
AwwFQ0EwMDEwHhcNMTkwMTA5MjMzNzIyWhcNMjAwMTA5MjMzNzIyWjBQMQ8wDQYD
VQQLDAZyZWFsbTExEjAQBgNVBAMMCWNvcm5lbGl1czEpMCcGCSqGSIb3DQEJARYa
dXNlckBsb2NhbGhvc3QubG9jYWxkb21haW4wggEiMA0GCSqGSIb3DQEBAQUAA4IB
DwAwggEKAoIBAQDg3DvW9s48g86f3u4uTzgFxQ18qRTHQeWF47Ww28Md+I1/C7rB
OH8pLkbBChlbT36+m/DWd+9vvmLOPe2zPO44VnVKVQlp4BpItjfdsmcwyD2q/Ic+
daFHTUmRwkkMRij8lZdWI/PUiBDAy2EkDzYlpXP2UnRrHqnqUGCL+v22Je1bpk0u
zcpsiWgVk9TrA83ANg2XQdMiuEHTrz3dnUayiEb/7pQGiD9v16UnuT0cpNHm+J4X
ZxF4AZbw/5T3k2KsXs9ki1aHO/tKYu0i2T3FsktXiMikLuVvjcyVXUZQhBuJ4tz5
roR/WS1LXmzSVMaf+bGi7Zl8YuIXVip7Sy+hAgMBAAGjggEOMIIBCjALBgNVHQ8E
BAMCBaAwCQYDVR0TBAIwADARBglghkgBhvhCAQEEBAMCBkAwMwYJYIZIAYb4QgEN
BCYWJE9wZW5TU0wgR2VuZXJhdGVkIFNlcnZlciBDZXJ0aWZpY2F0ZTAdBgNVHQ4E
FgQUFmq3p7R/UEuxaI4b18U1jmT+4zUwdAYDVR0jBG0wa4AU9KfAzJFGr2TzkfIn
+Miyb4qHMnOhSKRGMEQxCzAJBgNVBAYTAkRFMQ8wDQYDVQQIDAZIZXNzZW4xFDAS
BgNVBAoMC3ByaXZhY3lpZGVhMQ4wDAYDVQQDDAVDQTAwMYIJAPvI66yDzRIHMBMG
A1UdJQQMMAoGCCsGAQUFBwMBMA0GCSqGSIb3DQEBCwUAA4IBAQBovxeq6zfoH3nm
sIrWEo3kaP3jKsB3YNEmqICZ7ZZdnq4qLHc8cv0gQ9oWpyDN5vGTCA1IP+fwqmJs
Lm5L3Yq3E0adW2TrTeqQkVC8M3tlTNvbkiiZK6Uea0Zwz/i31RD7Tl1wnciHwbdS
uBDOAaP88z7kgdT0Ok9MO5iKeivEsAKXRJtpdXJZ5CyThX9XsiQLdor4Vwf9xYk+
MDQLnbXt4r6Cnghd5cB3GLa+b97dyiGhat8+2C6MNaZ7B1DNmhRB3xdxWlTLnrYI
4m8QUxILkDMpriWlAKKvRtEIGqgppiE2HIvMSsXrXSi5uFP9ADB/yys75EqfVdr/
S+r8gnGS
-----END CERTIFICATE-----
