Certificate:
    Data:
        Version: 3 (0x2)
        Serial Number: 268435651 (0x100000c3)
    Signature Algorithm: sha1WithRSAEncryption
        Issuer: C=DE, ST=Hessen, O=privacyidea, CN=CA001
        Validity
            Not Before: May  4 05:41:02 2016 GMT
            Not After : May  4 05:41:02 2017 GMT
        Subject: C=DE, ST=Hessen, O=privacyidea, CN=requester.localdomain
        Subject Public Key Info:
            Public Key Algorithm: rsaEncryption
                Public-Key: (2048 bit)
                Modulus:
                    00:cd:be:14:4f:fa:ce:01:3f:42:22:1b:1d:9c:af:
                    dd:92:d2:7f:db:6c:b7:3e:39:43:43:6b:13:03:f1:
                    05:f4:07:74:bc:76:69:28:0b:af:19:8e:d7:fc:e3:
                    cd:c6:58:f2:ca:7f:08:6d:53:fc:07:02:44:24:c6:
                    b4:34:4c:8c:04:fe:33:0e:40:e2:20:ba:02:73:5a:
                    f7:f5:4f:63:6e:cc:c6:b6:df:54:1d:37:39:7d:51:
                    36:26:5f:bd:dc:3f:a8:8b:6b:a2:ae:b6:9d:d6:21:
                    e7:df:41:b8:7a:28:2a:68:48:ca:a8:2d:ed:e1:e9:
                    46:5e:5a:72:6d:b4:84:38:87:91:fd:94:11:0b:28:
                    84:c6:c2:2f:2a:fb:01:f9:36:7a:09:75:d1:33:88:
                    3c:73:41:5b:c8:bf:94:89:70:a1:f0:c0:b9:2e:50:
                    53:1e:b1:17:64:69:f4:2d:81:e0:a9:0d:0e:32:e9:
                    ba:55:8a:85:f1:1b:6f:49:79:b4:7f:88:c3:0d:3e:
                    54:88:9b:3d:1f:38:8c:04:f3:ee:6a:63:2b:f5:c6:
                    db:b4:83:aa:c4:78:41:3a:7d:4b:e1:c8:3e:71:ca:
                    1b:61:59:ea:c6:c4:ca:32:5e:c9:e9:bf:12:29:e6:
                    c6:c3:63:fe:a0:55:da:7a:f1:60:98:4d:26:ed:fa:
                    70:2d
                Exponent: 65537 (0x10001)
        X509v3 extensions:
            X509v3 Key Usage: 
                Digital Signature, Key Encipherment
            X509v3 Basic Constraints: 
                CA:FALSE
            Netscape Cert Type: 
                SSL Server
            Netscape Comment: 
                OpenSSL Generated Server Certificate
            X509v3 Subject Key Identifier: 
                53:3F:ED:5D:09:07:B3:65:7B:AB:45:C9:24:5B:09:77:80:0A:96:ED
            X509v3 Authority Key Identifier: 
                keyid:F4:A7:C0:CC:91:46:AF:64:F3:91:F2:27:F8:C8:B2:6F:8A:87:32:73
                DirName:/C=DE/ST=Hessen/O=privacyidea/CN=CA001
                serial:FB:C8:EB:AC:83:CD:12:07

            X509v3 Extended Key Usage: 
                TLS Web Server Authentication
    Signature Algorithm: sha1WithRSAEncryption
         a5:d0:38:17:e0:53:82:7e:89:d5:45:72:ac:b0:f2:0c:f0:eb:
         fe:15:0b:e8:00:db:1e:5d:37:89:f7:4d:ed:36:4d:23:aa:90:
         99:34:fb:39:00:42:e7:15:7b:65:67:27:af:24:45:69:23:88:
         49:23:d4:a8:4d:3a:4a:23:af:26:d2:58:73:3f:a4:25:0a:7d:
         1f:f3:d1:b4:96:4c:40:9a:a6:b0:25:3a:fa:2b:2e:6f:66:82:
         e4:29:2e:f1:53:84:29:d1:3e:25:cc:6f:30:a5:b7:2f:f1:08:
         09:71:c1:72:e2:b1:4c:e1:d0:36:4d:c7:0f:7b:de:46:d4:18:
         e2:44:f1:2b:55:10:e8:b7:7b:fb:10:2f:59:10:19:c3:d8:ed:
         bd:13:b7:8a:7e:8b:cb:2c:4c:09:45:1e:91:f2:dd:61:dd:51:
         cb:6b:b3:ec:fa:11:5d:9f:31:8b:6f:0c:e7:b5:af:b3:9c:f3:
         e7:f8:3d:c3:d5:08:00:4f:17:75:d9:d3:b0:8d:8e:10:16:ef:
         07:76:1b:b0:22:b8:fb:6b:e7:23:b7:86:99:6d:cd:46:37:3c:
         e8:1a:57:8f:5f:55:d9:cf:f3:43:d4:89:94:47:9a:be:57:f9:
         59:f6:ce:0a:6b:f2:0c:2d:cc:b0:c0:6c:c5:7b:a8:78:6f:30:
         09:b8:aa:e5
-----BEGIN CERTIFICATE-----
MIIEJjCCAw6gAwIBAgIEEAAAwzANBgkqhkiG9w0BAQUFADBEMQswCQYDVQQGEwJE
RTEPMA0GA1UECAwGSGVzc2VuMRQwEgYDVQQKDAtwcml2YWN5aWRlYTEOMAwGA1UE
AwwFQ0EwMDEwHhcNMTYwNTA0MDU0MTAyWhcNMTcwNTA0MDU0MTAyWjBUMQswCQYD
VQQGEwJERTEPMA0GA1UECAwGSGVzc2VuMRQwEgYDVQQKDAtwcml2YWN5aWRlYTEe
MBwGA1UEAwwVcmVxdWVzdGVyLmxvY2FsZG9tYWluMIIBIjANBgkqhkiG9w0BAQEF
AAOCAQ8AMIIBCgKCAQEAzb4UT/rOAT9CIhsdnK/dktJ/22y3PjlDQ2sTA/EF9Ad0
vHZpKAuvGY7X/OPNxljyyn8IbVP8BwJEJMa0NEyMBP4zDkDiILoCc1r39U9jbszG
tt9UHTc5fVE2Jl+93D+oi2uirrad1iHn30G4eigqaEjKqC3t4elGXlpybbSEOIeR
/ZQRCyiExsIvKvsB+TZ6CXXRM4g8c0FbyL+UiXCh8MC5LlBTHrEXZGn0LYHgqQ0O
Mum6VYqF8RtvSXm0f4jDDT5UiJs9HziMBPPuamMr9cbbtIOqxHhBOn1L4cg+ccob
YVnqxsTKMl7J6b8SKebGw2P+oFXaevFgmE0m7fpwLQIDAQABo4IBDjCCAQowCwYD
VR0PBAQDAgWgMAkGA1UdEwQCMAAwEQYJYIZIAYb4QgEBBAQDAgZAMDMGCWCGSAGG
+EIBDQQmFiRPcGVuU1NMIEdlbmVyYXRlZCBTZXJ2ZXIgQ2VydGlmaWNhdGUwHQYD
VR0OBBYEFFM/7V0JB7Nle6tFySRbCXeACpbtMHQGA1UdIwRtMGuAFPSnwMyRRq9k
85HyJ/jIsm+KhzJzoUikRjBEMQswCQYDVQQGEwJERTEPMA0GA1UECAwGSGVzc2Vu
MRQwEgYDVQQKDAtwcml2YWN5aWRlYTEOMAwGA1UEAwwFQ0EwMDGCCQD7yOusg80S
BzATBgNVHSUEDDAKBggrBgEFBQcDATANBgkqhkiG9w0BAQUFAAOCAQEApdA4F+BT
gn6J1UVyrLDyDPDr/hUL6ADbHl03ifdN7TZNI6qQmTT7OQBC5xV7ZWcnryRFaSOI
SSPUqE06SiOvJtJYcz+kJQp9H/PRtJZMQJqmsCU6+isub2aC5Cku8VOEKdE+Jcxv
MKW3L/EICXHBcuKxTOHQNk3HD3veRtQY4kTxK1UQ6Ld7+xAvWRAZw9jtvRO3in6L
yyxMCUUekfLdYd1Ry2uz7PoRXZ8xi28M57Wvs5zz5/g9w9UIAE8XddnTsI2OEBbv
B3YbsCK4+2vnI7eGmW3NRjc86BpXj19V2c/zQ9SJlEeavlf5WfbOCmvyDC3MsMBs
xXuoeG8wCbiq5Q==
-----END CERTIFICATE-----
