Certificate:
    Data:
        Version: 3 (0x2)
        Serial Number: 268435756 (0x1000012c)
    Signature Algorithm: sha256WithRSAEncryption
        Issuer: C=DE, ST=Hessen, O=privacyidea, CN=CA001
        Validity
            Not Before: Jan 10 08:33:59 2019 GMT
            Not After : Jan 10 08:33:59 2020 GMT
        Subject: OU=realm1, CN=cornelius/emailAddress=user@localhost.localdomain
        Subject Public Key Info:
            Public Key Algorithm: rsaEncryption
                Public-Key: (2048 bit)
                Modulus:
                    00:b4:8e:65:c9:e7:b1:34:50:84:14:46:6f:16:ee:
                    e7:37:66:65:9b:e9:c9:ee:45:dc:1b:d2:4a:bd:0d:
                    0a:54:1d:64:1c:5a:84:89:c8:b2:5e:ea:ae:2c:a1:
                    15:c0:d3:fc:ad:60:97:62:45:d0:e7:de:bf:65:b6:
                    15:bf:08:c1:0e:da:3a:08:9f:8c:0d:17:e2:c3:d1:
                    a0:fd:19:b6:2f:f5:7f:54:e2:d3:ab:27:d1:66:7a:
                    5f:4d:b5:66:31:63:c3:7e:64:30:b4:22:46:c4:a6:
                    0b:54:00:d6:a1:4d:a6:a9:3f:9c:c4:b4:ee:b6:95:
                    fc:da:99:b6:19:19:b5:84:44:3d:74:b3:a6:98:61:
                    46:b8:19:bd:e4:6f:3d:5f:72:0c:d6:ff:c8:c3:41:
                    13:20:4e:18:ca:0d:00:1b:9f:d3:b3:18:e2:c0:cb:
                    f1:e3:69:12:ea:b6:be:48:25:d4:f9:29:fd:b8:5b:
                    af:ae:d1:53:43:63:48:7a:c8:48:1b:34:92:85:31:
                    23:d8:7c:13:e5:c1:c6:92:0d:ff:11:fc:89:34:25:
                    69:2c:99:e8:b8:ba:be:24:17:33:60:68:9c:6f:c6:
                    20:43:49:f6:f9:af:15:c9:14:5a:cb:07:97:4d:bd:
                    dd:97:5d:cb:19:72:1d:31:a7:92:5a:55:2e:54:a8:
                    59:9b
                Exponent: 65537 (0x10001)
        X509v3 extensions:
            X509v3 Key Usage: 
                Digital Signature, Key Encipherment
            X509v3 Basic Constraints: 
                CA:FALSE
            Netscape Cert Type: 
                SSL Server
            Netscape Comment: 
                OpenSSL Generated Server Certificate
            X509v3 Subject Key Identifier: 
                C8:17:4B:0A:98:69:64:50:9F:63:88:12:35:A4:E0:C7:33:B3:3B:CE
            X509v3 Authority Key Identifier: 
                keyid:F4:A7:C0:CC:91:46:AF:64:F3:91:F2:27:F8:C8:B2:6F:8A:87:32:73
                DirName:/C=DE/ST=Hessen/O=privacyidea/CN=CA001
                serial:FB:C8:EB:AC:83:CD:12:07

            X509v3 Extended Key Usage: 
                TLS Web Server Authentication
    Signature Algorithm: sha256WithRSAEncryption
         ba:18:ed:9d:3b:21:39:75:c6:04:39:03:3d:99:9c:4c:e4:20:
         54:11:91:6c:f5:cd:94:94:5c:70:54:1e:d4:ff:19:0f:34:3c:
         40:ff:60:8f:d8:f9:bb:54:da:67:bf:e4:89:48:60:c8:1f:29:
         a0:93:9e:78:89:ef:a8:9e:c9:99:a5:08:4f:b4:cf:c2:55:20:
         83:78:dc:2c:29:d3:ff:1a:e2:dc:94:89:cd:5b:1d:60:ec:e9:
         9f:5c:53:b1:30:8f:67:da:85:cd:87:53:03:e7:eb:3b:5a:74:
         48:d5:08:d7:ad:5a:90:d6:5d:98:ee:12:3f:da:93:6b:57:be:
         a9:af:cf:b9:31:80:23:e3:1c:e3:91:eb:03:6f:07:e8:02:04:
         83:66:a5:b8:85:ec:98:4a:80:46:df:03:41:b4:24:d7:0a:9a:
         9f:73:38:bc:db:f0:c7:bb:91:17:4b:21:c2:0f:d0:c6:df:29:
         ca:80:c7:ff:a8:3b:36:ff:71:ba:3f:75:96:95:4a:32:55:18:
         75:20:ca:43:a6:81:1c:cd:26:1f:b2:77:84:94:b9:16:fc:ee:
         fe:30:6b:17:aa:b4:ae:0a:fa:61:b3:12:72:9e:1e:a5:36:26:
         45:9f:4e:eb:fe:af:20:06:e5:65:c2:5c:3e:8d:b5:61:54:57:
         17:ac:05:a3
-----BEGIN CERTIFICATE-----
MIIEIjCCAwqgAwIBAgIEEAABLDANBgkqhkiG9w0BAQsFADBEMQswCQYDVQQGEwJE
RTEPMA0GA1UECAwGSGVzc2VuMRQwEgYDVQQKDAtwcml2YWN5aWRlYTEOMAwGA1UE
AwwFQ0EwMDEwHhcNMTkwMTEwMDgzMzU5WhcNMjAwMTEwMDgzMzU5WjBQMQ8wDQYD
VQQLDAZyZWFsbTExEjAQBgNVBAMMCWNvcm5lbGl1czEpMCcGCSqGSIb3DQEJARYa
dXNlckBsb2NhbGhvc3QubG9jYWxkb21haW4wggEiMA0GCSqGSIb3DQEBAQUAA4IB
DwAwggEKAoIBAQC0jmXJ57E0UIQURm8W7uc3ZmWb6cnuRdwb0kq9DQpUHWQcWoSJ
yLJe6q4soRXA0/ytYJdiRdDn3r9lthW/CMEO2joIn4wNF+LD0aD9GbYv9X9U4tOr
J9Fmel9NtWYxY8N+ZDC0IkbEpgtUANahTaapP5zEtO62lfzambYZGbWERD10s6aY
YUa4Gb3kbz1fcgzW/8jDQRMgThjKDQAbn9OzGOLAy/HjaRLqtr5IJdT5Kf24W6+u
0VNDY0h6yEgbNJKFMSPYfBPlwcaSDf8R/Ik0JWksmei4ur4kFzNgaJxvxiBDSfb5
rxXJFFrLB5dNvd2XXcsZch0xp5JaVS5UqFmbAgMBAAGjggEOMIIBCjALBgNVHQ8E
BAMCBaAwCQYDVR0TBAIwADARBglghkgBhvhCAQEEBAMCBkAwMwYJYIZIAYb4QgEN
BCYWJE9wZW5TU0wgR2VuZXJhdGVkIFNlcnZlciBDZXJ0aWZpY2F0ZTAdBgNVHQ4E
FgQUyBdLCphpZFCfY4gSNaTgxzOzO84wdAYDVR0jBG0wa4AU9KfAzJFGr2TzkfIn
+Miyb4qHMnOhSKRGMEQxCzAJBgNVBAYTAkRFMQ8wDQYDVQQIDAZIZXNzZW4xFDAS
BgNVBAoMC3ByaXZhY3lpZGVhMQ4wDAYDVQQDDAVDQTAwMYIJAPvI66yDzRIHMBMG
A1UdJQQMMAoGCCsGAQUFBwMBMA0GCSqGSIb3DQEBCwUAA4IBAQC6GO2dOyE5dcYE
OQM9mZxM5CBUEZFs9c2UlFxwVB7U/xkPNDxA/2CP2Pm7VNpnv+SJSGDIHymgk554
ie+onsmZpQhPtM/CVSCDeNwsKdP/GuLclInNWx1g7OmfXFOxMI9n2oXNh1MD5+s7
WnRI1QjXrVqQ1l2Y7hI/2pNrV76pr8+5MYAj4xzjkesDbwfoAgSDZqW4heyYSoBG
3wNBtCTXCpqfczi82/DHu5EXSyHCD9DG3ynKgMf/qDs2/3G6P3WWlUoyVRh1IMpD
poEczSYfsneElLkW/O7+MGsXqrSuCvphsxJynh6lNiZFn07r/q8gBuVlwlw+jbVh
VFcXrAWj
-----END CERTIFICATE-----
