Certificate:
    Data:
        Version: 3 (0x2)
        Serial Number: 268435720 (0x10000108)
    Signature Algorithm: sha256WithRSAEncryption
        Issuer: C=DE, ST=Hessen, O=privacyidea, CN=CA001
        Validity
            Not Before: Jan  9 23:01:11 2019 GMT
            Not After : Jan  9 23:01:11 2020 GMT
        Subject: C=DE, ST=Hessen, O=privacyidea, CN=usercert
        Subject Public Key Info:
            Public Key Algorithm: rsaEncryption
                Public-Key: (2048 bit)
                Modulus:
                    00:dc:2f:d1:5f:29:97:d4:7c:c3:53:c8:30:bd:4b:
                    67:70:2c:24:6b:b8:5e:eb:21:7a:48:12:56:7c:81:
                    5c:48:75:b6:68:eb:f6:f2:98:4e:50:51:d1:7f:6c:
                    73:f3:0a:a7:ae:be:48:5e:e5:d6:e1:d9:2a:7c:32:
                    6e:4e:fd:08:f6:5a:54:49:23:73:c3:b9:07:18:d1:
                    ef:b3:ac:f8:8a:dc:94:96:a4:90:3a:8e:74:df:e6:
                    0d:37:1b:bd:5b:b7:25:1a:56:39:da:6f:91:aa:5e:
                    1c:74:f3:f9:7c:14:01:83:12:65:76:c7:bb:fe:36:
                    5b:95:e9:72:65:83:ed:3e:98:30:71:fa:87:dd:a3:
                    36:5a:30:03:2e:26:e0:61:d1:bf:02:3f:b6:06:1f:
                    4a:89:28:1c:5c:a2:ff:4e:be:94:e6:8c:e0:da:82:
                    f1:9d:29:32:48:30:73:b4:04:f6:42:1e:be:f7:e2:
                    32:32:27:3c:9d:89:2f:70:3e:85:9a:6f:5c:c5:09:
                    c0:8c:32:2f:72:22:c9:d2:95:1f:b6:ac:72:60:72:
                    b7:82:4d:6b:ce:5b:e3:00:d0:d2:2f:58:c6:e0:10:
                    e5:51:ca:4d:3b:2e:e6:7e:ab:84:d6:56:f1:93:35:
                    a0:93:64:26:81:75:2f:91:b5:16:06:38:0b:db:cc:
                    2d:07
                Exponent: 65537 (0x10001)
        X509v3 extensions:
            X509v3 Key Usage: 
                Digital Signature, Key Encipherment
            X509v3 Basic Constraints: 
                CA:FALSE
            Netscape Cert Type: 
                SSL Server
            Netscape Comment: 
                OpenSSL Generated Server Certificate
            X509v3 Subject Key Identifier: 
                FC:14:D1:F0:4B:8D:00:90:F2:F5:B8:71:9E:4E:97:C3:92:54:AD:0B
            X509v3 Authority Key Identifier: 
                keyid:F4:A7:C0:CC:91:46:AF:64:F3:91:F2:27:F8:C8:B2:6F:8A:87:32:73
                DirName:/C=DE/ST=Hessen/O=privacyidea/CN=CA001
                serial:FB:C8:EB:AC:83:CD:12:07

            X509v3 Extended Key Usage: 
                TLS Web Server Authentication
    Signature Algorithm: sha256WithRSAEncryption
         64:34:1a:dd:72:e9:ef:e5:1a:b8:66:a2:49:7b:e8:33:6d:e4:
         3f:ea:25:4e:dc:96:00:d7:ac:29:dc:22:d2:59:c3:d0:6b:94:
         64:f8:44:df:b0:40:0d:28:6f:aa:25:75:3a:67:06:d9:4d:df:
         1e:3a:a5:99:a6:29:c5:f3:cd:4c:25:ec:26:25:62:46:0d:5c:
         02:30:c2:ce:17:41:df:6e:10:d4:69:7d:fc:5a:a5:d5:75:bf:
         3c:f4:f8:1b:10:e3:5d:39:44:44:5d:31:cf:83:95:ba:d5:84:
         10:a3:78:29:f2:89:cd:86:52:a8:aa:f1:0b:b5:be:43:8a:23:
         66:d4:8b:68:de:41:fd:df:3e:a4:0f:d9:34:9e:34:9f:a3:86:
         29:be:a7:65:94:16:0f:1d:1f:62:88:1b:17:27:23:f3:72:82:
         71:38:bb:1f:42:62:ec:92:20:82:43:be:dd:36:54:71:a3:db:
         ac:e4:8c:7a:af:bc:00:f2:5a:89:29:5a:bd:a4:c7:b1:ed:32:
         4d:76:e9:60:75:5d:c4:aa:a3:b2:45:13:03:21:2d:aa:4e:a5:
         6d:c9:5e:b6:fd:c6:47:cc:b1:16:4e:cf:8d:ec:8d:31:5b:ec:
         23:77:42:78:2b:5b:39:66:d3:b6:2d:ba:98:09:bb:b6:57:16:
         c3:03:96:87
-----BEGIN CERTIFICATE-----
MIIEGTCCAwGgAwIBAgIEEAABCDANBgkqhkiG9w0BAQsFADBEMQswCQYDVQQGEwJE
RTEPMA0GA1UECAwGSGVzc2VuMRQwEgYDVQQKDAtwcml2YWN5aWRlYTEOMAwGA1UE
AwwFQ0EwMDEwHhcNMTkwMTA5MjMwMTExWhcNMjAwMTA5MjMwMTExWjBHMQswCQYD
VQQGEwJERTEPMA0GA1UECAwGSGVzc2VuMRQwEgYDVQQKDAtwcml2YWN5aWRlYTER
MA8GA1UEAwwIdXNlcmNlcnQwggEiMA0GCSqGSIb3DQEBAQUAA4IBDwAwggEKAoIB
AQDcL9FfKZfUfMNTyDC9S2dwLCRruF7rIXpIElZ8gVxIdbZo6/bymE5QUdF/bHPz
Cqeuvkhe5dbh2Sp8Mm5O/Qj2WlRJI3PDuQcY0e+zrPiK3JSWpJA6jnTf5g03G71b
tyUaVjnab5GqXhx08/l8FAGDEmV2x7v+NluV6XJlg+0+mDBx+ofdozZaMAMuJuBh
0b8CP7YGH0qJKBxcov9OvpTmjODagvGdKTJIMHO0BPZCHr734jIyJzydiS9wPoWa
b1zFCcCMMi9yIsnSlR+2rHJgcreCTWvOW+MA0NIvWMbgEOVRyk07LuZ+q4TWVvGT
NaCTZCaBdS+RtRYGOAvbzC0HAgMBAAGjggEOMIIBCjALBgNVHQ8EBAMCBaAwCQYD
VR0TBAIwADARBglghkgBhvhCAQEEBAMCBkAwMwYJYIZIAYb4QgENBCYWJE9wZW5T
U0wgR2VuZXJhdGVkIFNlcnZlciBDZXJ0aWZpY2F0ZTAdBgNVHQ4EFgQU/BTR8EuN
AJDy9bhxnk6Xw5JUrQswdAYDVR0jBG0wa4AU9KfAzJFGr2TzkfIn+Miyb4qHMnOh
SKRGMEQxCzAJBgNVBAYTAkRFMQ8wDQYDVQQIDAZIZXNzZW4xFDASBgNVBAoMC3By
aXZhY3lpZGVhMQ4wDAYDVQQDDAVDQTAwMYIJAPvI66yDzRIHMBMGA1UdJQQMMAoG
CCsGAQUFBwMBMA0GCSqGSIb3DQEBCwUAA4IBAQBkNBrdcunv5Rq4ZqJJe+gzbeQ/
6iVO3JYA16wp3CLSWcPQa5Rk+ETfsEANKG+qJXU6ZwbZTd8eOqWZpinF881MJewm
JWJGDVwCMMLOF0HfbhDUaX38WqXVdb889PgbEONdOUREXTHPg5W61YQQo3gp8onN
hlKoqvELtb5DiiNm1Ito3kH93z6kD9k0njSfo4YpvqdllBYPHR9iiBsXJyPzcoJx
OLsfQmLskiCCQ77dNlRxo9us5Ix6r7wA8lqJKVq9pMex7TJNdulgdV3EqqOyRRMD
IS2qTqVtyV62/cZHzLEWTs+N7I0xW+wjd0J4K1s5ZtO2LbqYCbu2VxbDA5aH
-----END CERTIFICATE-----
