Certificate:
    Data:
        Version: 3 (0x2)
        Serial Number: 268435713 (0x10000101)
    Signature Algorithm: sha256WithRSAEncryption
        Issuer: C=DE, ST=Hessen, O=privacyidea, CN=CA001
        Validity
            Not Before: Jan  9 21:14:30 2019 GMT
            Not After : Jan 28 21:14:30 2021 GMT
        Subject: CN=Steve Test/emailAddress=steve@openssl.org
        Subject Public Key Info:
            Public Key Algorithm: rsaEncryption
                Public-Key: (2048 bit)
                Modulus:
                    00:d2:81:89:20:51:48:0f:73:f4:11:32:24:d5:1f:
                    1c:fd:5c:f5:b6:e6:c5:f0:52:81:dc:d2:af:66:4a:
                    7c:93:31:61:5c:af:d1:6d:06:70:03:60:7c:72:0c:
                    88:dd:49:cd:9e:02:6c:d2:5a:d7:53:0f:f3:da:be:
                    69:64:b5:0f:0c:00:e3:b3:50:47:a3:b3:9b:ba:13:
                    50:d6:58:5a:4b:ab:39:e0:11:ca:0a:27:67:03:78:
                    22:66:6d:92:1e:1b:5c:49:ae:e6:6b:d1:8e:3b:9d:
                    06:d3:c6:ac:4d:53:43:10:ab:e8:96:c1:87:82:97:
                    99:8f:20:d3:99:12:37:31:84:e1:8a:ff:29:03:5f:
                    22:90:3e:7f:9b:e0:20:c1:ad:dc:ae:4c:39:1a:31:
                    96:17:02:8c:b2:d9:b4:0d:20:12:9b:7d:86:54:fd:
                    33:fd:c1:2a:62:46:f8:60:96:cf:6e:01:6f:22:df:
                    13:47:e7:97:ec:05:72:23:a3:62:f8:fa:ef:ac:9c:
                    72:f0:37:cb:2f:37:cf:90:a8:27:51:86:c6:d7:78:
                    08:8f:7e:25:a2:15:70:a2:fb:1c:b6:15:5e:a0:97:
                    8b:81:4c:09:28:8a:27:3b:94:bc:71:db:5b:71:37:
                    9a:2b:16:e0:6f:b5:c9:f5:4b:4f:20:ba:65:cf:af:
                    ad:ad
                Exponent: 65537 (0x10001)
        X509v3 extensions:
            X509v3 Key Usage: 
                Digital Signature, Key Encipherment
            X509v3 Basic Constraints: 
                CA:FALSE
            Netscape Cert Type: 
                SSL Server
            Netscape Comment: 
                OpenSSL Generated Server Certificate
            X509v3 Subject Key Identifier: 
                E5:25:6D:3E:AF:0D:DD:3F:4C:F2:45:19:39:D5:14:DB:7E:9C:C0:AD
            X509v3 Authority Key Identifier: 
                keyid:F4:A7:C0:CC:91:46:AF:64:F3:91:F2:27:F8:C8:B2:6F:8A:87:32:73
                DirName:/C=DE/ST=Hessen/O=privacyidea/CN=CA001
                serial:FB:C8:EB:AC:83:CD:12:07

            X509v3 Extended Key Usage: 
                TLS Web Server Authentication
    Signature Algorithm: sha256WithRSAEncryption
         6a:74:6c:fd:75:cd:fd:95:65:d6:c0:fa:dd:30:05:70:44:1c:
         3c:8a:09:05:b4:16:12:e6:6a:d0:b0:9e:36:bc:20:dd:1a:cb:
         0c:7d:e2:f8:50:80:ce:d9:24:c7:b4:c3:b2:6d:de:ac:b1:88:
         c8:c2:60:50:63:c5:04:d6:3b:01:76:53:10:70:03:0b:16:70:
         9d:53:36:a3:3b:f7:9e:9f:f5:9a:03:a0:36:13:48:36:e3:24:
         33:4a:29:2e:2b:c0:d9:2a:42:43:b1:c2:07:6d:b8:95:cb:dd:
         cc:10:4e:53:e1:5c:fb:73:4d:b1:18:3d:41:0f:fa:c0:c1:c0:
         96:2f:87:04:bf:d3:b9:d4:48:69:68:6d:9c:3f:30:ad:88:94:
         f1:8c:89:4a:5e:64:b0:ba:e1:e4:b3:a3:18:c2:26:1d:0b:a5:
         da:ef:d3:fd:6c:e7:65:01:10:0e:43:ab:66:84:bb:ae:e0:2e:
         6e:64:98:43:1c:46:78:14:8c:b1:77:e5:67:28:f1:9a:51:08:
         62:63:25:e5:ea:c9:d5:0b:e6:a9:3b:aa:f8:3d:dc:33:b0:98:
         07:63:4c:b6:99:e0:c7:7b:a8:17:c0:45:a3:db:96:73:93:98:
         a2:c8:aa:2b:2c:cd:21:c6:fa:a6:9d:05:95:40:37:d9:4c:30:
         d2:fd:72:cc
-----BEGIN CERTIFICATE-----
MIIECTCCAvGgAwIBAgIEEAABATANBgkqhkiG9w0BAQsFADBEMQswCQYDVQQGEwJE
RTEPMA0GA1UECAwGSGVzc2VuMRQwEgYDVQQKDAtwcml2YWN5aWRlYTEOMAwGA1UE
AwwFQ0EwMDEwHhcNMTkwMTA5MjExNDMwWhcNMjEwMTI4MjExNDMwWjA3MRMwEQYD
VQQDDApTdGV2ZSBUZXN0MSAwHgYJKoZIhvcNAQkBFhFzdGV2ZUBvcGVuc3NsLm9y
ZzCCASIwDQYJKoZIhvcNAQEBBQADggEPADCCAQoCggEBANKBiSBRSA9z9BEyJNUf
HP1c9bbmxfBSgdzSr2ZKfJMxYVyv0W0GcANgfHIMiN1JzZ4CbNJa11MP89q+aWS1
DwwA47NQR6Ozm7oTUNZYWkurOeARygonZwN4ImZtkh4bXEmu5mvRjjudBtPGrE1T
QxCr6JbBh4KXmY8g05kSNzGE4Yr/KQNfIpA+f5vgIMGt3K5MORoxlhcCjLLZtA0g
Ept9hlT9M/3BKmJG+GCWz24BbyLfE0fnl+wFciOjYvj676yccvA3yy83z5CoJ1GG
xtd4CI9+JaIVcKL7HLYVXqCXi4FMCSiKJzuUvHHbW3E3misW4G+1yfVLTyC6Zc+v
ra0CAwEAAaOCAQ4wggEKMAsGA1UdDwQEAwIFoDAJBgNVHRMEAjAAMBEGCWCGSAGG
+EIBAQQEAwIGQDAzBglghkgBhvhCAQ0EJhYkT3BlblNTTCBHZW5lcmF0ZWQgU2Vy
dmVyIENlcnRpZmljYXRlMB0GA1UdDgQWBBTlJW0+rw3dP0zyRRk51RTbfpzArTB0
BgNVHSMEbTBrgBT0p8DMkUavZPOR8if4yLJviocyc6FIpEYwRDELMAkGA1UEBhMC
REUxDzANBgNVBAgMBkhlc3NlbjEUMBIGA1UECgwLcHJpdmFjeWlkZWExDjAMBgNV
BAMMBUNBMDAxggkA+8jrrIPNEgcwEwYDVR0lBAwwCgYIKwYBBQUHAwEwDQYJKoZI
hvcNAQELBQADggEBAGp0bP11zf2VZdbA+t0wBXBEHDyKCQW0FhLmatCwnja8IN0a
ywx94vhQgM7ZJMe0w7Jt3qyxiMjCYFBjxQTWOwF2UxBwAwsWcJ1TNqM7956f9ZoD
oDYTSDbjJDNKKS4rwNkqQkOxwgdtuJXL3cwQTlPhXPtzTbEYPUEP+sDBwJYvhwS/
07nUSGlobZw/MK2IlPGMiUpeZLC64eSzoxjCJh0Lpdrv0/1s52UBEA5Dq2aEu67g
Lm5kmEMcRngUjLF35Wco8ZpRCGJjJeXqydUL5qk7qvg93DOwmAdjTLaZ4Md7qBfA
RaPblnOTmKLIqisszSHG+qadBZVAN9lMMNL9csw=
-----END CERTIFICATE-----
