Certificate:
    Data:
        Version: 3 (0x2)
        Serial Number: 268435751 (0x10000127)
    Signature Algorithm: sha256WithRSAEncryption
        Issuer: C=DE, ST=Hessen, O=privacyidea, CN=CA001
        Validity
            Not Before: Jan 10 08:29:03 2019 GMT
            Not After : Jan 10 08:29:03 2020 GMT
        Subject: C=DE, ST=Hessen, O=privacyidea, CN=requester.localdomain
        Subject Public Key Info:
            Public Key Algorithm: rsaEncryption
                Public-Key: (2048 bit)
                Modulus:
                    00:cd:be:14:4f:fa:ce:01:3f:42:22:1b:1d:9c:af:
                    dd:92:d2:7f:db:6c:b7:3e:39:43:43:6b:13:03:f1:
                    05:f4:07:74:bc:76:69:28:0b:af:19:8e:d7:fc:e3:
                    cd:c6:58:f2:ca:7f:08:6d:53:fc:07:02:44:24:c6:
                    b4:34:4c:8c:04:fe:33:0e:40:e2:20:ba:02:73:5a:
                    f7:f5:4f:63:6e:cc:c6:b6:df:54:1d:37:39:7d:51:
                    36:26:5f:bd:dc:3f:a8:8b:6b:a2:ae:b6:9d:d6:21:
                    e7:df:41:b8:7a:28:2a:68:48:ca:a8:2d:ed:e1:e9:
                    46:5e:5a:72:6d:b4:84:38:87:91:fd:94:11:0b:28:
                    84:c6:c2:2f:2a:fb:01:f9:36:7a:09:75:d1:33:88:
                    3c:73:41:5b:c8:bf:94:89:70:a1:f0:c0:b9:2e:50:
                    53:1e:b1:17:64:69:f4:2d:81:e0:a9:0d:0e:32:e9:
                    ba:55:8a:85:f1:1b:6f:49:79:b4:7f:88:c3:0d:3e:
                    54:88:9b:3d:1f:38:8c:04:f3:ee:6a:63:2b:f5:c6:
                    db:b4:83:aa:c4:78:41:3a:7d:4b:e1:c8:3e:71:ca:
                    1b:61:59:ea:c6:c4:ca:32:5e:c9:e9:bf:12:29:e6:
                    c6:c3:63:fe:a0:55:da:7a:f1:60:98:4d:26:ed:fa:
                    70:2d
                Exponent: 65537 (0x10001)
        X509v3 extensions:
            X509v3 Key Usage: 
                Digital Signature, Key Encipherment
            X509v3 Basic Constraints: 
                CA:FALSE
            Netscape Cert Type: 
                SSL Server
            Netscape Comment: 
                OpenSSL Generated Server Certificate
            X509v3 Subject Key Identifier: 
                53:3F:ED:5D:09:07:B3:65:7B:AB:45:C9:24:5B:09:77:80:0A:96:ED
            X509v3 Authority Key Identifier: 
                keyid:F4:A7:C0:CC:91:46:AF:64:F3:91:F2:27:F8:C8:B2:6F:8A:87:32:73
                DirName:/C=DE/ST=Hessen/O=privacyidea/CN=CA001
                serial:FB:C8:EB:AC:83:CD:12:07

            X509v3 Extended Key Usage: 
                TLS Web Server Authentication
    Signature Algorithm: sha256WithRSAEncryption
         44:57:5d:02:88:c9:2b:da:69:58:c3:80:98:31:b2:65:5f:b2:
         21:09:e7:66:dd:46:a6:9f:82:77:37:9b:b0:1d:0d:59:91:49:
         3f:ad:44:6d:50:a6:24:85:92:b7:c6:45:86:5c:12:11:45:73:
         c9:a1:9a:00:9d:5f:ba:e9:50:9d:3b:df:19:9f:2c:e4:62:b8:
         2c:f7:08:ee:ea:0a:80:68:28:a5:2a:be:ca:c6:1b:db:a0:2c:
         3c:d3:c9:d4:31:b8:da:3b:5b:df:19:45:3e:f4:99:ff:8e:b9:
         bc:c6:1b:35:77:89:4c:ee:a4:4c:fd:74:00:64:37:34:f4:05:
         3b:11:09:4c:57:4d:2c:41:8a:e2:2a:5f:b7:d6:86:2a:2a:6d:
         01:ab:76:fe:6a:c0:74:0c:c1:2a:c9:78:ba:f2:b0:69:5f:3d:
         53:33:74:3e:a5:92:42:75:eb:a5:85:8d:8c:61:94:9c:fd:d0:
         27:16:d1:80:b9:0f:a2:56:b2:1c:03:74:58:53:5d:bb:dc:52:
         78:22:19:71:7d:ed:87:1f:d5:d1:9c:d9:e7:4a:84:13:25:a3:
         4a:2d:21:0a:15:0c:08:7f:42:24:ca:27:ce:d4:2f:5b:36:b2:
         20:58:b8:2f:8a:df:09:0a:dc:06:9c:9c:d2:60:79:97:c1:b8:
         79:33:f8:91
-----BEGIN CERTIFICATE-----
MIIEJjCCAw6gAwIBAgIEEAABJzANBgkqhkiG9w0BAQsFADBEMQswCQYDVQQGEwJE
RTEPMA0GA1UECAwGSGVzc2VuMRQwEgYDVQQKDAtwcml2YWN5aWRlYTEOMAwGA1UE
AwwFQ0EwMDEwHhcNMTkwMTEwMDgyOTAzWhcNMjAwMTEwMDgyOTAzWjBUMQswCQYD
VQQGEwJERTEPMA0GA1UECAwGSGVzc2VuMRQwEgYDVQQKDAtwcml2YWN5aWRlYTEe
MBwGA1UEAwwVcmVxdWVzdGVyLmxvY2FsZG9tYWluMIIBIjANBgkqhkiG9w0BAQEF
AAOCAQ8AMIIBCgKCAQEAzb4UT/rOAT9CIhsdnK/dktJ/22y3PjlDQ2sTA/EF9Ad0
vHZpKAuvGY7X/OPNxljyyn8IbVP8BwJEJMa0NEyMBP4zDkDiILoCc1r39U9jbszG
tt9UHTc5fVE2Jl+93D+oi2uirrad1iHn30G4eigqaEjKqC3t4elGXlpybbSEOIeR
/ZQRCyiExsIvKvsB+TZ6CXXRM4g8c0FbyL+UiXCh8MC5LlBTHrEXZGn0LYHgqQ0O
Mum6VYqF8RtvSXm0f4jDDT5UiJs9HziMBPPuamMr9cbbtIOqxHhBOn1L4cg+ccob
YVnqxsTKMl7J6b8SKebGw2P+oFXaevFgmE0m7fpwLQIDAQABo4IBDjCCAQowCwYD
VR0PBAQDAgWgMAkGA1UdEwQCMAAwEQYJYIZIAYb4QgEBBAQDAgZAMDMGCWCGSAGG
+EIBDQQmFiRPcGVuU1NMIEdlbmVyYXRlZCBTZXJ2ZXIgQ2VydGlmaWNhdGUwHQYD
VR0OBBYEFFM/7V0JB7Nle6tFySRbCXeACpbtMHQGA1UdIwRtMGuAFPSnwMyRRq9k
85HyJ/jIsm+KhzJzoUikRjBEMQswCQYDVQQGEwJERTEPMA0GA1UECAwGSGVzc2Vu
MRQwEgYDVQQKDAtwcml2YWN5aWRlYTEOMAwGA1UEAwwFQ0EwMDGCCQD7yOusg80S
BzATBgNVHSUEDDAKBggrBgEFBQcDATANBgkqhkiG9w0BAQsFAAOCAQEARFddAojJ
K9ppWMOAmDGyZV+yIQnnZt1Gpp+CdzebsB0NWZFJP61EbVCmJIWSt8ZFhlwSEUVz
yaGaAJ1fuulQnTvfGZ8s5GK4LPcI7uoKgGgopSq+ysYb26AsPNPJ1DG42jtb3xlF
PvSZ/465vMYbNXeJTO6kTP10AGQ3NPQFOxEJTFdNLEGK4ipft9aGKiptAat2/mrA
dAzBKsl4uvKwaV89UzN0PqWSQnXrpYWNjGGUnP3QJxbRgLkPolayHAN0WFNdu9xS
eCIZcX3thx/V0ZzZ50qEEyWjSi0hChUMCH9CJMonztQvWzayIFi4L4rfCQrcBpyc
0mB5l8G4eTP4kQ==
-----END CERTIFICATE-----
