Certificate:
    Data:
        Version: 3 (0x2)
        Serial Number: 268435725 (0x1000010d)
    Signature Algorithm: sha256WithRSAEncryption
        Issuer: C=DE, ST=Hessen, O=privacyidea, CN=CA001
        Validity
            Not Before: Jan  9 23:14:11 2019 GMT
            Not After : Jan  9 23:14:11 2020 GMT
        Subject: CN=selfservice,CN=user,O=realm1/emailAddress=meine
        Subject Public Key Info:
            Public Key Algorithm: rsaEncryption
                Public-Key: (2048 bit)
                Modulus:
                    00:cf:3c:d4:33:0e:12:c4:e6:da:cd:b6:56:a1:1c:
                    26:bb:26:1c:8a:4a:73:a8:58:8a:b6:1e:b3:8b:99:
                    d2:1d:07:c2:92:89:79:c0:69:d8:c8:df:28:61:98:
                    1e:b3:fe:ae:2b:bd:78:a9:f7:6e:47:dc:a3:a0:16:
                    8c:85:02:c1:4e:92:fd:72:6e:f0:c8:03:29:9b:b8:
                    00:6e:c0:83:95:c8:34:20:36:9c:b3:e5:e4:e6:76:
                    73:a3:1a:ad:40:96:e0:53:54:00:ec:76:79:9a:c6:
                    0d:7e:b6:bd:29:ec:83:f3:cb:89:a4:cb:6c:00:ba:
                    0c:c5:78:0f:ff:69:b8:94:f4:04:70:43:3f:d8:9e:
                    d7:a7:fb:5d:ce:75:8e:da:e7:c4:07:b1:9d:de:6f:
                    88:4b:b6:4d:9a:cf:f9:bc:fa:9f:cd:32:6d:f6:3a:
                    0b:0d:23:42:78:ec:97:42:bf:0e:4d:60:56:e1:d3:
                    02:f2:19:cb:84:57:90:e5:70:a1:a2:83:35:86:e2:
                    da:86:9f:f9:8a:c4:79:b3:52:28:da:cb:bb:34:ca:
                    d3:da:91:4a:cf:8d:76:a2:b2:6b:9b:f9:96:fd:09:
                    2a:da:11:23:4d:f0:cb:d6:b2:b1:0e:12:6c:9a:19:
                    65:98:87:ca:e4:ee:24:ce:44:ac:90:8f:9d:1b:c5:
                    2a:9d
                Exponent: 65537 (0x10001)
        X509v3 extensions:
            X509v3 Key Usage: 
                Digital Signature, Key Encipherment
            X509v3 Basic Constraints: 
                CA:FALSE
            Netscape Cert Type: 
                SSL Server
            Netscape Comment: 
                OpenSSL Generated Server Certificate
            X509v3 Subject Key Identifier: 
                4D:07:90:AD:FF:1D:0D:E7:1A:DD:D6:2E:FA:BA:34:CB:AA:1F:24:C6
            X509v3 Authority Key Identifier: 
                keyid:F4:A7:C0:CC:91:46:AF:64:F3:91:F2:27:F8:C8:B2:6F:8A:87:32:73
                DirName:/C=DE/ST=Hessen/O=privacyidea/CN=CA001
                serial:FB:C8:EB:AC:83:CD:12:07

            X509v3 Extended Key Usage: 
                TLS Web Server Authentication
    Signature Algorithm: sha256WithRSAEncryption
         42:5f:b9:05:58:ae:3b:ba:db:56:a1:2f:30:5a:2e:e6:17:f8:
         8b:9b:ba:90:ca:98:e6:3f:2e:58:ea:86:00:05:d6:79:29:24:
         bf:99:ed:a1:ee:98:5b:6a:85:3d:a8:ef:8f:ee:2b:ed:a7:dc:
         a9:2c:86:8c:46:8d:f0:24:f9:9b:8a:d2:44:5a:bd:4b:14:54:
         5b:9b:64:27:65:5c:f7:59:cd:f0:94:d2:26:81:b2:de:47:6e:
         97:bf:ac:26:a3:37:e2:33:11:b0:ab:a5:cd:d9:98:7a:f6:bb:
         22:73:79:63:9c:54:33:e2:02:fc:e9:e4:c5:ee:8f:7c:58:ee:
         79:45:f2:22:18:79:fa:47:7e:31:e2:36:de:cc:64:2a:ed:08:
         03:b2:42:3c:9f:49:b8:12:02:81:b9:81:08:79:9f:0f:78:2b:
         9c:6e:f3:aa:a2:6e:67:4d:b7:4b:97:17:31:1c:08:f4:dd:d9:
         9e:05:53:53:86:97:23:91:b4:da:32:78:72:2d:c1:1d:0c:f5:
         b7:76:12:33:3e:e4:ca:4f:c0:51:82:52:ac:8e:a4:67:11:ac:
         94:d5:cd:5d:a8:1c:6c:cc:ca:18:a0:97:c2:3b:d0:50:73:80:
         45:24:95:d2:46:8c:d8:a1:69:1b:09:bd:c8:cb:e3:99:e9:b6:
         69:f8:d9:97
-----BEGIN CERTIFICATE-----
MIIEDzCCAvegAwIBAgIEEAABDTANBgkqhkiG9w0BAQsFADBEMQswCQYDVQQGEwJE
RTEPMA0GA1UECAwGSGVzc2VuMRQwEgYDVQQKDAtwcml2YWN5aWRlYTEOMAwGA1UE
AwwFQ0EwMDEwHhcNMTkwMTA5MjMxNDExWhcNMjAwMTA5MjMxNDExWjA9MSUwIwYD
VQQDDBxzZWxmc2VydmljZSxDTj11c2VyLE89cmVhbG0xMRQwEgYJKoZIhvcNAQkB
FgVtZWluZTCCASIwDQYJKoZIhvcNAQEBBQADggEPADCCAQoCggEBAM881DMOEsTm
2s22VqEcJrsmHIpKc6hYirYes4uZ0h0HwpKJecBp2MjfKGGYHrP+riu9eKn3bkfc
o6AWjIUCwU6S/XJu8MgDKZu4AG7Ag5XINCA2nLPl5OZ2c6MarUCW4FNUAOx2eZrG
DX62vSnsg/PLiaTLbAC6DMV4D/9puJT0BHBDP9ie16f7Xc51jtrnxAexnd5viEu2
TZrP+bz6n80ybfY6Cw0jQnjsl0K/Dk1gVuHTAvIZy4RXkOVwoaKDNYbi2oaf+YrE
ebNSKNrLuzTK09qRSs+NdqKya5v5lv0JKtoRI03wy9aysQ4SbJoZZZiHyuTuJM5E
rJCPnRvFKp0CAwEAAaOCAQ4wggEKMAsGA1UdDwQEAwIFoDAJBgNVHRMEAjAAMBEG
CWCGSAGG+EIBAQQEAwIGQDAzBglghkgBhvhCAQ0EJhYkT3BlblNTTCBHZW5lcmF0
ZWQgU2VydmVyIENlcnRpZmljYXRlMB0GA1UdDgQWBBRNB5Ct/x0N5xrd1i76ujTL
qh8kxjB0BgNVHSMEbTBrgBT0p8DMkUavZPOR8if4yLJviocyc6FIpEYwRDELMAkG
A1UEBhMCREUxDzANBgNVBAgMBkhlc3NlbjEUMBIGA1UECgwLcHJpdmFjeWlkZWEx
DjAMBgNVBAMMBUNBMDAxggkA+8jrrIPNEgcwEwYDVR0lBAwwCgYIKwYBBQUHAwEw
DQYJKoZIhvcNAQELBQADggEBAEJfuQVYrju621ahLzBaLuYX+IubupDKmOY/Lljq
hgAF1nkpJL+Z7aHumFtqhT2o74/uK+2n3KkshoxGjfAk+ZuK0kRavUsUVFubZCdl
XPdZzfCU0iaBst5Hbpe/rCajN+IzEbCrpc3ZmHr2uyJzeWOcVDPiAvzp5MXuj3xY
7nlF8iIYefpHfjHiNt7MZCrtCAOyQjyfSbgSAoG5gQh5nw94K5xu86qibmdNt0uX
FzEcCPTd2Z4FU1OGlyORtNoyeHItwR0M9bd2EjM+5MpPwFGCUqyOpGcRrJTVzV2o
HGzMyhigl8I70FBzgEUkldJGjNihaRsJvcjL45nptmn42Zc=
-----END CERTIFICATE-----
