Certificate:
    Data:
        Version: 3 (0x2)
        Serial Number: 268435653 (0x100000c5)
    Signature Algorithm: sha1WithRSAEncryption
        Issuer: C=DE, ST=Hessen, O=privacyidea, CN=CA001
        Validity
            Not Before: May  4 05:42:34 2016 GMT
            Not After : May  4 05:42:34 2017 GMT
        Subject: C=DE, ST=Hessen, O=privacyidea, CN=usercert
        Subject Public Key Info:
            Public Key Algorithm: rsaEncryption
                Public-Key: (2048 bit)
                Modulus:
                    00:dc:2f:d1:5f:29:97:d4:7c:c3:53:c8:30:bd:4b:
                    67:70:2c:24:6b:b8:5e:eb:21:7a:48:12:56:7c:81:
                    5c:48:75:b6:68:eb:f6:f2:98:4e:50:51:d1:7f:6c:
                    73:f3:0a:a7:ae:be:48:5e:e5:d6:e1:d9:2a:7c:32:
                    6e:4e:fd:08:f6:5a:54:49:23:73:c3:b9:07:18:d1:
                    ef:b3:ac:f8:8a:dc:94:96:a4:90:3a:8e:74:df:e6:
                    0d:37:1b:bd:5b:b7:25:1a:56:39:da:6f:91:aa:5e:
                    1c:74:f3:f9:7c:14:01:83:12:65:76:c7:bb:fe:36:
                    5b:95:e9:72:65:83:ed:3e:98:30:71:fa:87:dd:a3:
                    36:5a:30:03:2e:26:e0:61:d1:bf:02:3f:b6:06:1f:
                    4a:89:28:1c:5c:a2:ff:4e:be:94:e6:8c:e0:da:82:
                    f1:9d:29:32:48:30:73:b4:04:f6:42:1e:be:f7:e2:
                    32:32:27:3c:9d:89:2f:70:3e:85:9a:6f:5c:c5:09:
                    c0:8c:32:2f:72:22:c9:d2:95:1f:b6:ac:72:60:72:
                    b7:82:4d:6b:ce:5b:e3:00:d0:d2:2f:58:c6:e0:10:
                    e5:51:ca:4d:3b:2e:e6:7e:ab:84:d6:56:f1:93:35:
                    a0:93:64:26:81:75:2f:91:b5:16:06:38:0b:db:cc:
                    2d:07
                Exponent: 65537 (0x10001)
        X509v3 extensions:
            X509v3 Key Usage: 
                Digital Signature, Key Encipherment
            X509v3 Basic Constraints: 
                CA:FALSE
            Netscape Cert Type: 
                SSL Server
            Netscape Comment: 
                OpenSSL Generated Server Certificate
            X509v3 Subject Key Identifier: 
                FC:14:D1:F0:4B:8D:00:90:F2:F5:B8:71:9E:4E:97:C3:92:54:AD:0B
            X509v3 Authority Key Identifier: 
                keyid:F4:A7:C0:CC:91:46:AF:64:F3:91:F2:27:F8:C8:B2:6F:8A:87:32:73
                DirName:/C=DE/ST=Hessen/O=privacyidea/CN=CA001
                serial:FB:C8:EB:AC:83:CD:12:07

            X509v3 Extended Key Usage: 
                TLS Web Server Authentication
    Signature Algorithm: sha1WithRSAEncryption
         23:12:a0:3a:0c:49:79:9a:b7:1a:db:6e:b0:8b:42:53:68:6e:
         86:10:a4:ab:98:2b:ef:78:00:a5:06:5a:4e:4d:bd:22:50:fd:
         cc:59:d3:f2:7d:ac:36:ec:e5:52:23:9e:6a:29:55:c9:92:5a:
         38:60:23:88:31:0a:c0:56:4f:58:8f:97:a4:cd:a4:dd:69:b3:
         7b:10:82:e2:69:96:2a:1d:23:48:48:b1:01:95:af:d2:50:3d:
         5b:41:19:c3:59:56:7e:c2:0a:6b:52:6e:c9:61:37:46:1d:fe:
         3a:ea:29:f1:f3:07:3f:4c:23:42:26:66:16:ff:d0:b7:d6:bd:
         3b:52:97:73:8a:6d:d4:1e:68:e6:c1:a1:05:ce:25:20:59:ba:
         34:63:5a:8f:2c:10:8c:40:bc:b9:10:45:bd:83:7a:88:35:96:
         b2:20:ef:a4:7a:2a:35:f7:1d:7e:4c:76:18:89:65:25:33:9c:
         8e:94:71:e4:47:82:37:e0:2f:e2:f5:2e:81:02:02:0e:08:36:
         02:b0:7c:9a:68:b5:c9:7e:56:fa:44:87:27:06:83:73:f8:f5:
         16:57:6f:72:e8:8b:c5:93:21:a4:6e:b7:d1:ba:92:2d:be:0c:
         47:b4:23:38:f9:13:8e:0d:f3:96:66:30:41:a4:6e:5b:4f:50:
         5a:bf:ff:24
-----BEGIN CERTIFICATE-----
MIIEGTCCAwGgAwIBAgIEEAAAxTANBgkqhkiG9w0BAQUFADBEMQswCQYDVQQGEwJE
RTEPMA0GA1UECAwGSGVzc2VuMRQwEgYDVQQKDAtwcml2YWN5aWRlYTEOMAwGA1UE
AwwFQ0EwMDEwHhcNMTYwNTA0MDU0MjM0WhcNMTcwNTA0MDU0MjM0WjBHMQswCQYD
VQQGEwJERTEPMA0GA1UECAwGSGVzc2VuMRQwEgYDVQQKDAtwcml2YWN5aWRlYTER
MA8GA1UEAwwIdXNlcmNlcnQwggEiMA0GCSqGSIb3DQEBAQUAA4IBDwAwggEKAoIB
AQDcL9FfKZfUfMNTyDC9S2dwLCRruF7rIXpIElZ8gVxIdbZo6/bymE5QUdF/bHPz
Cqeuvkhe5dbh2Sp8Mm5O/Qj2WlRJI3PDuQcY0e+zrPiK3JSWpJA6jnTf5g03G71b
tyUaVjnab5GqXhx08/l8FAGDEmV2x7v+NluV6XJlg+0+mDBx+ofdozZaMAMuJuBh
0b8CP7YGH0qJKBxcov9OvpTmjODagvGdKTJIMHO0BPZCHr734jIyJzydiS9wPoWa
b1zFCcCMMi9yIsnSlR+2rHJgcreCTWvOW+MA0NIvWMbgEOVRyk07LuZ+q4TWVvGT
NaCTZCaBdS+RtRYGOAvbzC0HAgMBAAGjggEOMIIBCjALBgNVHQ8EBAMCBaAwCQYD
VR0TBAIwADARBglghkgBhvhCAQEEBAMCBkAwMwYJYIZIAYb4QgENBCYWJE9wZW5T
U0wgR2VuZXJhdGVkIFNlcnZlciBDZXJ0aWZpY2F0ZTAdBgNVHQ4EFgQU/BTR8EuN
AJDy9bhxnk6Xw5JUrQswdAYDVR0jBG0wa4AU9KfAzJFGr2TzkfIn+Miyb4qHMnOh
SKRGMEQxCzAJBgNVBAYTAkRFMQ8wDQYDVQQIDAZIZXNzZW4xFDASBgNVBAoMC3By
aXZhY3lpZGVhMQ4wDAYDVQQDDAVDQTAwMYIJAPvI66yDzRIHMBMGA1UdJQQMMAoG
CCsGAQUFBwMBMA0GCSqGSIb3DQEBBQUAA4IBAQAjEqA6DEl5mrca226wi0JTaG6G
EKSrmCvveAClBlpOTb0iUP3MWdPyfaw27OVSI55qKVXJklo4YCOIMQrAVk9Yj5ek
zaTdabN7EILiaZYqHSNISLEBla/SUD1bQRnDWVZ+wgprUm7JYTdGHf466inx8wc/
TCNCJmYW/9C31r07Updzim3UHmjmwaEFziUgWbo0Y1qPLBCMQLy5EEW9g3qINZay
IO+keio19x1+THYYiWUlM5yOlHHkR4I34C/i9S6BAgIOCDYCsHyaaLXJflb6RIcn
BoNz+PUWV29y6IvFkyGkbrfRupItvgxHtCM4+ROODfOWZjBBpG5bT1Bav/8k
-----END CERTIFICATE-----
