Certificate:
    Data:
        Version: 3 (0x2)
        Serial Number: 268435638 (0x100000b6)
    Signature Algorithm: sha1WithRSAEncryption
        Issuer: C=DE, ST=Hessen, O=privacyidea, CN=CA001
        Validity
            Not Before: Nov 26 22:11:01 2015 GMT
            Not After : Nov 25 22:11:01 2016 GMT
        Subject: C=DE, ST=Hessen, O=privacyidea, CN=requester.localdomain
        Subject Public Key Info:
            Public Key Algorithm: rsaEncryption
                Public-Key: (2048 bit)
                Modulus:
                    00:cd:be:14:4f:fa:ce:01:3f:42:22:1b:1d:9c:af:
                    dd:92:d2:7f:db:6c:b7:3e:39:43:43:6b:13:03:f1:
                    05:f4:07:74:bc:76:69:28:0b:af:19:8e:d7:fc:e3:
                    cd:c6:58:f2:ca:7f:08:6d:53:fc:07:02:44:24:c6:
                    b4:34:4c:8c:04:fe:33:0e:40:e2:20:ba:02:73:5a:
                    f7:f5:4f:63:6e:cc:c6:b6:df:54:1d:37:39:7d:51:
                    36:26:5f:bd:dc:3f:a8:8b:6b:a2:ae:b6:9d:d6:21:
                    e7:df:41:b8:7a:28:2a:68:48:ca:a8:2d:ed:e1:e9:
                    46:5e:5a:72:6d:b4:84:38:87:91:fd:94:11:0b:28:
                    84:c6:c2:2f:2a:fb:01:f9:36:7a:09:75:d1:33:88:
                    3c:73:41:5b:c8:bf:94:89:70:a1:f0:c0:b9:2e:50:
                    53:1e:b1:17:64:69:f4:2d:81:e0:a9:0d:0e:32:e9:
                    ba:55:8a:85:f1:1b:6f:49:79:b4:7f:88:c3:0d:3e:
                    54:88:9b:3d:1f:38:8c:04:f3:ee:6a:63:2b:f5:c6:
                    db:b4:83:aa:c4:78:41:3a:7d:4b:e1:c8:3e:71:ca:
                    1b:61:59:ea:c6:c4:ca:32:5e:c9:e9:bf:12:29:e6:
                    c6:c3:63:fe:a0:55:da:7a:f1:60:98:4d:26:ed:fa:
                    70:2d
                Exponent: 65537 (0x10001)
        X509v3 extensions:
            X509v3 Key Usage: 
                Digital Signature, Key Encipherment
            X509v3 Basic Constraints: 
                CA:FALSE
            Netscape Cert Type: 
                SSL Server
            Netscape Comment: 
                OpenSSL Generated Server Certificate
            X509v3 Subject Key Identifier: 
                53:3F:ED:5D:09:07:B3:65:7B:AB:45:C9:24:5B:09:77:80:0A:96:ED
            X509v3 Authority Key Identifier: 
                keyid:F4:A7:C0:CC:91:46:AF:64:F3:91:F2:27:F8:C8:B2:6F:8A:87:32:73
                DirName:/C=DE/ST=Hessen/O=privacyidea/CN=CA001
                serial:FB:C8:EB:AC:83:CD:12:07

            X509v3 Extended Key Usage: 
                TLS Web Server Authentication
    Signature Algorithm: sha1WithRSAEncryption
         97:4b:dd:af:e4:49:a3:1a:bf:f0:57:00:41:ac:f8:86:59:73:
         ca:a1:a9:86:a8:76:58:60:49:73:40:19:e1:ec:ff:88:d1:28:
         5b:98:6c:4f:96:44:a5:6e:17:5a:c6:ea:c5:29:7a:67:1c:b9:
         93:a9:1c:73:43:39:c4:80:07:84:22:59:1a:29:1e:1b:f5:c3:
         d9:ec:b4:d0:e3:d5:9c:35:2c:92:a5:63:54:ec:05:3e:99:7c:
         ca:7c:ee:e3:bd:af:4c:78:ee:0b:b4:21:b3:8c:5f:ff:cc:45:
         24:6a:fc:d8:4b:0f:61:d6:f0:3c:be:2f:4e:87:48:0d:51:a9:
         d4:15:75:d0:8a:61:b0:99:65:2f:0d:3d:69:93:0c:f3:39:52:
         8f:27:25:a0:d6:07:b3:aa:15:68:71:1d:d8:3a:c9:5d:15:10:
         50:3c:bf:1b:06:eb:66:58:33:f6:9e:05:c9:71:67:b3:44:61:
         45:10:38:14:98:2e:d5:d6:6d:e0:1f:36:c1:1a:27:f7:43:66:
         50:49:71:4e:ba:d9:45:98:e3:f1:7c:12:b5:36:3e:ac:21:9c:
         59:89:55:91:dc:98:a3:d0:22:bc:3c:ff:1a:6b:e7:b6:f4:a9:
         e9:e2:79:ac:73:2f:53:a7:5b:cb:27:1a:9c:1a:dc:be:6b:e3:
         5e:01:a1:01
-----BEGIN CERTIFICATE-----
MIIEJjCCAw6gAwIBAgIEEAAAtjANBgkqhkiG9w0BAQUFADBEMQswCQYDVQQGEwJE
RTEPMA0GA1UECAwGSGVzc2VuMRQwEgYDVQQKDAtwcml2YWN5aWRlYTEOMAwGA1UE
AwwFQ0EwMDEwHhcNMTUxMTI2MjIxMTAxWhcNMTYxMTI1MjIxMTAxWjBUMQswCQYD
VQQGEwJERTEPMA0GA1UECAwGSGVzc2VuMRQwEgYDVQQKDAtwcml2YWN5aWRlYTEe
MBwGA1UEAwwVcmVxdWVzdGVyLmxvY2FsZG9tYWluMIIBIjANBgkqhkiG9w0BAQEF
AAOCAQ8AMIIBCgKCAQEAzb4UT/rOAT9CIhsdnK/dktJ/22y3PjlDQ2sTA/EF9Ad0
vHZpKAuvGY7X/OPNxljyyn8IbVP8BwJEJMa0NEyMBP4zDkDiILoCc1r39U9jbszG
tt9UHTc5fVE2Jl+93D+oi2uirrad1iHn30G4eigqaEjKqC3t4elGXlpybbSEOIeR
/ZQRCyiExsIvKvsB+TZ6CXXRM4g8c0FbyL+UiXCh8MC5LlBTHrEXZGn0LYHgqQ0O
Mum6VYqF8RtvSXm0f4jDDT5UiJs9HziMBPPuamMr9cbbtIOqxHhBOn1L4cg+ccob
YVnqxsTKMl7J6b8SKebGw2P+oFXaevFgmE0m7fpwLQIDAQABo4IBDjCCAQowCwYD
VR0PBAQDAgWgMAkGA1UdEwQCMAAwEQYJYIZIAYb4QgEBBAQDAgZAMDMGCWCGSAGG
+EIBDQQmFiRPcGVuU1NMIEdlbmVyYXRlZCBTZXJ2ZXIgQ2VydGlmaWNhdGUwHQYD
VR0OBBYEFFM/7V0JB7Nle6tFySRbCXeACpbtMHQGA1UdIwRtMGuAFPSnwMyRRq9k
85HyJ/jIsm+KhzJzoUikRjBEMQswCQYDVQQGEwJERTEPMA0GA1UECAwGSGVzc2Vu
MRQwEgYDVQQKDAtwcml2YWN5aWRlYTEOMAwGA1UEAwwFQ0EwMDGCCQD7yOusg80S
BzATBgNVHSUEDDAKBggrBgEFBQcDATANBgkqhkiG9w0BAQUFAAOCAQEAl0vdr+RJ
oxq/8FcAQaz4hllzyqGphqh2WGBJc0AZ4ez/iNEoW5hsT5ZEpW4XWsbqxSl6Zxy5
k6kcc0M5xIAHhCJZGikeG/XD2ey00OPVnDUskqVjVOwFPpl8ynzu472vTHjuC7Qh
s4xf/8xFJGr82EsPYdbwPL4vTodIDVGp1BV10IphsJllLw09aZMM8zlSjycloNYH
s6oVaHEd2DrJXRUQUDy/GwbrZlgz9p4FyXFns0RhRRA4FJgu1dZt4B82wRon90Nm
UElxTrrZRZjj8XwStTY+rCGcWYlVkdyYo9AivDz/GmvntvSp6eJ5rHMvU6dbyyca
nBrcvmvjXgGhAQ==
-----END CERTIFICATE-----
