Certificate:
    Data:
        Version: 3 (0x2)
        Serial Number: 268435659 (0x100000cb)
    Signature Algorithm: sha1WithRSAEncryption
        Issuer: C=DE, ST=Hessen, O=privacyidea, CN=CA001
        Validity
            Not Before: Jan 22 10:42:29 2017 GMT
            Not After : Jan 22 10:42:29 2018 GMT
        Subject: C=DE, ST=Hessen, O=privacyidea, CN=usercert
        Subject Public Key Info:
            Public Key Algorithm: rsaEncryption
                Public-Key: (2048 bit)
                Modulus:
                    00:dc:2f:d1:5f:29:97:d4:7c:c3:53:c8:30:bd:4b:
                    67:70:2c:24:6b:b8:5e:eb:21:7a:48:12:56:7c:81:
                    5c:48:75:b6:68:eb:f6:f2:98:4e:50:51:d1:7f:6c:
                    73:f3:0a:a7:ae:be:48:5e:e5:d6:e1:d9:2a:7c:32:
                    6e:4e:fd:08:f6:5a:54:49:23:73:c3:b9:07:18:d1:
                    ef:b3:ac:f8:8a:dc:94:96:a4:90:3a:8e:74:df:e6:
                    0d:37:1b:bd:5b:b7:25:1a:56:39:da:6f:91:aa:5e:
                    1c:74:f3:f9:7c:14:01:83:12:65:76:c7:bb:fe:36:
                    5b:95:e9:72:65:83:ed:3e:98:30:71:fa:87:dd:a3:
                    36:5a:30:03:2e:26:e0:61:d1:bf:02:3f:b6:06:1f:
                    4a:89:28:1c:5c:a2:ff:4e:be:94:e6:8c:e0:da:82:
                    f1:9d:29:32:48:30:73:b4:04:f6:42:1e:be:f7:e2:
                    32:32:27:3c:9d:89:2f:70:3e:85:9a:6f:5c:c5:09:
                    c0:8c:32:2f:72:22:c9:d2:95:1f:b6:ac:72:60:72:
                    b7:82:4d:6b:ce:5b:e3:00:d0:d2:2f:58:c6:e0:10:
                    e5:51:ca:4d:3b:2e:e6:7e:ab:84:d6:56:f1:93:35:
                    a0:93:64:26:81:75:2f:91:b5:16:06:38:0b:db:cc:
                    2d:07
                Exponent: 65537 (0x10001)
        X509v3 extensions:
            X509v3 Key Usage: 
                Digital Signature, Key Encipherment
            X509v3 Basic Constraints: 
                CA:FALSE
            Netscape Cert Type: 
                SSL Server
            Netscape Comment: 
                OpenSSL Generated Server Certificate
            X509v3 Subject Key Identifier: 
                FC:14:D1:F0:4B:8D:00:90:F2:F5:B8:71:9E:4E:97:C3:92:54:AD:0B
            X509v3 Authority Key Identifier: 
                keyid:F4:A7:C0:CC:91:46:AF:64:F3:91:F2:27:F8:C8:B2:6F:8A:87:32:73
                DirName:/C=DE/ST=Hessen/O=privacyidea/CN=CA001
                serial:FB:C8:EB:AC:83:CD:12:07

            X509v3 Extended Key Usage: 
                TLS Web Server Authentication
    Signature Algorithm: sha1WithRSAEncryption
         52:22:c2:99:1c:e5:c7:1b:e5:81:dc:b8:1a:9e:ac:9b:fd:49:
         22:c4:bf:b2:da:16:69:71:a8:c4:93:20:5c:28:9b:c9:42:59:
         f8:e5:b1:e4:c5:79:d9:5b:58:18:e6:70:f8:28:45:01:a7:25:
         b8:8f:75:32:a2:4c:25:0b:58:82:a0:64:2b:98:59:a1:2d:3d:
         b1:80:b7:e4:dc:57:48:9d:74:c0:94:7f:4a:ba:ac:11:01:c3:
         b6:fd:73:9c:5c:4b:2c:b2:7a:71:2e:f3:f4:d9:b4:10:0f:bf:
         9c:92:3f:fc:e9:2a:23:ab:e8:b8:79:ed:19:57:c6:06:51:d1:
         75:94:d9:e5:e1:e3:b2:88:c4:9e:66:ba:28:e4:a2:c6:08:0c:
         e5:b4:f0:6d:8f:eb:17:09:5a:e7:5c:74:e1:3b:79:5f:a2:cc:
         7c:b7:45:0a:73:bc:f9:0f:c4:22:1f:fb:90:38:0b:d4:52:8e:
         01:aa:a7:30:1e:46:98:6c:74:fc:fd:72:41:cf:06:bc:70:d9:
         1f:4c:f5:58:95:b5:7b:b9:e9:66:d1:b3:11:b5:48:99:48:18:
         23:37:33:60:6b:4a:5f:f6:92:06:f7:68:e7:90:06:67:d0:b7:
         15:eb:74:92:15:38:5b:19:0f:64:6a:d0:45:1e:56:23:e4:f1:
         f9:3e:d9:0d
-----BEGIN CERTIFICATE-----
MIIEGTCCAwGgAwIBAgIEEAAAyzANBgkqhkiG9w0BAQUFADBEMQswCQYDVQQGEwJE
RTEPMA0GA1UECAwGSGVzc2VuMRQwEgYDVQQKDAtwcml2YWN5aWRlYTEOMAwGA1UE
AwwFQ0EwMDEwHhcNMTcwMTIyMTA0MjI5WhcNMTgwMTIyMTA0MjI5WjBHMQswCQYD
VQQGEwJERTEPMA0GA1UECAwGSGVzc2VuMRQwEgYDVQQKDAtwcml2YWN5aWRlYTER
MA8GA1UEAwwIdXNlcmNlcnQwggEiMA0GCSqGSIb3DQEBAQUAA4IBDwAwggEKAoIB
AQDcL9FfKZfUfMNTyDC9S2dwLCRruF7rIXpIElZ8gVxIdbZo6/bymE5QUdF/bHPz
Cqeuvkhe5dbh2Sp8Mm5O/Qj2WlRJI3PDuQcY0e+zrPiK3JSWpJA6jnTf5g03G71b
tyUaVjnab5GqXhx08/l8FAGDEmV2x7v+NluV6XJlg+0+mDBx+ofdozZaMAMuJuBh
0b8CP7YGH0qJKBxcov9OvpTmjODagvGdKTJIMHO0BPZCHr734jIyJzydiS9wPoWa
b1zFCcCMMi9yIsnSlR+2rHJgcreCTWvOW+MA0NIvWMbgEOVRyk07LuZ+q4TWVvGT
NaCTZCaBdS+RtRYGOAvbzC0HAgMBAAGjggEOMIIBCjALBgNVHQ8EBAMCBaAwCQYD
VR0TBAIwADARBglghkgBhvhCAQEEBAMCBkAwMwYJYIZIAYb4QgENBCYWJE9wZW5T
U0wgR2VuZXJhdGVkIFNlcnZlciBDZXJ0aWZpY2F0ZTAdBgNVHQ4EFgQU/BTR8EuN
AJDy9bhxnk6Xw5JUrQswdAYDVR0jBG0wa4AU9KfAzJFGr2TzkfIn+Miyb4qHMnOh
SKRGMEQxCzAJBgNVBAYTAkRFMQ8wDQYDVQQIDAZIZXNzZW4xFDASBgNVBAoMC3By
aXZhY3lpZGVhMQ4wDAYDVQQDDAVDQTAwMYIJAPvI66yDzRIHMBMGA1UdJQQMMAoG
CCsGAQUFBwMBMA0GCSqGSIb3DQEBBQUAA4IBAQBSIsKZHOXHG+WB3Lganqyb/Uki
xL+y2hZpcajEkyBcKJvJQln45bHkxXnZW1gY5nD4KEUBpyW4j3UyokwlC1iCoGQr
mFmhLT2xgLfk3FdInXTAlH9KuqwRAcO2/XOcXEsssnpxLvP02bQQD7+ckj/86Soj
q+i4ee0ZV8YGUdF1lNnl4eOyiMSeZroo5KLGCAzltPBtj+sXCVrnXHThO3lfosx8
t0UKc7z5D8QiH/uQOAvUUo4BqqcwHkaYbHT8/XJBzwa8cNkfTPVYlbV7uelm0bMR
tUiZSBgjNzNga0pf9pIG92jnkAZn0LcV63SSFThbGQ9katBFHlYj5PH5PtkN
-----END CERTIFICATE-----
