Certificate:
    Data:
        Version: 3 (0x2)
        Serial Number: 268435741 (0x1000011d)
    Signature Algorithm: sha256WithRSAEncryption
        Issuer: C=DE, ST=Hessen, O=privacyidea, CN=CA001
        Validity
            Not Before: Jan 10 00:07:47 2019 GMT
            Not After : Jan 10 00:07:47 2020 GMT
        Subject: CN=selfservice,CN=user,O=realm1/emailAddress=meine
        Subject Public Key Info:
            Public Key Algorithm: rsaEncryption
                Public-Key: (2048 bit)
                Modulus:
                    00:cf:3c:d4:33:0e:12:c4:e6:da:cd:b6:56:a1:1c:
                    26:bb:26:1c:8a:4a:73:a8:58:8a:b6:1e:b3:8b:99:
                    d2:1d:07:c2:92:89:79:c0:69:d8:c8:df:28:61:98:
                    1e:b3:fe:ae:2b:bd:78:a9:f7:6e:47:dc:a3:a0:16:
                    8c:85:02:c1:4e:92:fd:72:6e:f0:c8:03:29:9b:b8:
                    00:6e:c0:83:95:c8:34:20:36:9c:b3:e5:e4:e6:76:
                    73:a3:1a:ad:40:96:e0:53:54:00:ec:76:79:9a:c6:
                    0d:7e:b6:bd:29:ec:83:f3:cb:89:a4:cb:6c:00:ba:
                    0c:c5:78:0f:ff:69:b8:94:f4:04:70:43:3f:d8:9e:
                    d7:a7:fb:5d:ce:75:8e:da:e7:c4:07:b1:9d:de:6f:
                    88:4b:b6:4d:9a:cf:f9:bc:fa:9f:cd:32:6d:f6:3a:
                    0b:0d:23:42:78:ec:97:42:bf:0e:4d:60:56:e1:d3:
                    02:f2:19:cb:84:57:90:e5:70:a1:a2:83:35:86:e2:
                    da:86:9f:f9:8a:c4:79:b3:52:28:da:cb:bb:34:ca:
                    d3:da:91:4a:cf:8d:76:a2:b2:6b:9b:f9:96:fd:09:
                    2a:da:11:23:4d:f0:cb:d6:b2:b1:0e:12:6c:9a:19:
                    65:98:87:ca:e4:ee:24:ce:44:ac:90:8f:9d:1b:c5:
                    2a:9d
                Exponent: 65537 (0x10001)
        X509v3 extensions:
            X509v3 Key Usage: 
                Digital Signature, Key Encipherment
            X509v3 Basic Constraints: 
                CA:FALSE
            Netscape Cert Type: 
                SSL Server
            Netscape Comment: 
                OpenSSL Generated Server Certificate
            X509v3 Subject Key Identifier: 
                4D:07:90:AD:FF:1D:0D:E7:1A:DD:D6:2E:FA:BA:34:CB:AA:1F:24:C6
            X509v3 Authority Key Identifier: 
                keyid:F4:A7:C0:CC:91:46:AF:64:F3:91:F2:27:F8:C8:B2:6F:8A:87:32:73
                DirName:/C=DE/ST=Hessen/O=privacyidea/CN=CA001
                serial:FB:C8:EB:AC:83:CD:12:07

            X509v3 Extended Key Usage: 
                TLS Web Server Authentication
    Signature Algorithm: sha256WithRSAEncryption
         a9:6d:bc:5c:f0:1c:f6:f4:ff:6f:22:cc:2b:10:4c:0b:5e:92:
         66:c8:c9:02:6b:f9:0f:d0:71:39:25:f6:2a:1a:b9:a4:27:91:
         8f:fd:92:e1:2a:b6:3e:8e:be:54:7a:38:11:f4:a4:82:37:55:
         f5:e3:c5:23:90:a7:40:af:e6:32:c6:90:01:ee:b5:b3:63:42:
         16:6c:5c:ff:70:5c:b3:61:ee:71:1c:86:20:41:8b:ed:0a:03:
         a4:62:85:94:67:70:15:e0:ab:d8:d1:3e:d2:03:56:f6:12:10:
         b2:c0:f0:85:ca:9f:7f:b8:ac:b4:69:7c:8a:58:ae:31:b0:2a:
         22:b9:50:d0:f7:1c:63:42:2d:fe:de:88:17:22:ef:8f:83:a7:
         61:cb:be:9c:11:5e:60:eb:84:75:34:a3:d0:2f:68:15:c8:34:
         7d:b9:53:bc:88:80:1a:3a:ea:1d:08:d1:c9:15:78:1b:4b:11:
         91:98:69:1a:62:d3:16:59:3a:4c:e5:b9:e7:36:04:f1:04:0f:
         e5:6c:98:b5:d8:32:60:c7:18:5b:21:8a:da:83:76:7e:8e:c7:
         9b:07:a3:bc:2c:22:8a:fb:71:9f:1d:51:af:0d:20:69:68:48:
         1e:1d:c1:db:c3:dc:bd:7f:55:00:93:a0:60:b3:ba:5a:57:1c:
         fa:b9:79:33
-----BEGIN CERTIFICATE-----
MIIEDzCCAvegAwIBAgIEEAABHTANBgkqhkiG9w0BAQsFADBEMQswCQYDVQQGEwJE
RTEPMA0GA1UECAwGSGVzc2VuMRQwEgYDVQQKDAtwcml2YWN5aWRlYTEOMAwGA1UE
AwwFQ0EwMDEwHhcNMTkwMTEwMDAwNzQ3WhcNMjAwMTEwMDAwNzQ3WjA9MSUwIwYD
VQQDDBxzZWxmc2VydmljZSxDTj11c2VyLE89cmVhbG0xMRQwEgYJKoZIhvcNAQkB
FgVtZWluZTCCASIwDQYJKoZIhvcNAQEBBQADggEPADCCAQoCggEBAM881DMOEsTm
2s22VqEcJrsmHIpKc6hYirYes4uZ0h0HwpKJecBp2MjfKGGYHrP+riu9eKn3bkfc
o6AWjIUCwU6S/XJu8MgDKZu4AG7Ag5XINCA2nLPl5OZ2c6MarUCW4FNUAOx2eZrG
DX62vSnsg/PLiaTLbAC6DMV4D/9puJT0BHBDP9ie16f7Xc51jtrnxAexnd5viEu2
TZrP+bz6n80ybfY6Cw0jQnjsl0K/Dk1gVuHTAvIZy4RXkOVwoaKDNYbi2oaf+YrE
ebNSKNrLuzTK09qRSs+NdqKya5v5lv0JKtoRI03wy9aysQ4SbJoZZZiHyuTuJM5E
rJCPnRvFKp0CAwEAAaOCAQ4wggEKMAsGA1UdDwQEAwIFoDAJBgNVHRMEAjAAMBEG
CWCGSAGG+EIBAQQEAwIGQDAzBglghkgBhvhCAQ0EJhYkT3BlblNTTCBHZW5lcmF0
ZWQgU2VydmVyIENlcnRpZmljYXRlMB0GA1UdDgQWBBRNB5Ct/x0N5xrd1i76ujTL
qh8kxjB0BgNVHSMEbTBrgBT0p8DMkUavZPOR8if4yLJviocyc6FIpEYwRDELMAkG
A1UEBhMCREUxDzANBgNVBAgMBkhlc3NlbjEUMBIGA1UECgwLcHJpdmFjeWlkZWEx
DjAMBgNVBAMMBUNBMDAxggkA+8jrrIPNEgcwEwYDVR0lBAwwCgYIKwYBBQUHAwEw
DQYJKoZIhvcNAQELBQADggEBAKltvFzwHPb0/28izCsQTAtekmbIyQJr+Q/QcTkl
9ioauaQnkY/9kuEqtj6OvlR6OBH0pII3VfXjxSOQp0Cv5jLGkAHutbNjQhZsXP9w
XLNh7nEchiBBi+0KA6RihZRncBXgq9jRPtIDVvYSELLA8IXKn3+4rLRpfIpYrjGw
KiK5UND3HGNCLf7eiBci74+Dp2HLvpwRXmDrhHU0o9AvaBXINH25U7yIgBo66h0I
0ckVeBtLEZGYaRpi0xZZOkzluec2BPEED+VsmLXYMmDHGFshitqDdn6Ox5sHo7ws
Ior7cZ8dUa8NIGloSB4dwdvD3L1/VQCToGCzulpXHPq5eTM=
-----END CERTIFICATE-----
