Certificate:
    Data:
        Version: 3 (0x2)
        Serial Number: 268435683 (0x100000e3)
        Signature Algorithm: sha256WithRSAEncryption
        Issuer: C=DE, ST=Hessen, O=privacyidea, CN=CA001
        Validity
            Not Before: Oct 24 09:44:16 2019 GMT
            Not After : Oct 23 09:44:16 2020 GMT
        Subject: OU=realm1, CN=cornelius/emailAddress=user@localhost.localdomain
        Subject Public Key Info:
            Public Key Algorithm: rsaEncryption
                RSA Public-Key: (2048 bit)
                Modulus:
                    00:be:50:c6:bb:0e:82:b6:b2:75:71:77:97:11:2e:
                    9f:5f:1b:8b:9a:ef:ae:8d:94:b3:f3:e9:3a:5f:ee:
                    5f:5a:7f:e2:82:29:71:43:4f:f0:fb:6b:e6:34:d9:
                    0b:ab:82:f7:1d:51:ea:8a:ba:ad:36:ea:f1:24:89:
                    bf:a3:ca:d4:98:4c:ae:f2:1e:dc:76:60:53:72:70:
                    3b:c0:ce:b1:21:42:a4:de:6b:d1:48:00:24:5a:75:
                    dc:22:4a:ea:1d:dd:cf:18:d1:22:aa:b9:a7:24:65:
                    1f:a0:4a:f0:96:5f:1c:a5:d2:98:2b:57:6c:4e:79:
                    2b:59:f4:e2:81:2a:76:5d:c7:b1:39:b0:1b:0c:34:
                    de:6d:37:b0:50:8a:ab:7e:f8:15:89:64:23:f4:29:
                    0b:10:3f:4a:d2:af:f0:01:ca:41:f7:2c:07:ad:03:
                    d7:99:6b:2b:2c:c4:20:0a:38:b7:ee:87:87:31:de:
                    44:95:31:35:10:9b:0e:71:e7:68:44:7a:4a:60:82:
                    05:23:02:6a:ea:86:03:28:27:69:a4:cd:0b:a0:a8:
                    0e:23:58:89:b6:6b:55:29:0f:c2:64:20:95:85:26:
                    91:c5:d7:61:86:3e:35:a6:4e:bd:af:df:9f:97:7d:
                    ef:a6:9e:92:ef:37:c7:ae:fa:d9:16:66:3a:1a:a8:
                    2b:47
                Exponent: 65537 (0x10001)
        X509v3 extensions:
            X509v3 Key Usage: 
                Digital Signature, Key Encipherment
            X509v3 Basic Constraints: 
                CA:FALSE
            Netscape Cert Type: 
                SSL Server
            Netscape Comment: 
                OpenSSL Generated Server Certificate
            X509v3 Subject Key Identifier: 
                EB:DE:77:36:43:C4:FE:83:A8:97:89:D5:F4:82:BF:6D:4A:95:F5:F3
            X509v3 Authority Key Identifier: 
                keyid:F4:A7:C0:CC:91:46:AF:64:F3:91:F2:27:F8:C8:B2:6F:8A:87:32:73
                DirName:/C=DE/ST=Hessen/O=privacyidea/CN=CA001
                serial:FB:C8:EB:AC:83:CD:12:07

            X509v3 Extended Key Usage: 
                TLS Web Server Authentication
    Signature Algorithm: sha256WithRSAEncryption
         90:22:bd:99:89:6b:3c:59:50:b1:77:cf:4f:6f:b4:7f:37:65:
         a8:b1:75:4c:85:20:c1:00:83:36:06:c7:ad:08:bc:9d:0c:3c:
         65:e7:07:30:5c:a8:27:bb:8e:4c:9f:44:86:37:20:d8:fa:eb:
         54:40:0a:f3:58:ce:41:92:83:93:4c:ec:9f:77:b7:82:54:e4:
         25:46:f3:76:3b:c1:4a:98:d3:53:80:ce:39:a1:a5:5b:27:2f:
         38:71:b3:aa:87:be:5f:69:b7:27:c2:25:0e:80:87:b9:1f:9c:
         20:f3:ee:86:38:19:07:d2:e5:2a:0b:e9:da:77:f3:08:fc:4e:
         50:d5:48:5b:e2:9a:2f:3e:7a:3c:81:47:15:24:a5:1d:35:b7:
         27:a5:75:5f:9d:15:3a:74:bf:70:1f:71:0b:96:3b:a4:8f:de:
         eb:d9:78:a9:69:8d:3c:b8:f9:63:29:b9:9e:03:d4:d7:78:a9:
         40:60:e3:bc:89:99:0c:58:67:70:0f:e8:a2:19:9a:40:84:53:
         d5:55:56:31:e4:70:f1:01:a8:5f:a0:e8:fb:b3:dc:2a:f4:69:
         8f:22:a6:2d:a8:5a:c4:fc:db:92:e8:a6:67:21:24:45:09:0a:
         2d:6b:d2:43:a1:6a:8e:07:16:8e:8b:db:76:c0:62:79:43:64:
         7c:1a:88:39
-----BEGIN CERTIFICATE-----
MIIEIjCCAwqgAwIBAgIEEAAA4zANBgkqhkiG9w0BAQsFADBEMQswCQYDVQQGEwJE
RTEPMA0GA1UECAwGSGVzc2VuMRQwEgYDVQQKDAtwcml2YWN5aWRlYTEOMAwGA1UE
AwwFQ0EwMDEwHhcNMTkxMDI0MDk0NDE2WhcNMjAxMDIzMDk0NDE2WjBQMQ8wDQYD
VQQLDAZyZWFsbTExEjAQBgNVBAMMCWNvcm5lbGl1czEpMCcGCSqGSIb3DQEJARYa
dXNlckBsb2NhbGhvc3QubG9jYWxkb21haW4wggEiMA0GCSqGSIb3DQEBAQUAA4IB
DwAwggEKAoIBAQC+UMa7DoK2snVxd5cRLp9fG4ua766NlLPz6Tpf7l9af+KCKXFD
T/D7a+Y02QurgvcdUeqKuq026vEkib+jytSYTK7yHtx2YFNycDvAzrEhQqTea9FI
ACRaddwiSuod3c8Y0SKquackZR+gSvCWXxyl0pgrV2xOeStZ9OKBKnZdx7E5sBsM
NN5tN7BQiqt++BWJZCP0KQsQP0rSr/ABykH3LAetA9eZayssxCAKOLfuh4cx3kSV
MTUQmw5x52hEekpgggUjAmrqhgMoJ2mkzQugqA4jWIm2a1UpD8JkIJWFJpHF12GG
PjWmTr2v35+Xfe+mnpLvN8eu+tkWZjoaqCtHAgMBAAGjggEOMIIBCjALBgNVHQ8E
BAMCBaAwCQYDVR0TBAIwADARBglghkgBhvhCAQEEBAMCBkAwMwYJYIZIAYb4QgEN
BCYWJE9wZW5TU0wgR2VuZXJhdGVkIFNlcnZlciBDZXJ0aWZpY2F0ZTAdBgNVHQ4E
FgQU6953NkPE/oOol4nV9IK/bUqV9fMwdAYDVR0jBG0wa4AU9KfAzJFGr2TzkfIn
+Miyb4qHMnOhSKRGMEQxCzAJBgNVBAYTAkRFMQ8wDQYDVQQIDAZIZXNzZW4xFDAS
BgNVBAoMC3ByaXZhY3lpZGVhMQ4wDAYDVQQDDAVDQTAwMYIJAPvI66yDzRIHMBMG
A1UdJQQMMAoGCCsGAQUFBwMBMA0GCSqGSIb3DQEBCwUAA4IBAQCQIr2ZiWs8WVCx
d89Pb7R/N2WosXVMhSDBAIM2BsetCLydDDxl5wcwXKgnu45Mn0SGNyDY+utUQArz
WM5BkoOTTOyfd7eCVOQlRvN2O8FKmNNTgM45oaVbJy84cbOqh75fabcnwiUOgIe5
H5wg8+6GOBkH0uUqC+nad/MI/E5Q1Uhb4povPno8gUcVJKUdNbcnpXVfnRU6dL9w
H3ELljukj97r2XipaY08uPljKbmeA9TXeKlAYOO8iZkMWGdwD+iiGZpAhFPVVVYx
5HDxAahfoOj7s9wq9GmPIqYtqFrE/NuS6KZnISRFCQota9JDoWqOBxaOi9t2wGJ5
Q2R8Gog5
-----END CERTIFICATE-----
