Certificate:
    Data:
        Version: 3 (0x2)
        Serial Number: 268435668 (0x100000d4)
        Signature Algorithm: sha256WithRSAEncryption
        Issuer: C=DE, ST=Hessen, O=privacyidea, CN=CA001
        Validity
            Not Before: Nov 29 13:08:02 2019 GMT
            Not After : Nov 28 13:08:02 2020 GMT
        Subject: CN=Steve Test/emailAddress=steve@openssl.org
        Subject Public Key Info:
            Public Key Algorithm: rsaEncryption
                RSA Public-Key: (2048 bit)
                Modulus:
                    00:d2:81:89:20:51:48:0f:73:f4:11:32:24:d5:1f:
                    1c:fd:5c:f5:b6:e6:c5:f0:52:81:dc:d2:af:66:4a:
                    7c:93:31:61:5c:af:d1:6d:06:70:03:60:7c:72:0c:
                    88:dd:49:cd:9e:02:6c:d2:5a:d7:53:0f:f3:da:be:
                    69:64:b5:0f:0c:00:e3:b3:50:47:a3:b3:9b:ba:13:
                    50:d6:58:5a:4b:ab:39:e0:11:ca:0a:27:67:03:78:
                    22:66:6d:92:1e:1b:5c:49:ae:e6:6b:d1:8e:3b:9d:
                    06:d3:c6:ac:4d:53:43:10:ab:e8:96:c1:87:82:97:
                    99:8f:20:d3:99:12:37:31:84:e1:8a:ff:29:03:5f:
                    22:90:3e:7f:9b:e0:20:c1:ad:dc:ae:4c:39:1a:31:
                    96:17:02:8c:b2:d9:b4:0d:20:12:9b:7d:86:54:fd:
                    33:fd:c1:2a:62:46:f8:60:96:cf:6e:01:6f:22:df:
                    13:47:e7:97:ec:05:72:23:a3:62:f8:fa:ef:ac:9c:
                    72:f0:37:cb:2f:37:cf:90:a8:27:51:86:c6:d7:78:
                    08:8f:7e:25:a2:15:70:a2:fb:1c:b6:15:5e:a0:97:
                    8b:81:4c:09:28:8a:27:3b:94:bc:71:db:5b:71:37:
                    9a:2b:16:e0:6f:b5:c9:f5:4b:4f:20:ba:65:cf:af:
                    ad:ad
                Exponent: 65537 (0x10001)
        X509v3 extensions:
            X509v3 Key Usage: 
                Digital Signature, Key Encipherment
            X509v3 Basic Constraints: 
                CA:FALSE
            Netscape Cert Type: 
                SSL Server
            Netscape Comment: 
                OpenSSL Generated Server Certificate
            X509v3 Subject Key Identifier: 
                E5:25:6D:3E:AF:0D:DD:3F:4C:F2:45:19:39:D5:14:DB:7E:9C:C0:AD
            X509v3 Authority Key Identifier: 
                keyid:F4:A7:C0:CC:91:46:AF:64:F3:91:F2:27:F8:C8:B2:6F:8A:87:32:73
                DirName:/C=DE/ST=Hessen/O=privacyidea/CN=CA001
                serial:FB:C8:EB:AC:83:CD:12:07

            X509v3 Extended Key Usage: 
                TLS Web Server Authentication
    Signature Algorithm: sha256WithRSAEncryption
         11:97:89:0d:db:cb:35:c8:60:44:2c:9d:af:ee:d6:8d:88:b9:
         e3:ad:8c:c6:0d:89:a7:9f:0d:8c:9d:7f:c3:7b:1c:08:18:be:
         2f:26:2e:9d:aa:39:bd:2b:8f:a4:cb:87:ff:07:b2:42:0d:42:
         6f:21:fe:ac:f5:9f:64:d6:a6:97:85:b0:cf:61:17:fd:86:53:
         00:a6:de:d8:18:d9:b1:7f:d1:26:2f:eb:30:2f:98:64:7d:55:
         bf:e8:79:a6:fd:04:99:cc:8a:1e:cd:c1:b6:86:5f:87:82:9f:
         61:ee:1a:4c:76:c4:c6:04:e8:25:fa:02:a1:ab:00:18:a2:a5:
         3e:b0:61:8e:af:fa:4d:dc:01:c2:9a:a7:15:bb:54:ce:21:f8:
         87:cb:09:8d:cf:52:fd:f6:ce:1f:5f:70:69:f4:44:16:48:d7:
         74:96:8d:b4:02:29:f5:25:61:5b:10:52:58:d4:1b:68:9b:dc:
         43:4b:db:cd:8d:05:5f:e0:e3:65:ec:71:d0:25:6f:8f:13:57:
         99:f7:b7:60:59:a5:e0:ab:31:85:05:d4:a3:fd:74:a1:dd:03:
         f2:96:71:a4:82:41:af:55:3d:b6:35:6b:80:0e:e1:e4:1d:6e:
         e4:79:a1:81:57:42:62:78:e0:78:e9:24:c7:94:d0:2f:ba:bb:
         37:90:de:5e
-----BEGIN CERTIFICATE-----
MIIECTCCAvGgAwIBAgIEEAAA1DANBgkqhkiG9w0BAQsFADBEMQswCQYDVQQGEwJE
RTEPMA0GA1UECAwGSGVzc2VuMRQwEgYDVQQKDAtwcml2YWN5aWRlYTEOMAwGA1UE
AwwFQ0EwMDEwHhcNMTkxMTI5MTMwODAyWhcNMjAxMTI4MTMwODAyWjA3MRMwEQYD
VQQDDApTdGV2ZSBUZXN0MSAwHgYJKoZIhvcNAQkBFhFzdGV2ZUBvcGVuc3NsLm9y
ZzCCASIwDQYJKoZIhvcNAQEBBQADggEPADCCAQoCggEBANKBiSBRSA9z9BEyJNUf
HP1c9bbmxfBSgdzSr2ZKfJMxYVyv0W0GcANgfHIMiN1JzZ4CbNJa11MP89q+aWS1
DwwA47NQR6Ozm7oTUNZYWkurOeARygonZwN4ImZtkh4bXEmu5mvRjjudBtPGrE1T
QxCr6JbBh4KXmY8g05kSNzGE4Yr/KQNfIpA+f5vgIMGt3K5MORoxlhcCjLLZtA0g
Ept9hlT9M/3BKmJG+GCWz24BbyLfE0fnl+wFciOjYvj676yccvA3yy83z5CoJ1GG
xtd4CI9+JaIVcKL7HLYVXqCXi4FMCSiKJzuUvHHbW3E3misW4G+1yfVLTyC6Zc+v
ra0CAwEAAaOCAQ4wggEKMAsGA1UdDwQEAwIFoDAJBgNVHRMEAjAAMBEGCWCGSAGG
+EIBAQQEAwIGQDAzBglghkgBhvhCAQ0EJhYkT3BlblNTTCBHZW5lcmF0ZWQgU2Vy
dmVyIENlcnRpZmljYXRlMB0GA1UdDgQWBBTlJW0+rw3dP0zyRRk51RTbfpzArTB0
BgNVHSMEbTBrgBT0p8DMkUavZPOR8if4yLJviocyc6FIpEYwRDELMAkGA1UEBhMC
REUxDzANBgNVBAgMBkhlc3NlbjEUMBIGA1UECgwLcHJpdmFjeWlkZWExDjAMBgNV
BAMMBUNBMDAxggkA+8jrrIPNEgcwEwYDVR0lBAwwCgYIKwYBBQUHAwEwDQYJKoZI
hvcNAQELBQADggEBABGXiQ3byzXIYEQsna/u1o2IueOtjMYNiaefDYydf8N7HAgY
vi8mLp2qOb0rj6TLh/8HskINQm8h/qz1n2TWppeFsM9hF/2GUwCm3tgY2bF/0SYv
6zAvmGR9Vb/oeab9BJnMih7NwbaGX4eCn2HuGkx2xMYE6CX6AqGrABiipT6wYY6v
+k3cAcKapxW7VM4h+IfLCY3PUv32zh9fcGn0RBZI13SWjbQCKfUlYVsQUljUG2ib
3ENL282NBV/g42XscdAlb48TV5n3t2BZpeCrMYUF1KP9dKHdA/KWcaSCQa9VPbY1
a4AO4eQdbuR5oYFXQmJ44HjpJMeU0C+6uzeQ3l4=
-----END CERTIFICATE-----
