Certificate:
    Data:
        Version: 3 (0x2)
        Serial Number: 268435728 (0x10000110)
    Signature Algorithm: sha256WithRSAEncryption
        Issuer: C=DE, ST=Hessen, O=privacyidea, CN=CA001
        Validity
            Not Before: Jan  9 23:32:42 2019 GMT
            Not After : Jan  9 23:32:42 2020 GMT
        Subject: C=DE, ST=Hessen, O=privacyidea, CN=usercert
        Subject Public Key Info:
            Public Key Algorithm: rsaEncryption
                Public-Key: (2048 bit)
                Modulus:
                    00:dc:2f:d1:5f:29:97:d4:7c:c3:53:c8:30:bd:4b:
                    67:70:2c:24:6b:b8:5e:eb:21:7a:48:12:56:7c:81:
                    5c:48:75:b6:68:eb:f6:f2:98:4e:50:51:d1:7f:6c:
                    73:f3:0a:a7:ae:be:48:5e:e5:d6:e1:d9:2a:7c:32:
                    6e:4e:fd:08:f6:5a:54:49:23:73:c3:b9:07:18:d1:
                    ef:b3:ac:f8:8a:dc:94:96:a4:90:3a:8e:74:df:e6:
                    0d:37:1b:bd:5b:b7:25:1a:56:39:da:6f:91:aa:5e:
                    1c:74:f3:f9:7c:14:01:83:12:65:76:c7:bb:fe:36:
                    5b:95:e9:72:65:83:ed:3e:98:30:71:fa:87:dd:a3:
                    36:5a:30:03:2e:26:e0:61:d1:bf:02:3f:b6:06:1f:
                    4a:89:28:1c:5c:a2:ff:4e:be:94:e6:8c:e0:da:82:
                    f1:9d:29:32:48:30:73:b4:04:f6:42:1e:be:f7:e2:
                    32:32:27:3c:9d:89:2f:70:3e:85:9a:6f:5c:c5:09:
                    c0:8c:32:2f:72:22:c9:d2:95:1f:b6:ac:72:60:72:
                    b7:82:4d:6b:ce:5b:e3:00:d0:d2:2f:58:c6:e0:10:
                    e5:51:ca:4d:3b:2e:e6:7e:ab:84:d6:56:f1:93:35:
                    a0:93:64:26:81:75:2f:91:b5:16:06:38:0b:db:cc:
                    2d:07
                Exponent: 65537 (0x10001)
        X509v3 extensions:
            X509v3 Key Usage: 
                Digital Signature, Key Encipherment
            X509v3 Basic Constraints: 
                CA:FALSE
            Netscape Cert Type: 
                SSL Server
            Netscape Comment: 
                OpenSSL Generated Server Certificate
            X509v3 Subject Key Identifier: 
                FC:14:D1:F0:4B:8D:00:90:F2:F5:B8:71:9E:4E:97:C3:92:54:AD:0B
            X509v3 Authority Key Identifier: 
                keyid:F4:A7:C0:CC:91:46:AF:64:F3:91:F2:27:F8:C8:B2:6F:8A:87:32:73
                DirName:/C=DE/ST=Hessen/O=privacyidea/CN=CA001
                serial:FB:C8:EB:AC:83:CD:12:07

            X509v3 Extended Key Usage: 
                TLS Web Server Authentication
    Signature Algorithm: sha256WithRSAEncryption
         10:eb:d2:f1:90:52:89:6f:36:9d:7d:3d:98:37:89:ce:8c:e2:
         e5:85:59:e8:bd:2b:5e:2e:04:6d:2a:7a:59:ed:17:96:1a:ef:
         6b:16:cb:80:1a:ed:f0:7a:9b:f5:ad:eb:41:0c:07:90:e8:50:
         40:35:29:67:dc:1a:66:9f:bd:a7:8d:45:b6:32:11:8a:62:11:
         54:0b:fc:91:54:97:c3:e3:60:c4:d0:5f:83:54:e0:13:6f:b5:
         bf:84:ff:26:34:b0:9b:71:34:48:f9:33:7c:aa:6c:5b:ea:5e:
         07:4a:a7:4d:f6:41:fc:cc:53:45:5d:98:21:d6:ae:da:81:26:
         c9:6b:8f:28:76:56:16:ca:e7:00:7f:3c:6e:7e:4b:e1:c6:1d:
         a3:01:72:15:6e:a2:94:1a:7b:51:52:cf:e8:c6:6f:5b:62:f6:
         63:1c:24:71:6c:e0:36:d7:ed:48:d0:7a:53:a8:28:02:50:4d:
         ee:2d:14:9b:c2:79:d6:97:ae:a8:8a:26:ab:c2:2d:37:44:39:
         c2:ab:0d:12:54:af:63:a8:bb:73:2c:8d:1a:f8:cd:65:37:48:
         f4:96:4c:e8:ed:94:f6:29:a6:48:0b:f5:70:3b:8a:69:aa:00:
         89:8d:fa:a2:10:66:f1:4d:0f:e0:ba:d4:65:ac:3f:03:34:54:
         28:e9:cb:78
-----BEGIN CERTIFICATE-----
MIIEGTCCAwGgAwIBAgIEEAABEDANBgkqhkiG9w0BAQsFADBEMQswCQYDVQQGEwJE
RTEPMA0GA1UECAwGSGVzc2VuMRQwEgYDVQQKDAtwcml2YWN5aWRlYTEOMAwGA1UE
AwwFQ0EwMDEwHhcNMTkwMTA5MjMzMjQyWhcNMjAwMTA5MjMzMjQyWjBHMQswCQYD
VQQGEwJERTEPMA0GA1UECAwGSGVzc2VuMRQwEgYDVQQKDAtwcml2YWN5aWRlYTER
MA8GA1UEAwwIdXNlcmNlcnQwggEiMA0GCSqGSIb3DQEBAQUAA4IBDwAwggEKAoIB
AQDcL9FfKZfUfMNTyDC9S2dwLCRruF7rIXpIElZ8gVxIdbZo6/bymE5QUdF/bHPz
Cqeuvkhe5dbh2Sp8Mm5O/Qj2WlRJI3PDuQcY0e+zrPiK3JSWpJA6jnTf5g03G71b
tyUaVjnab5GqXhx08/l8FAGDEmV2x7v+NluV6XJlg+0+mDBx+ofdozZaMAMuJuBh
0b8CP7YGH0qJKBxcov9OvpTmjODagvGdKTJIMHO0BPZCHr734jIyJzydiS9wPoWa
b1zFCcCMMi9yIsnSlR+2rHJgcreCTWvOW+MA0NIvWMbgEOVRyk07LuZ+q4TWVvGT
NaCTZCaBdS+RtRYGOAvbzC0HAgMBAAGjggEOMIIBCjALBgNVHQ8EBAMCBaAwCQYD
VR0TBAIwADARBglghkgBhvhCAQEEBAMCBkAwMwYJYIZIAYb4QgENBCYWJE9wZW5T
U0wgR2VuZXJhdGVkIFNlcnZlciBDZXJ0aWZpY2F0ZTAdBgNVHQ4EFgQU/BTR8EuN
AJDy9bhxnk6Xw5JUrQswdAYDVR0jBG0wa4AU9KfAzJFGr2TzkfIn+Miyb4qHMnOh
SKRGMEQxCzAJBgNVBAYTAkRFMQ8wDQYDVQQIDAZIZXNzZW4xFDASBgNVBAoMC3By
aXZhY3lpZGVhMQ4wDAYDVQQDDAVDQTAwMYIJAPvI66yDzRIHMBMGA1UdJQQMMAoG
CCsGAQUFBwMBMA0GCSqGSIb3DQEBCwUAA4IBAQAQ69LxkFKJbzadfT2YN4nOjOLl
hVnovSteLgRtKnpZ7ReWGu9rFsuAGu3wepv1retBDAeQ6FBANSln3Bpmn72njUW2
MhGKYhFUC/yRVJfD42DE0F+DVOATb7W/hP8mNLCbcTRI+TN8qmxb6l4HSqdN9kH8
zFNFXZgh1q7agSbJa48odlYWyucAfzxufkvhxh2jAXIVbqKUGntRUs/oxm9bYvZj
HCRxbOA21+1I0HpTqCgCUE3uLRSbwnnWl66oiiarwi03RDnCqw0SVK9jqLtzLI0a
+M1lN0j0lkzo7ZT2KaZIC/VwO4ppqgCJjfqiEGbxTQ/gutRlrD8DNFQo6ct4
-----END CERTIFICATE-----
