Certificate:
    Data:
        Version: 3 (0x2)
        Serial Number: 268435647 (0x100000bf)
    Signature Algorithm: sha1WithRSAEncryption
        Issuer: C=DE, ST=Hessen, O=privacyidea, CN=CA001
        Validity
            Not Before: Dec 12 18:20:43 2015 GMT
            Not After : Dec 11 18:20:43 2016 GMT
        Subject: CN=Steve Test/emailAddress=steve@openssl.org
        Subject Public Key Info:
            Public Key Algorithm: rsaEncryption
                Public-Key: (2048 bit)
                Modulus:
                    00:d2:81:89:20:51:48:0f:73:f4:11:32:24:d5:1f:
                    1c:fd:5c:f5:b6:e6:c5:f0:52:81:dc:d2:af:66:4a:
                    7c:93:31:61:5c:af:d1:6d:06:70:03:60:7c:72:0c:
                    88:dd:49:cd:9e:02:6c:d2:5a:d7:53:0f:f3:da:be:
                    69:64:b5:0f:0c:00:e3:b3:50:47:a3:b3:9b:ba:13:
                    50:d6:58:5a:4b:ab:39:e0:11:ca:0a:27:67:03:78:
                    22:66:6d:92:1e:1b:5c:49:ae:e6:6b:d1:8e:3b:9d:
                    06:d3:c6:ac:4d:53:43:10:ab:e8:96:c1:87:82:97:
                    99:8f:20:d3:99:12:37:31:84:e1:8a:ff:29:03:5f:
                    22:90:3e:7f:9b:e0:20:c1:ad:dc:ae:4c:39:1a:31:
                    96:17:02:8c:b2:d9:b4:0d:20:12:9b:7d:86:54:fd:
                    33:fd:c1:2a:62:46:f8:60:96:cf:6e:01:6f:22:df:
                    13:47:e7:97:ec:05:72:23:a3:62:f8:fa:ef:ac:9c:
                    72:f0:37:cb:2f:37:cf:90:a8:27:51:86:c6:d7:78:
                    08:8f:7e:25:a2:15:70:a2:fb:1c:b6:15:5e:a0:97:
                    8b:81:4c:09:28:8a:27:3b:94:bc:71:db:5b:71:37:
                    9a:2b:16:e0:6f:b5:c9:f5:4b:4f:20:ba:65:cf:af:
                    ad:ad
                Exponent: 65537 (0x10001)
        X509v3 extensions:
            X509v3 Key Usage: 
                Digital Signature, Key Encipherment
            X509v3 Basic Constraints: 
                CA:FALSE
            Netscape Cert Type: 
                SSL Server
            Netscape Comment: 
                OpenSSL Generated Server Certificate
            X509v3 Subject Key Identifier: 
                E5:25:6D:3E:AF:0D:DD:3F:4C:F2:45:19:39:D5:14:DB:7E:9C:C0:AD
            X509v3 Authority Key Identifier: 
                keyid:F4:A7:C0:CC:91:46:AF:64:F3:91:F2:27:F8:C8:B2:6F:8A:87:32:73
                DirName:/C=DE/ST=Hessen/O=privacyidea/CN=CA001
                serial:FB:C8:EB:AC:83:CD:12:07

            X509v3 Extended Key Usage: 
                TLS Web Server Authentication
    Signature Algorithm: sha1WithRSAEncryption
         94:38:c4:44:b3:ae:b2:94:34:1f:21:16:ac:0a:02:51:b3:78:
         ec:12:8e:5c:bb:9e:c3:fc:a2:7c:2e:ef:be:97:ed:72:3e:7e:
         5e:1f:21:a7:78:7e:e7:73:c5:56:aa:0c:4d:ba:dc:b1:9d:1a:
         30:61:f5:74:4e:2d:90:95:61:7e:e5:b6:f1:51:bc:36:a5:50:
         db:fa:f3:90:19:89:42:80:6b:38:b2:22:3a:95:ad:1d:64:8a:
         9f:50:d7:d0:90:69:13:4b:59:ea:fe:d9:2a:a0:a4:ed:9c:d3:
         90:e9:74:b1:25:cf:84:37:1b:0d:b9:a5:c8:84:0d:f7:50:b2:
         b4:2e:73:67:d8:29:59:4b:f3:19:d1:21:91:63:c5:fd:b3:5b:
         3e:48:00:08:37:1f:6c:ec:c8:c4:a0:a1:60:49:45:77:a9:87:
         c2:83:e3:90:31:6a:f6:ea:89:dc:eb:a5:22:85:d8:85:f3:86:
         8b:0d:be:0e:50:78:77:b4:82:47:5d:25:74:8d:1d:b2:84:f9:
         6b:51:3a:73:5f:07:0a:1f:f0:b4:ed:63:83:57:6b:f7:1e:4c:
         73:58:31:5a:89:9b:2e:ae:00:3f:76:f3:ae:98:a7:65:df:cc:
         09:c7:58:0d:c5:51:92:d0:d4:65:9f:b9:72:92:5c:62:b3:05:
         08:30:e7:63
-----BEGIN CERTIFICATE-----
MIIECTCCAvGgAwIBAgIEEAAAvzANBgkqhkiG9w0BAQUFADBEMQswCQYDVQQGEwJE
RTEPMA0GA1UECAwGSGVzc2VuMRQwEgYDVQQKDAtwcml2YWN5aWRlYTEOMAwGA1UE
AwwFQ0EwMDEwHhcNMTUxMjEyMTgyMDQzWhcNMTYxMjExMTgyMDQzWjA3MRMwEQYD
VQQDEwpTdGV2ZSBUZXN0MSAwHgYJKoZIhvcNAQkBFhFzdGV2ZUBvcGVuc3NsLm9y
ZzCCASIwDQYJKoZIhvcNAQEBBQADggEPADCCAQoCggEBANKBiSBRSA9z9BEyJNUf
HP1c9bbmxfBSgdzSr2ZKfJMxYVyv0W0GcANgfHIMiN1JzZ4CbNJa11MP89q+aWS1
DwwA47NQR6Ozm7oTUNZYWkurOeARygonZwN4ImZtkh4bXEmu5mvRjjudBtPGrE1T
QxCr6JbBh4KXmY8g05kSNzGE4Yr/KQNfIpA+f5vgIMGt3K5MORoxlhcCjLLZtA0g
Ept9hlT9M/3BKmJG+GCWz24BbyLfE0fnl+wFciOjYvj676yccvA3yy83z5CoJ1GG
xtd4CI9+JaIVcKL7HLYVXqCXi4FMCSiKJzuUvHHbW3E3misW4G+1yfVLTyC6Zc+v
ra0CAwEAAaOCAQ4wggEKMAsGA1UdDwQEAwIFoDAJBgNVHRMEAjAAMBEGCWCGSAGG
+EIBAQQEAwIGQDAzBglghkgBhvhCAQ0EJhYkT3BlblNTTCBHZW5lcmF0ZWQgU2Vy
dmVyIENlcnRpZmljYXRlMB0GA1UdDgQWBBTlJW0+rw3dP0zyRRk51RTbfpzArTB0
BgNVHSMEbTBrgBT0p8DMkUavZPOR8if4yLJviocyc6FIpEYwRDELMAkGA1UEBhMC
REUxDzANBgNVBAgMBkhlc3NlbjEUMBIGA1UECgwLcHJpdmFjeWlkZWExDjAMBgNV
BAMMBUNBMDAxggkA+8jrrIPNEgcwEwYDVR0lBAwwCgYIKwYBBQUHAwEwDQYJKoZI
hvcNAQEFBQADggEBAJQ4xESzrrKUNB8hFqwKAlGzeOwSjly7nsP8onwu776X7XI+
fl4fIad4fudzxVaqDE263LGdGjBh9XROLZCVYX7ltvFRvDalUNv685AZiUKAaziy
IjqVrR1kip9Q19CQaRNLWer+2SqgpO2c05DpdLElz4Q3Gw25pciEDfdQsrQuc2fY
KVlL8xnRIZFjxf2zWz5IAAg3H2zsyMSgoWBJRXeph8KD45AxavbqidzrpSKF2IXz
hosNvg5QeHe0gkddJXSNHbKE+WtROnNfBwof8LTtY4NXa/ceTHNYMVqJmy6uAD92
866Yp2XfzAnHWA3FUZLQ1GWfuXKSXGKzBQgw52M=
-----END CERTIFICATE-----
