Certificate:
    Data:
        Version: 3 (0x2)
        Serial Number: 268435753 (0x10000129)
    Signature Algorithm: sha256WithRSAEncryption
        Issuer: C=DE, ST=Hessen, O=privacyidea, CN=CA001
        Validity
            Not Before: Jan 10 08:29:04 2019 GMT
            Not After : Jan 10 08:29:04 2020 GMT
        Subject: CN=Steve Test/emailAddress=steve@openssl.org
        Subject Public Key Info:
            Public Key Algorithm: rsaEncryption
                Public-Key: (2048 bit)
                Modulus:
                    00:d2:81:89:20:51:48:0f:73:f4:11:32:24:d5:1f:
                    1c:fd:5c:f5:b6:e6:c5:f0:52:81:dc:d2:af:66:4a:
                    7c:93:31:61:5c:af:d1:6d:06:70:03:60:7c:72:0c:
                    88:dd:49:cd:9e:02:6c:d2:5a:d7:53:0f:f3:da:be:
                    69:64:b5:0f:0c:00:e3:b3:50:47:a3:b3:9b:ba:13:
                    50:d6:58:5a:4b:ab:39:e0:11:ca:0a:27:67:03:78:
                    22:66:6d:92:1e:1b:5c:49:ae:e6:6b:d1:8e:3b:9d:
                    06:d3:c6:ac:4d:53:43:10:ab:e8:96:c1:87:82:97:
                    99:8f:20:d3:99:12:37:31:84:e1:8a:ff:29:03:5f:
                    22:90:3e:7f:9b:e0:20:c1:ad:dc:ae:4c:39:1a:31:
                    96:17:02:8c:b2:d9:b4:0d:20:12:9b:7d:86:54:fd:
                    33:fd:c1:2a:62:46:f8:60:96:cf:6e:01:6f:22:df:
                    13:47:e7:97:ec:05:72:23:a3:62:f8:fa:ef:ac:9c:
                    72:f0:37:cb:2f:37:cf:90:a8:27:51:86:c6:d7:78:
                    08:8f:7e:25:a2:15:70:a2:fb:1c:b6:15:5e:a0:97:
                    8b:81:4c:09:28:8a:27:3b:94:bc:71:db:5b:71:37:
                    9a:2b:16:e0:6f:b5:c9:f5:4b:4f:20:ba:65:cf:af:
                    ad:ad
                Exponent: 65537 (0x10001)
        X509v3 extensions:
            X509v3 Key Usage: 
                Digital Signature, Key Encipherment
            X509v3 Basic Constraints: 
                CA:FALSE
            Netscape Cert Type: 
                SSL Server
            Netscape Comment: 
                OpenSSL Generated Server Certificate
            X509v3 Subject Key Identifier: 
                E5:25:6D:3E:AF:0D:DD:3F:4C:F2:45:19:39:D5:14:DB:7E:9C:C0:AD
            X509v3 Authority Key Identifier: 
                keyid:F4:A7:C0:CC:91:46:AF:64:F3:91:F2:27:F8:C8:B2:6F:8A:87:32:73
                DirName:/C=DE/ST=Hessen/O=privacyidea/CN=CA001
                serial:FB:C8:EB:AC:83:CD:12:07

            X509v3 Extended Key Usage: 
                TLS Web Server Authentication
    Signature Algorithm: sha256WithRSAEncryption
         4f:1c:f6:aa:b4:0b:6b:50:72:d0:0f:9f:36:3c:fb:46:c8:0d:
         c8:28:2c:74:52:8f:75:70:a7:f1:c3:be:0a:bc:41:72:f1:d6:
         ab:0f:b7:34:60:f9:b4:8c:65:b1:6b:1d:73:1a:ff:49:06:bd:
         cc:75:c7:98:b0:43:ab:af:ec:e4:13:12:53:48:2c:4c:25:40:
         04:2f:bb:39:e3:31:ab:58:81:35:6f:a5:d8:7e:4f:c2:72:b8:
         4f:cb:43:0c:8f:bc:f0:99:47:99:ce:19:f5:89:c8:d3:40:9d:
         74:13:51:ad:65:84:a5:4f:51:42:5e:3e:f2:22:21:cb:4b:d9:
         fe:4c:93:bd:d9:e5:42:de:7f:d0:a1:ea:2b:8e:51:60:f2:95:
         b1:77:2c:4d:0b:e0:45:7d:d1:1e:44:8e:68:ac:6e:7b:80:69:
         23:7b:26:66:ba:7a:8e:dc:55:c5:8c:d4:65:9f:24:86:70:c9:
         12:b7:c4:ee:8b:d9:c6:4e:58:2a:dc:0f:f9:94:b7:d8:85:ad:
         ed:7c:1c:cc:e2:cd:2a:6d:c7:c5:d3:c4:2c:9b:3c:7d:93:ef:
         6b:cb:87:77:d0:15:d8:88:cd:94:c9:b5:20:0e:6b:cb:a0:0b:
         45:bc:59:54:42:0d:a1:76:c8:c2:cd:e8:68:20:99:7e:9f:4c:
         77:02:23:74
-----BEGIN CERTIFICATE-----
MIIECTCCAvGgAwIBAgIEEAABKTANBgkqhkiG9w0BAQsFADBEMQswCQYDVQQGEwJE
RTEPMA0GA1UECAwGSGVzc2VuMRQwEgYDVQQKDAtwcml2YWN5aWRlYTEOMAwGA1UE
AwwFQ0EwMDEwHhcNMTkwMTEwMDgyOTA0WhcNMjAwMTEwMDgyOTA0WjA3MRMwEQYD
VQQDDApTdGV2ZSBUZXN0MSAwHgYJKoZIhvcNAQkBFhFzdGV2ZUBvcGVuc3NsLm9y
ZzCCASIwDQYJKoZIhvcNAQEBBQADggEPADCCAQoCggEBANKBiSBRSA9z9BEyJNUf
HP1c9bbmxfBSgdzSr2ZKfJMxYVyv0W0GcANgfHIMiN1JzZ4CbNJa11MP89q+aWS1
DwwA47NQR6Ozm7oTUNZYWkurOeARygonZwN4ImZtkh4bXEmu5mvRjjudBtPGrE1T
QxCr6JbBh4KXmY8g05kSNzGE4Yr/KQNfIpA+f5vgIMGt3K5MORoxlhcCjLLZtA0g
Ept9hlT9M/3BKmJG+GCWz24BbyLfE0fnl+wFciOjYvj676yccvA3yy83z5CoJ1GG
xtd4CI9+JaIVcKL7HLYVXqCXi4FMCSiKJzuUvHHbW3E3misW4G+1yfVLTyC6Zc+v
ra0CAwEAAaOCAQ4wggEKMAsGA1UdDwQEAwIFoDAJBgNVHRMEAjAAMBEGCWCGSAGG
+EIBAQQEAwIGQDAzBglghkgBhvhCAQ0EJhYkT3BlblNTTCBHZW5lcmF0ZWQgU2Vy
dmVyIENlcnRpZmljYXRlMB0GA1UdDgQWBBTlJW0+rw3dP0zyRRk51RTbfpzArTB0
BgNVHSMEbTBrgBT0p8DMkUavZPOR8if4yLJviocyc6FIpEYwRDELMAkGA1UEBhMC
REUxDzANBgNVBAgMBkhlc3NlbjEUMBIGA1UECgwLcHJpdmFjeWlkZWExDjAMBgNV
BAMMBUNBMDAxggkA+8jrrIPNEgcwEwYDVR0lBAwwCgYIKwYBBQUHAwEwDQYJKoZI
hvcNAQELBQADggEBAE8c9qq0C2tQctAPnzY8+0bIDcgoLHRSj3Vwp/HDvgq8QXLx
1qsPtzRg+bSMZbFrHXMa/0kGvcx1x5iwQ6uv7OQTElNILEwlQAQvuznjMatYgTVv
pdh+T8JyuE/LQwyPvPCZR5nOGfWJyNNAnXQTUa1lhKVPUUJePvIiIctL2f5Mk73Z
5ULef9Ch6iuOUWDylbF3LE0L4EV90R5EjmisbnuAaSN7Jma6eo7cVcWM1GWfJIZw
yRK3xO6L2cZOWCrcD/mUt9iFre18HMzizSptx8XTxCybPH2T72vLh3fQFdiIzZTJ
tSAOa8ugC0W8WVRCDaF2yMLN6GggmX6fTHcCI3Q=
-----END CERTIFICATE-----
