Certificate:
    Data:
        Version: 3 (0x2)
        Serial Number: 268435696 (0x100000f0)
        Signature Algorithm: sha256WithRSAEncryption
        Issuer: C=DE, ST=Hessen, O=privacyidea, CN=CA001
        Validity
            Not Before: Oct 24 12:55:11 2019 GMT
            Not After : Oct 23 12:55:11 2020 GMT
        Subject: C=DE, ST=Hessen, O=privacyidea, CN=requester.localdomain
        Subject Public Key Info:
            Public Key Algorithm: rsaEncryption
                RSA Public-Key: (2048 bit)
                Modulus:
                    00:cd:be:14:4f:fa:ce:01:3f:42:22:1b:1d:9c:af:
                    dd:92:d2:7f:db:6c:b7:3e:39:43:43:6b:13:03:f1:
                    05:f4:07:74:bc:76:69:28:0b:af:19:8e:d7:fc:e3:
                    cd:c6:58:f2:ca:7f:08:6d:53:fc:07:02:44:24:c6:
                    b4:34:4c:8c:04:fe:33:0e:40:e2:20:ba:02:73:5a:
                    f7:f5:4f:63:6e:cc:c6:b6:df:54:1d:37:39:7d:51:
                    36:26:5f:bd:dc:3f:a8:8b:6b:a2:ae:b6:9d:d6:21:
                    e7:df:41:b8:7a:28:2a:68:48:ca:a8:2d:ed:e1:e9:
                    46:5e:5a:72:6d:b4:84:38:87:91:fd:94:11:0b:28:
                    84:c6:c2:2f:2a:fb:01:f9:36:7a:09:75:d1:33:88:
                    3c:73:41:5b:c8:bf:94:89:70:a1:f0:c0:b9:2e:50:
                    53:1e:b1:17:64:69:f4:2d:81:e0:a9:0d:0e:32:e9:
                    ba:55:8a:85:f1:1b:6f:49:79:b4:7f:88:c3:0d:3e:
                    54:88:9b:3d:1f:38:8c:04:f3:ee:6a:63:2b:f5:c6:
                    db:b4:83:aa:c4:78:41:3a:7d:4b:e1:c8:3e:71:ca:
                    1b:61:59:ea:c6:c4:ca:32:5e:c9:e9:bf:12:29:e6:
                    c6:c3:63:fe:a0:55:da:7a:f1:60:98:4d:26:ed:fa:
                    70:2d
                Exponent: 65537 (0x10001)
        X509v3 extensions:
            X509v3 Key Usage: 
                Digital Signature, Key Encipherment
            X509v3 Basic Constraints: 
                CA:FALSE
            Netscape Cert Type: 
                SSL Server
            Netscape Comment: 
                OpenSSL Generated Server Certificate
            X509v3 Subject Key Identifier: 
                53:3F:ED:5D:09:07:B3:65:7B:AB:45:C9:24:5B:09:77:80:0A:96:ED
            X509v3 Authority Key Identifier: 
                keyid:F4:A7:C0:CC:91:46:AF:64:F3:91:F2:27:F8:C8:B2:6F:8A:87:32:73
                DirName:/C=DE/ST=Hessen/O=privacyidea/CN=CA001
                serial:FB:C8:EB:AC:83:CD:12:07

            X509v3 Extended Key Usage: 
                TLS Web Server Authentication
    Signature Algorithm: sha256WithRSAEncryption
         20:4c:3c:e5:2e:22:e2:42:d9:c7:29:91:f7:56:80:0c:7e:2c:
         b4:b4:96:77:e4:76:c8:6f:8b:ce:58:2e:ff:28:5c:0b:77:f9:
         c8:af:67:54:80:34:3d:fa:33:5b:1e:74:e5:8c:78:4a:fa:57:
         cb:94:04:ee:8d:b0:94:fe:83:0c:a2:a9:37:10:f4:a0:da:d3:
         7a:5b:a4:a4:0d:98:4d:28:32:d8:8a:cd:19:5c:8c:d5:1a:0e:
         74:09:bf:58:c2:3e:d3:42:90:4c:74:61:03:98:49:4d:ee:00:
         fa:5d:cd:84:51:c9:9c:fc:e9:ac:7e:46:ab:4b:3a:90:7c:44:
         a2:8b:4b:f0:40:fb:f4:06:f4:64:c2:cd:fd:e1:b0:48:38:cc:
         bd:63:03:61:aa:3f:dc:99:02:49:ee:1c:b8:95:c0:42:b7:6e:
         77:ea:c4:7d:5c:16:ea:7a:18:24:d5:e5:28:c6:3a:af:db:65:
         03:35:72:ba:52:d5:35:13:2e:bd:0f:30:b9:c6:6e:f4:13:50:
         c4:de:80:9b:24:4e:42:9a:c0:af:0f:80:4b:45:97:4d:3c:d2:
         4f:d9:d1:e0:c7:b0:e4:ee:3c:78:8f:55:6d:fe:83:67:66:f4:
         18:6c:f3:64:75:c7:28:cb:42:75:78:a1:e3:02:6d:98:a9:2e:
         0e:46:5d:1e
-----BEGIN CERTIFICATE-----
MIIEJjCCAw6gAwIBAgIEEAAA8DANBgkqhkiG9w0BAQsFADBEMQswCQYDVQQGEwJE
RTEPMA0GA1UECAwGSGVzc2VuMRQwEgYDVQQKDAtwcml2YWN5aWRlYTEOMAwGA1UE
AwwFQ0EwMDEwHhcNMTkxMDI0MTI1NTExWhcNMjAxMDIzMTI1NTExWjBUMQswCQYD
VQQGEwJERTEPMA0GA1UECAwGSGVzc2VuMRQwEgYDVQQKDAtwcml2YWN5aWRlYTEe
MBwGA1UEAwwVcmVxdWVzdGVyLmxvY2FsZG9tYWluMIIBIjANBgkqhkiG9w0BAQEF
AAOCAQ8AMIIBCgKCAQEAzb4UT/rOAT9CIhsdnK/dktJ/22y3PjlDQ2sTA/EF9Ad0
vHZpKAuvGY7X/OPNxljyyn8IbVP8BwJEJMa0NEyMBP4zDkDiILoCc1r39U9jbszG
tt9UHTc5fVE2Jl+93D+oi2uirrad1iHn30G4eigqaEjKqC3t4elGXlpybbSEOIeR
/ZQRCyiExsIvKvsB+TZ6CXXRM4g8c0FbyL+UiXCh8MC5LlBTHrEXZGn0LYHgqQ0O
Mum6VYqF8RtvSXm0f4jDDT5UiJs9HziMBPPuamMr9cbbtIOqxHhBOn1L4cg+ccob
YVnqxsTKMl7J6b8SKebGw2P+oFXaevFgmE0m7fpwLQIDAQABo4IBDjCCAQowCwYD
VR0PBAQDAgWgMAkGA1UdEwQCMAAwEQYJYIZIAYb4QgEBBAQDAgZAMDMGCWCGSAGG
+EIBDQQmFiRPcGVuU1NMIEdlbmVyYXRlZCBTZXJ2ZXIgQ2VydGlmaWNhdGUwHQYD
VR0OBBYEFFM/7V0JB7Nle6tFySRbCXeACpbtMHQGA1UdIwRtMGuAFPSnwMyRRq9k
85HyJ/jIsm+KhzJzoUikRjBEMQswCQYDVQQGEwJERTEPMA0GA1UECAwGSGVzc2Vu
MRQwEgYDVQQKDAtwcml2YWN5aWRlYTEOMAwGA1UEAwwFQ0EwMDGCCQD7yOusg80S
BzATBgNVHSUEDDAKBggrBgEFBQcDATANBgkqhkiG9w0BAQsFAAOCAQEAIEw85S4i
4kLZxymR91aADH4stLSWd+R2yG+Lzlgu/yhcC3f5yK9nVIA0PfozWx505Yx4SvpX
y5QE7o2wlP6DDKKpNxD0oNrTelukpA2YTSgy2IrNGVyM1RoOdAm/WMI+00KQTHRh
A5hJTe4A+l3NhFHJnPzprH5Gq0s6kHxEootL8ED79Ab0ZMLN/eGwSDjMvWMDYao/
3JkCSe4cuJXAQrdud+rEfVwW6noYJNXlKMY6r9tlAzVyulLVNRMuvQ8wucZu9BNQ
xN6AmyROQprArw+AS0WXTTzST9nR4Mew5O48eI9Vbf6DZ2b0GGzzZHXHKMtCdXih
4wJtmKkuDkZdHg==
-----END CERTIFICATE-----
