Certificate:
    Data:
        Version: 3 (0x2)
        Serial Number: 268435699 (0x100000f3)
        Signature Algorithm: sha256WithRSAEncryption
        Issuer: C=DE, ST=Hessen, O=privacyidea, CN=CA001
        Validity
            Not Before: Oct 24 12:55:11 2019 GMT
            Not After : Nov 12 12:55:11 2021 GMT
        Subject: CN=Steve Test/emailAddress=steve@openssl.org
        Subject Public Key Info:
            Public Key Algorithm: rsaEncryption
                RSA Public-Key: (2048 bit)
                Modulus:
                    00:d2:81:89:20:51:48:0f:73:f4:11:32:24:d5:1f:
                    1c:fd:5c:f5:b6:e6:c5:f0:52:81:dc:d2:af:66:4a:
                    7c:93:31:61:5c:af:d1:6d:06:70:03:60:7c:72:0c:
                    88:dd:49:cd:9e:02:6c:d2:5a:d7:53:0f:f3:da:be:
                    69:64:b5:0f:0c:00:e3:b3:50:47:a3:b3:9b:ba:13:
                    50:d6:58:5a:4b:ab:39:e0:11:ca:0a:27:67:03:78:
                    22:66:6d:92:1e:1b:5c:49:ae:e6:6b:d1:8e:3b:9d:
                    06:d3:c6:ac:4d:53:43:10:ab:e8:96:c1:87:82:97:
                    99:8f:20:d3:99:12:37:31:84:e1:8a:ff:29:03:5f:
                    22:90:3e:7f:9b:e0:20:c1:ad:dc:ae:4c:39:1a:31:
                    96:17:02:8c:b2:d9:b4:0d:20:12:9b:7d:86:54:fd:
                    33:fd:c1:2a:62:46:f8:60:96:cf:6e:01:6f:22:df:
                    13:47:e7:97:ec:05:72:23:a3:62:f8:fa:ef:ac:9c:
                    72:f0:37:cb:2f:37:cf:90:a8:27:51:86:c6:d7:78:
                    08:8f:7e:25:a2:15:70:a2:fb:1c:b6:15:5e:a0:97:
                    8b:81:4c:09:28:8a:27:3b:94:bc:71:db:5b:71:37:
                    9a:2b:16:e0:6f:b5:c9:f5:4b:4f:20:ba:65:cf:af:
                    ad:ad
                Exponent: 65537 (0x10001)
        X509v3 extensions:
            X509v3 Key Usage: 
                Digital Signature, Key Encipherment
            X509v3 Basic Constraints: 
                CA:FALSE
            Netscape Cert Type: 
                SSL Server
            Netscape Comment: 
                OpenSSL Generated Server Certificate
            X509v3 Subject Key Identifier: 
                E5:25:6D:3E:AF:0D:DD:3F:4C:F2:45:19:39:D5:14:DB:7E:9C:C0:AD
            X509v3 Authority Key Identifier: 
                keyid:F4:A7:C0:CC:91:46:AF:64:F3:91:F2:27:F8:C8:B2:6F:8A:87:32:73
                DirName:/C=DE/ST=Hessen/O=privacyidea/CN=CA001
                serial:FB:C8:EB:AC:83:CD:12:07

            X509v3 Extended Key Usage: 
                TLS Web Server Authentication
    Signature Algorithm: sha256WithRSAEncryption
         87:cf:b4:97:8f:6b:d6:64:8e:ac:c5:1e:16:6d:8b:12:4c:4c:
         72:07:44:7a:03:96:3b:ef:4b:f7:dc:71:fb:20:96:51:67:c2:
         62:23:30:ae:d2:fb:a8:ff:04:0c:a6:5e:b0:d2:66:5a:d3:65:
         7a:b8:e8:ae:c9:e7:77:6a:54:45:dc:d8:27:2c:4b:ad:60:a2:
         dd:ce:e6:94:17:65:91:d9:68:55:fd:34:a3:a7:6f:e9:71:c7:
         2c:e2:17:9d:fa:c5:2f:c8:b6:f6:76:0b:d2:e9:48:9f:77:93:
         e6:b8:0a:58:22:9b:85:e7:dc:d6:a8:3b:9d:ea:9f:93:9f:90:
         7e:b5:64:ba:cc:e0:9c:30:58:f3:78:f9:56:96:9c:91:c1:70:
         6d:1e:2e:e1:1d:b5:21:c4:96:14:06:49:e7:14:4f:36:08:c5:
         05:41:9c:e8:24:b9:6b:03:c9:a4:f3:e7:42:41:55:02:cd:38:
         c0:ce:df:3b:9f:f0:66:d4:aa:90:94:c3:60:66:19:77:e2:ee:
         19:9f:5b:60:48:9f:d4:ba:b8:50:6e:17:75:7c:a0:8a:83:d5:
         ae:85:31:07:b4:10:ac:88:f5:00:6e:3a:90:e1:58:f3:2f:9d:
         67:58:50:f7:eb:0e:36:58:08:f0:62:0c:19:3e:81:9b:a9:b2:
         e9:82:db:5c
-----BEGIN CERTIFICATE-----
MIIECTCCAvGgAwIBAgIEEAAA8zANBgkqhkiG9w0BAQsFADBEMQswCQYDVQQGEwJE
RTEPMA0GA1UECAwGSGVzc2VuMRQwEgYDVQQKDAtwcml2YWN5aWRlYTEOMAwGA1UE
AwwFQ0EwMDEwHhcNMTkxMDI0MTI1NTExWhcNMjExMTEyMTI1NTExWjA3MRMwEQYD
VQQDDApTdGV2ZSBUZXN0MSAwHgYJKoZIhvcNAQkBFhFzdGV2ZUBvcGVuc3NsLm9y
ZzCCASIwDQYJKoZIhvcNAQEBBQADggEPADCCAQoCggEBANKBiSBRSA9z9BEyJNUf
HP1c9bbmxfBSgdzSr2ZKfJMxYVyv0W0GcANgfHIMiN1JzZ4CbNJa11MP89q+aWS1
DwwA47NQR6Ozm7oTUNZYWkurOeARygonZwN4ImZtkh4bXEmu5mvRjjudBtPGrE1T
QxCr6JbBh4KXmY8g05kSNzGE4Yr/KQNfIpA+f5vgIMGt3K5MORoxlhcCjLLZtA0g
Ept9hlT9M/3BKmJG+GCWz24BbyLfE0fnl+wFciOjYvj676yccvA3yy83z5CoJ1GG
xtd4CI9+JaIVcKL7HLYVXqCXi4FMCSiKJzuUvHHbW3E3misW4G+1yfVLTyC6Zc+v
ra0CAwEAAaOCAQ4wggEKMAsGA1UdDwQEAwIFoDAJBgNVHRMEAjAAMBEGCWCGSAGG
+EIBAQQEAwIGQDAzBglghkgBhvhCAQ0EJhYkT3BlblNTTCBHZW5lcmF0ZWQgU2Vy
dmVyIENlcnRpZmljYXRlMB0GA1UdDgQWBBTlJW0+rw3dP0zyRRk51RTbfpzArTB0
BgNVHSMEbTBrgBT0p8DMkUavZPOR8if4yLJviocyc6FIpEYwRDELMAkGA1UEBhMC
REUxDzANBgNVBAgMBkhlc3NlbjEUMBIGA1UECgwLcHJpdmFjeWlkZWExDjAMBgNV
BAMMBUNBMDAxggkA+8jrrIPNEgcwEwYDVR0lBAwwCgYIKwYBBQUHAwEwDQYJKoZI
hvcNAQELBQADggEBAIfPtJePa9ZkjqzFHhZtixJMTHIHRHoDljvvS/fccfsgllFn
wmIjMK7S+6j/BAymXrDSZlrTZXq46K7J53dqVEXc2CcsS61got3O5pQXZZHZaFX9
NKOnb+lxxyziF536xS/ItvZ2C9LpSJ93k+a4Clgim4Xn3NaoO53qn5OfkH61ZLrM
4JwwWPN4+VaWnJHBcG0eLuEdtSHElhQGSecUTzYIxQVBnOgkuWsDyaTz50JBVQLN
OMDO3zuf8GbUqpCUw2BmGXfi7hmfW2BIn9S6uFBuF3V8oIqD1a6FMQe0EKyI9QBu
OpDhWPMvnWdYUPfrDjZYCPBiDBk+gZupsumC21w=
-----END CERTIFICATE-----
