Certificate:
    Data:
        Version: 3 (0x2)
        Serial Number: 268435730 (0x10000112)
    Signature Algorithm: sha256WithRSAEncryption
        Issuer: C=DE, ST=Hessen, O=privacyidea, CN=CA001
        Validity
            Not Before: Jan  9 23:32:43 2019 GMT
            Not After : Jan 28 23:32:43 2021 GMT
        Subject: CN=Steve Test/emailAddress=steve@openssl.org
        Subject Public Key Info:
            Public Key Algorithm: rsaEncryption
                Public-Key: (2048 bit)
                Modulus:
                    00:d2:81:89:20:51:48:0f:73:f4:11:32:24:d5:1f:
                    1c:fd:5c:f5:b6:e6:c5:f0:52:81:dc:d2:af:66:4a:
                    7c:93:31:61:5c:af:d1:6d:06:70:03:60:7c:72:0c:
                    88:dd:49:cd:9e:02:6c:d2:5a:d7:53:0f:f3:da:be:
                    69:64:b5:0f:0c:00:e3:b3:50:47:a3:b3:9b:ba:13:
                    50:d6:58:5a:4b:ab:39:e0:11:ca:0a:27:67:03:78:
                    22:66:6d:92:1e:1b:5c:49:ae:e6:6b:d1:8e:3b:9d:
                    06:d3:c6:ac:4d:53:43:10:ab:e8:96:c1:87:82:97:
                    99:8f:20:d3:99:12:37:31:84:e1:8a:ff:29:03:5f:
                    22:90:3e:7f:9b:e0:20:c1:ad:dc:ae:4c:39:1a:31:
                    96:17:02:8c:b2:d9:b4:0d:20:12:9b:7d:86:54:fd:
                    33:fd:c1:2a:62:46:f8:60:96:cf:6e:01:6f:22:df:
                    13:47:e7:97:ec:05:72:23:a3:62:f8:fa:ef:ac:9c:
                    72:f0:37:cb:2f:37:cf:90:a8:27:51:86:c6:d7:78:
                    08:8f:7e:25:a2:15:70:a2:fb:1c:b6:15:5e:a0:97:
                    8b:81:4c:09:28:8a:27:3b:94:bc:71:db:5b:71:37:
                    9a:2b:16:e0:6f:b5:c9:f5:4b:4f:20:ba:65:cf:af:
                    ad:ad
                Exponent: 65537 (0x10001)
        X509v3 extensions:
            X509v3 Key Usage: 
                Digital Signature, Key Encipherment
            X509v3 Basic Constraints: 
                CA:FALSE
            Netscape Cert Type: 
                SSL Server
            Netscape Comment: 
                OpenSSL Generated Server Certificate
            X509v3 Subject Key Identifier: 
                E5:25:6D:3E:AF:0D:DD:3F:4C:F2:45:19:39:D5:14:DB:7E:9C:C0:AD
            X509v3 Authority Key Identifier: 
                keyid:F4:A7:C0:CC:91:46:AF:64:F3:91:F2:27:F8:C8:B2:6F:8A:87:32:73
                DirName:/C=DE/ST=Hessen/O=privacyidea/CN=CA001
                serial:FB:C8:EB:AC:83:CD:12:07

            X509v3 Extended Key Usage: 
                TLS Web Server Authentication
    Signature Algorithm: sha256WithRSAEncryption
         41:41:a2:6d:f0:59:ed:14:01:8c:21:31:a5:3c:bb:f6:cb:e8:
         7a:61:59:ff:52:14:b3:d1:02:05:68:05:ea:22:af:8d:2c:be:
         0b:95:0b:73:39:15:25:98:e5:0e:8f:58:a2:38:19:5b:82:62:
         af:de:a6:0b:b9:4e:d8:c4:2d:fe:24:56:87:9d:63:dd:a0:44:
         38:d9:a3:9d:72:21:f4:ca:df:c5:95:25:52:c6:d7:8e:76:5b:
         a6:d4:44:23:82:e4:af:63:06:67:e3:76:75:97:7b:73:8d:41:
         bb:ee:47:17:63:88:e8:f6:17:e1:8b:f9:ad:0f:94:a7:8f:69:
         ca:ea:de:68:95:4e:2d:d5:6b:36:e0:b5:0d:d3:11:9b:53:92:
         dc:38:6b:fb:1d:ab:c6:51:16:27:1d:93:c4:5b:d2:91:7d:f5:
         e1:b8:9a:ac:86:a5:ed:bf:e5:60:fa:60:56:b1:d3:f7:65:a3:
         a4:73:39:84:60:df:da:32:df:6c:a1:88:63:b6:93:67:bc:11:
         d0:da:a8:fc:94:b9:d6:e2:0f:3c:cd:32:57:d3:03:3c:3b:69:
         6a:df:79:d7:10:66:5b:d5:c5:0b:f6:62:70:2b:72:b1:cc:3b:
         7f:6d:36:2f:86:b7:c0:b6:c0:98:af:af:0d:ec:e8:53:99:03:
         dc:d4:ee:1f
-----BEGIN CERTIFICATE-----
MIIECTCCAvGgAwIBAgIEEAABEjANBgkqhkiG9w0BAQsFADBEMQswCQYDVQQGEwJE
RTEPMA0GA1UECAwGSGVzc2VuMRQwEgYDVQQKDAtwcml2YWN5aWRlYTEOMAwGA1UE
AwwFQ0EwMDEwHhcNMTkwMTA5MjMzMjQzWhcNMjEwMTI4MjMzMjQzWjA3MRMwEQYD
VQQDDApTdGV2ZSBUZXN0MSAwHgYJKoZIhvcNAQkBFhFzdGV2ZUBvcGVuc3NsLm9y
ZzCCASIwDQYJKoZIhvcNAQEBBQADggEPADCCAQoCggEBANKBiSBRSA9z9BEyJNUf
HP1c9bbmxfBSgdzSr2ZKfJMxYVyv0W0GcANgfHIMiN1JzZ4CbNJa11MP89q+aWS1
DwwA47NQR6Ozm7oTUNZYWkurOeARygonZwN4ImZtkh4bXEmu5mvRjjudBtPGrE1T
QxCr6JbBh4KXmY8g05kSNzGE4Yr/KQNfIpA+f5vgIMGt3K5MORoxlhcCjLLZtA0g
Ept9hlT9M/3BKmJG+GCWz24BbyLfE0fnl+wFciOjYvj676yccvA3yy83z5CoJ1GG
xtd4CI9+JaIVcKL7HLYVXqCXi4FMCSiKJzuUvHHbW3E3misW4G+1yfVLTyC6Zc+v
ra0CAwEAAaOCAQ4wggEKMAsGA1UdDwQEAwIFoDAJBgNVHRMEAjAAMBEGCWCGSAGG
+EIBAQQEAwIGQDAzBglghkgBhvhCAQ0EJhYkT3BlblNTTCBHZW5lcmF0ZWQgU2Vy
dmVyIENlcnRpZmljYXRlMB0GA1UdDgQWBBTlJW0+rw3dP0zyRRk51RTbfpzArTB0
BgNVHSMEbTBrgBT0p8DMkUavZPOR8if4yLJviocyc6FIpEYwRDELMAkGA1UEBhMC
REUxDzANBgNVBAgMBkhlc3NlbjEUMBIGA1UECgwLcHJpdmFjeWlkZWExDjAMBgNV
BAMMBUNBMDAxggkA+8jrrIPNEgcwEwYDVR0lBAwwCgYIKwYBBQUHAwEwDQYJKoZI
hvcNAQELBQADggEBAEFBom3wWe0UAYwhMaU8u/bL6HphWf9SFLPRAgVoBeoir40s
vguVC3M5FSWY5Q6PWKI4GVuCYq/epgu5TtjELf4kVoedY92gRDjZo51yIfTK38WV
JVLG1452W6bURCOC5K9jBmfjdnWXe3ONQbvuRxdjiOj2F+GL+a0PlKePacrq3miV
Ti3VazbgtQ3TEZtTktw4a/sdq8ZRFicdk8Rb0pF99eG4mqyGpe2/5WD6YFax0/dl
o6RzOYRg39oy32yhiGO2k2e8EdDaqPyUudbiDzzNMlfTAzw7aWrfedcQZlvVxQv2
YnArcrHMO39tNi+Gt8C2wJivrw3s6FOZA9zU7h8=
-----END CERTIFICATE-----
