Certificate:
    Data:
        Version: 3 (0x2)
        Serial Number: 268435626 (0x100000aa)
    Signature Algorithm: sha1WithRSAEncryption
        Issuer: C=DE, ST=Hessen, O=privacyidea, CN=CA001
        Validity
            Not Before: Sep 12 08:38:22 2015 GMT
            Not After : Sep 11 08:38:22 2016 GMT
        Subject: C=DE, ST=Hessen, O=privacyidea, CN=requester.localdomain
        Subject Public Key Info:
            Public Key Algorithm: rsaEncryption
                Public-Key: (2048 bit)
                Modulus:
                    00:cd:be:14:4f:fa:ce:01:3f:42:22:1b:1d:9c:af:
                    dd:92:d2:7f:db:6c:b7:3e:39:43:43:6b:13:03:f1:
                    05:f4:07:74:bc:76:69:28:0b:af:19:8e:d7:fc:e3:
                    cd:c6:58:f2:ca:7f:08:6d:53:fc:07:02:44:24:c6:
                    b4:34:4c:8c:04:fe:33:0e:40:e2:20:ba:02:73:5a:
                    f7:f5:4f:63:6e:cc:c6:b6:df:54:1d:37:39:7d:51:
                    36:26:5f:bd:dc:3f:a8:8b:6b:a2:ae:b6:9d:d6:21:
                    e7:df:41:b8:7a:28:2a:68:48:ca:a8:2d:ed:e1:e9:
                    46:5e:5a:72:6d:b4:84:38:87:91:fd:94:11:0b:28:
                    84:c6:c2:2f:2a:fb:01:f9:36:7a:09:75:d1:33:88:
                    3c:73:41:5b:c8:bf:94:89:70:a1:f0:c0:b9:2e:50:
                    53:1e:b1:17:64:69:f4:2d:81:e0:a9:0d:0e:32:e9:
                    ba:55:8a:85:f1:1b:6f:49:79:b4:7f:88:c3:0d:3e:
                    54:88:9b:3d:1f:38:8c:04:f3:ee:6a:63:2b:f5:c6:
                    db:b4:83:aa:c4:78:41:3a:7d:4b:e1:c8:3e:71:ca:
                    1b:61:59:ea:c6:c4:ca:32:5e:c9:e9:bf:12:29:e6:
                    c6:c3:63:fe:a0:55:da:7a:f1:60:98:4d:26:ed:fa:
                    70:2d
                Exponent: 65537 (0x10001)
        X509v3 extensions:
            X509v3 Key Usage: 
                Digital Signature, Key Encipherment
            X509v3 Basic Constraints: 
                CA:FALSE
            Netscape Cert Type: 
                SSL Server
            Netscape Comment: 
                OpenSSL Generated Server Certificate
            X509v3 Subject Key Identifier: 
                53:3F:ED:5D:09:07:B3:65:7B:AB:45:C9:24:5B:09:77:80:0A:96:ED
            X509v3 Authority Key Identifier: 
                keyid:F4:A7:C0:CC:91:46:AF:64:F3:91:F2:27:F8:C8:B2:6F:8A:87:32:73
                DirName:/C=DE/ST=Hessen/O=privacyidea/CN=CA001
                serial:FB:C8:EB:AC:83:CD:12:07

            X509v3 Extended Key Usage: 
                TLS Web Server Authentication
    Signature Algorithm: sha1WithRSAEncryption
         42:8c:78:19:84:a4:80:7a:d5:b7:7d:3a:08:43:94:b9:4f:e5:
         f4:d7:73:ab:de:7c:9b:72:40:70:34:73:47:f9:f4:d3:bc:61:
         75:d4:8b:b7:6e:21:31:63:3d:6c:74:88:a9:d2:45:e7:b2:09:
         bf:16:32:cd:58:a3:ea:9a:51:2d:82:e8:1b:c4:9a:f1:d3:9b:
         eb:09:85:97:ae:ea:6b:3a:0b:e2:34:db:12:96:1a:2e:fe:84:
         86:15:fa:d5:a4:31:9a:2b:6d:15:6f:9c:5f:41:f9:21:60:6d:
         69:2b:11:13:e8:1d:2f:aa:47:9e:3c:f9:69:28:cb:4f:91:ba:
         ac:f5:6b:8a:d1:ab:5c:b2:44:4c:04:f0:a0:9c:a3:7b:c4:d6:
         3d:74:f9:52:42:f2:81:6c:e1:fd:7d:59:79:4f:fe:be:55:6a:
         39:91:56:4f:15:b0:23:5a:9e:f3:b3:ab:e8:71:74:65:d6:12:
         67:66:03:f1:89:8b:c0:29:59:8e:3b:97:3a:52:99:94:87:f0:
         71:b6:a7:38:ff:a9:1a:22:89:0a:da:4a:22:50:0f:dd:80:7b:
         75:9a:d5:69:f5:fe:17:0e:bb:77:61:ff:ea:dc:38:82:6c:6a:
         a0:1e:f2:51:e2:db:8e:34:75:dc:6d:e2:a6:4f:c2:26:46:9c:
         70:b0:e4:90
-----BEGIN CERTIFICATE-----
MIIEJjCCAw6gAwIBAgIEEAAAqjANBgkqhkiG9w0BAQUFADBEMQswCQYDVQQGEwJE
RTEPMA0GA1UECAwGSGVzc2VuMRQwEgYDVQQKDAtwcml2YWN5aWRlYTEOMAwGA1UE
AwwFQ0EwMDEwHhcNMTUwOTEyMDgzODIyWhcNMTYwOTExMDgzODIyWjBUMQswCQYD
VQQGEwJERTEPMA0GA1UECAwGSGVzc2VuMRQwEgYDVQQKDAtwcml2YWN5aWRlYTEe
MBwGA1UEAwwVcmVxdWVzdGVyLmxvY2FsZG9tYWluMIIBIjANBgkqhkiG9w0BAQEF
AAOCAQ8AMIIBCgKCAQEAzb4UT/rOAT9CIhsdnK/dktJ/22y3PjlDQ2sTA/EF9Ad0
vHZpKAuvGY7X/OPNxljyyn8IbVP8BwJEJMa0NEyMBP4zDkDiILoCc1r39U9jbszG
tt9UHTc5fVE2Jl+93D+oi2uirrad1iHn30G4eigqaEjKqC3t4elGXlpybbSEOIeR
/ZQRCyiExsIvKvsB+TZ6CXXRM4g8c0FbyL+UiXCh8MC5LlBTHrEXZGn0LYHgqQ0O
Mum6VYqF8RtvSXm0f4jDDT5UiJs9HziMBPPuamMr9cbbtIOqxHhBOn1L4cg+ccob
YVnqxsTKMl7J6b8SKebGw2P+oFXaevFgmE0m7fpwLQIDAQABo4IBDjCCAQowCwYD
VR0PBAQDAgWgMAkGA1UdEwQCMAAwEQYJYIZIAYb4QgEBBAQDAgZAMDMGCWCGSAGG
+EIBDQQmFiRPcGVuU1NMIEdlbmVyYXRlZCBTZXJ2ZXIgQ2VydGlmaWNhdGUwHQYD
VR0OBBYEFFM/7V0JB7Nle6tFySRbCXeACpbtMHQGA1UdIwRtMGuAFPSnwMyRRq9k
85HyJ/jIsm+KhzJzoUikRjBEMQswCQYDVQQGEwJERTEPMA0GA1UECAwGSGVzc2Vu
MRQwEgYDVQQKDAtwcml2YWN5aWRlYTEOMAwGA1UEAwwFQ0EwMDGCCQD7yOusg80S
BzATBgNVHSUEDDAKBggrBgEFBQcDATANBgkqhkiG9w0BAQUFAAOCAQEAQox4GYSk
gHrVt306CEOUuU/l9Ndzq958m3JAcDRzR/n007xhddSLt24hMWM9bHSIqdJF57IJ
vxYyzVij6ppRLYLoG8Sa8dOb6wmFl67qazoL4jTbEpYaLv6EhhX61aQxmittFW+c
X0H5IWBtaSsRE+gdL6pHnjz5aSjLT5G6rPVritGrXLJETATwoJyje8TWPXT5UkLy
gWzh/X1ZeU/+vlVqOZFWTxWwI1qe87Or6HF0ZdYSZ2YD8YmLwClZjjuXOlKZlIfw
cbanOP+pGiKJCtpKIlAP3YB7dZrVafX+Fw67d2H/6tw4gmxqoB7yUeLbjjR13G3i
pk/CJkaccLDkkA==
-----END CERTIFICATE-----
