Certificate:
    Data:
        Version: 3 (0x2)
        Serial Number: 268435603 (0x10000093)
    Signature Algorithm: sha1WithRSAEncryption
        Issuer: C=DE, ST=Hessen, O=privacyidea, CN=CA001
        Validity
            Not Before: Jun 15 13:03:37 2015 GMT
            Not After : Jun 14 13:03:37 2016 GMT
        Subject: C=DE, ST=Hessen, O=privacyidea, CN=usercert
        Subject Public Key Info:
            Public Key Algorithm: rsaEncryption
                Public-Key: (2048 bit)
                Modulus:
                    00:dc:2f:d1:5f:29:97:d4:7c:c3:53:c8:30:bd:4b:
                    67:70:2c:24:6b:b8:5e:eb:21:7a:48:12:56:7c:81:
                    5c:48:75:b6:68:eb:f6:f2:98:4e:50:51:d1:7f:6c:
                    73:f3:0a:a7:ae:be:48:5e:e5:d6:e1:d9:2a:7c:32:
                    6e:4e:fd:08:f6:5a:54:49:23:73:c3:b9:07:18:d1:
                    ef:b3:ac:f8:8a:dc:94:96:a4:90:3a:8e:74:df:e6:
                    0d:37:1b:bd:5b:b7:25:1a:56:39:da:6f:91:aa:5e:
                    1c:74:f3:f9:7c:14:01:83:12:65:76:c7:bb:fe:36:
                    5b:95:e9:72:65:83:ed:3e:98:30:71:fa:87:dd:a3:
                    36:5a:30:03:2e:26:e0:61:d1:bf:02:3f:b6:06:1f:
                    4a:89:28:1c:5c:a2:ff:4e:be:94:e6:8c:e0:da:82:
                    f1:9d:29:32:48:30:73:b4:04:f6:42:1e:be:f7:e2:
                    32:32:27:3c:9d:89:2f:70:3e:85:9a:6f:5c:c5:09:
                    c0:8c:32:2f:72:22:c9:d2:95:1f:b6:ac:72:60:72:
                    b7:82:4d:6b:ce:5b:e3:00:d0:d2:2f:58:c6:e0:10:
                    e5:51:ca:4d:3b:2e:e6:7e:ab:84:d6:56:f1:93:35:
                    a0:93:64:26:81:75:2f:91:b5:16:06:38:0b:db:cc:
                    2d:07
                Exponent: 65537 (0x10001)
        X509v3 extensions:
            X509v3 Key Usage: 
                Digital Signature, Key Encipherment
            X509v3 Basic Constraints: 
                CA:FALSE
            Netscape Cert Type: 
                SSL Server
            Netscape Comment: 
                OpenSSL Generated Server Certificate
            X509v3 Subject Key Identifier: 
                FC:14:D1:F0:4B:8D:00:90:F2:F5:B8:71:9E:4E:97:C3:92:54:AD:0B
            X509v3 Authority Key Identifier: 
                keyid:F4:A7:C0:CC:91:46:AF:64:F3:91:F2:27:F8:C8:B2:6F:8A:87:32:73
                DirName:/C=DE/ST=Hessen/O=privacyidea/CN=CA001
                serial:FB:C8:EB:AC:83:CD:12:07

            X509v3 Extended Key Usage: 
                TLS Web Server Authentication
    Signature Algorithm: sha1WithRSAEncryption
         3c:77:48:cc:80:a0:2e:43:27:8f:9e:3b:cb:37:83:c0:d4:3c:
         73:44:2d:53:3b:a4:3d:c5:42:6c:da:9d:d2:dd:23:cd:51:c5:
         1e:d0:72:cb:d3:66:a8:e9:8f:4a:36:31:8a:bd:40:d9:e6:32:
         53:90:c3:84:9f:92:02:a8:90:25:d1:e0:91:17:6e:96:ed:61:
         a9:0d:ad:9d:0e:fd:f0:44:8a:34:97:a3:e0:f9:a4:9c:fa:d0:
         2b:c1:8f:c8:ea:88:7a:a0:e4:07:74:09:e7:5e:14:75:e1:af:
         c2:e0:26:f9:57:62:b5:eb:a6:12:c5:82:c3:16:3a:18:3a:55:
         79:c0:e7:4a:83:55:90:d9:53:ce:94:5d:e9:c9:c5:60:68:d2:
         4c:09:df:f7:57:da:6c:74:c7:2c:be:1d:e1:25:62:66:6f:b1:
         a1:d6:b9:13:2c:db:0f:3d:18:41:f2:19:9c:c5:09:88:b0:fe:
         c4:c0:b4:f3:3d:3a:85:d7:d6:a2:99:c6:f1:c7:d9:ef:a0:53:
         0f:8a:28:e0:57:43:39:42:08:10:1a:9f:48:39:3b:40:b6:a4:
         18:c8:8d:5e:84:e0:e6:70:0c:cd:a2:df:be:15:ba:25:00:69:
         09:0a:17:ae:af:af:b7:e2:b6:99:e5:c4:5b:b2:12:fe:c7:61:
         af:81:2b:64
-----BEGIN CERTIFICATE-----
MIIEGTCCAwGgAwIBAgIEEAAAkzANBgkqhkiG9w0BAQUFADBEMQswCQYDVQQGEwJE
RTEPMA0GA1UECAwGSGVzc2VuMRQwEgYDVQQKDAtwcml2YWN5aWRlYTEOMAwGA1UE
AwwFQ0EwMDEwHhcNMTUwNjE1MTMwMzM3WhcNMTYwNjE0MTMwMzM3WjBHMQswCQYD
VQQGEwJERTEPMA0GA1UECAwGSGVzc2VuMRQwEgYDVQQKDAtwcml2YWN5aWRlYTER
MA8GA1UEAwwIdXNlcmNlcnQwggEiMA0GCSqGSIb3DQEBAQUAA4IBDwAwggEKAoIB
AQDcL9FfKZfUfMNTyDC9S2dwLCRruF7rIXpIElZ8gVxIdbZo6/bymE5QUdF/bHPz
Cqeuvkhe5dbh2Sp8Mm5O/Qj2WlRJI3PDuQcY0e+zrPiK3JSWpJA6jnTf5g03G71b
tyUaVjnab5GqXhx08/l8FAGDEmV2x7v+NluV6XJlg+0+mDBx+ofdozZaMAMuJuBh
0b8CP7YGH0qJKBxcov9OvpTmjODagvGdKTJIMHO0BPZCHr734jIyJzydiS9wPoWa
b1zFCcCMMi9yIsnSlR+2rHJgcreCTWvOW+MA0NIvWMbgEOVRyk07LuZ+q4TWVvGT
NaCTZCaBdS+RtRYGOAvbzC0HAgMBAAGjggEOMIIBCjALBgNVHQ8EBAMCBaAwCQYD
VR0TBAIwADARBglghkgBhvhCAQEEBAMCBkAwMwYJYIZIAYb4QgENBCYWJE9wZW5T
U0wgR2VuZXJhdGVkIFNlcnZlciBDZXJ0aWZpY2F0ZTAdBgNVHQ4EFgQU/BTR8EuN
AJDy9bhxnk6Xw5JUrQswdAYDVR0jBG0wa4AU9KfAzJFGr2TzkfIn+Miyb4qHMnOh
SKRGMEQxCzAJBgNVBAYTAkRFMQ8wDQYDVQQIDAZIZXNzZW4xFDASBgNVBAoMC3By
aXZhY3lpZGVhMQ4wDAYDVQQDDAVDQTAwMYIJAPvI66yDzRIHMBMGA1UdJQQMMAoG
CCsGAQUFBwMBMA0GCSqGSIb3DQEBBQUAA4IBAQA8d0jMgKAuQyePnjvLN4PA1Dxz
RC1TO6Q9xUJs2p3S3SPNUcUe0HLL02ao6Y9KNjGKvUDZ5jJTkMOEn5ICqJAl0eCR
F26W7WGpDa2dDv3wRIo0l6Pg+aSc+tArwY/I6oh6oOQHdAnnXhR14a/C4Cb5V2K1
66YSxYLDFjoYOlV5wOdKg1WQ2VPOlF3pycVgaNJMCd/3V9psdMcsvh3hJWJmb7Gh
1rkTLNsPPRhB8hmcxQmIsP7EwLTzPTqF19aimcbxx9nvoFMPiijgV0M5QggQGp9I
OTtAtqQYyI1ehODmcAzNot++FbolAGkJCheur6+34raZ5cRbshL+x2GvgStk
-----END CERTIFICATE-----
