Certificate:
    Data:
        Version: 3 (0x2)
        Serial Number: 268435688 (0x100000e8)
        Signature Algorithm: sha256WithRSAEncryption
        Issuer: C=DE, ST=Hessen, O=privacyidea, CN=CA001
        Validity
            Not Before: Oct 24 12:31:51 2019 GMT
            Not After : Oct 23 12:31:51 2020 GMT
        Subject: C=DE, ST=Hessen, O=privacyidea, CN=usercert
        Subject Public Key Info:
            Public Key Algorithm: rsaEncryption
                RSA Public-Key: (2048 bit)
                Modulus:
                    00:dc:2f:d1:5f:29:97:d4:7c:c3:53:c8:30:bd:4b:
                    67:70:2c:24:6b:b8:5e:eb:21:7a:48:12:56:7c:81:
                    5c:48:75:b6:68:eb:f6:f2:98:4e:50:51:d1:7f:6c:
                    73:f3:0a:a7:ae:be:48:5e:e5:d6:e1:d9:2a:7c:32:
                    6e:4e:fd:08:f6:5a:54:49:23:73:c3:b9:07:18:d1:
                    ef:b3:ac:f8:8a:dc:94:96:a4:90:3a:8e:74:df:e6:
                    0d:37:1b:bd:5b:b7:25:1a:56:39:da:6f:91:aa:5e:
                    1c:74:f3:f9:7c:14:01:83:12:65:76:c7:bb:fe:36:
                    5b:95:e9:72:65:83:ed:3e:98:30:71:fa:87:dd:a3:
                    36:5a:30:03:2e:26:e0:61:d1:bf:02:3f:b6:06:1f:
                    4a:89:28:1c:5c:a2:ff:4e:be:94:e6:8c:e0:da:82:
                    f1:9d:29:32:48:30:73:b4:04:f6:42:1e:be:f7:e2:
                    32:32:27:3c:9d:89:2f:70:3e:85:9a:6f:5c:c5:09:
                    c0:8c:32:2f:72:22:c9:d2:95:1f:b6:ac:72:60:72:
                    b7:82:4d:6b:ce:5b:e3:00:d0:d2:2f:58:c6:e0:10:
                    e5:51:ca:4d:3b:2e:e6:7e:ab:84:d6:56:f1:93:35:
                    a0:93:64:26:81:75:2f:91:b5:16:06:38:0b:db:cc:
                    2d:07
                Exponent: 65537 (0x10001)
        X509v3 extensions:
            X509v3 Key Usage: 
                Digital Signature, Key Encipherment
            X509v3 Basic Constraints: 
                CA:FALSE
            Netscape Cert Type: 
                SSL Server
            Netscape Comment: 
                OpenSSL Generated Server Certificate
            X509v3 Subject Key Identifier: 
                FC:14:D1:F0:4B:8D:00:90:F2:F5:B8:71:9E:4E:97:C3:92:54:AD:0B
            X509v3 Authority Key Identifier: 
                keyid:F4:A7:C0:CC:91:46:AF:64:F3:91:F2:27:F8:C8:B2:6F:8A:87:32:73
                DirName:/C=DE/ST=Hessen/O=privacyidea/CN=CA001
                serial:FB:C8:EB:AC:83:CD:12:07

            X509v3 Extended Key Usage: 
                TLS Web Server Authentication
    Signature Algorithm: sha256WithRSAEncryption
         b5:47:1a:af:2c:8b:fc:29:c3:f1:5f:0a:a9:65:13:96:85:0a:
         06:41:cc:30:d9:f7:83:fc:40:45:06:3b:89:9c:fa:a6:3d:00:
         54:a5:4b:b9:8e:27:72:3b:34:82:fe:e9:f9:a0:9f:36:d0:4d:
         0b:29:cc:3e:d0:1a:93:ed:92:b2:c8:08:85:a8:5d:16:04:2e:
         52:10:f1:f1:7a:17:ee:2c:57:a5:4b:97:ea:55:40:0f:9e:92:
         99:80:0c:2c:71:c2:21:1d:7b:f4:4c:5d:6f:dc:0c:1a:0a:6a:
         01:65:bc:3a:2c:25:0a:09:42:b3:93:94:de:1e:a4:30:9f:e6:
         90:ce:bd:37:70:16:3e:4c:d3:c3:9a:94:b2:da:9e:3b:62:05:
         0e:f7:98:ed:f3:ce:91:f0:d9:b6:d6:de:4e:f8:cd:aa:49:5a:
         f0:e2:a1:ce:9b:05:97:a3:bb:21:10:d1:72:9f:e8:e8:3f:f4:
         3d:fa:df:02:4e:75:07:01:9c:ca:f4:cf:92:72:29:5e:fa:c9:
         3c:d5:ee:8a:97:d6:86:ac:f8:f7:51:60:f7:af:16:9b:b7:b8:
         14:25:ae:72:dd:b7:88:57:12:ce:36:20:9e:b3:36:c0:65:13:
         3e:32:da:4a:11:83:a2:cd:08:e4:c2:9b:be:52:8d:28:05:ff:
         92:25:56:59
-----BEGIN CERTIFICATE-----
MIIEGTCCAwGgAwIBAgIEEAAA6DANBgkqhkiG9w0BAQsFADBEMQswCQYDVQQGEwJE
RTEPMA0GA1UECAwGSGVzc2VuMRQwEgYDVQQKDAtwcml2YWN5aWRlYTEOMAwGA1UE
AwwFQ0EwMDEwHhcNMTkxMDI0MTIzMTUxWhcNMjAxMDIzMTIzMTUxWjBHMQswCQYD
VQQGEwJERTEPMA0GA1UECAwGSGVzc2VuMRQwEgYDVQQKDAtwcml2YWN5aWRlYTER
MA8GA1UEAwwIdXNlcmNlcnQwggEiMA0GCSqGSIb3DQEBAQUAA4IBDwAwggEKAoIB
AQDcL9FfKZfUfMNTyDC9S2dwLCRruF7rIXpIElZ8gVxIdbZo6/bymE5QUdF/bHPz
Cqeuvkhe5dbh2Sp8Mm5O/Qj2WlRJI3PDuQcY0e+zrPiK3JSWpJA6jnTf5g03G71b
tyUaVjnab5GqXhx08/l8FAGDEmV2x7v+NluV6XJlg+0+mDBx+ofdozZaMAMuJuBh
0b8CP7YGH0qJKBxcov9OvpTmjODagvGdKTJIMHO0BPZCHr734jIyJzydiS9wPoWa
b1zFCcCMMi9yIsnSlR+2rHJgcreCTWvOW+MA0NIvWMbgEOVRyk07LuZ+q4TWVvGT
NaCTZCaBdS+RtRYGOAvbzC0HAgMBAAGjggEOMIIBCjALBgNVHQ8EBAMCBaAwCQYD
VR0TBAIwADARBglghkgBhvhCAQEEBAMCBkAwMwYJYIZIAYb4QgENBCYWJE9wZW5T
U0wgR2VuZXJhdGVkIFNlcnZlciBDZXJ0aWZpY2F0ZTAdBgNVHQ4EFgQU/BTR8EuN
AJDy9bhxnk6Xw5JUrQswdAYDVR0jBG0wa4AU9KfAzJFGr2TzkfIn+Miyb4qHMnOh
SKRGMEQxCzAJBgNVBAYTAkRFMQ8wDQYDVQQIDAZIZXNzZW4xFDASBgNVBAoMC3By
aXZhY3lpZGVhMQ4wDAYDVQQDDAVDQTAwMYIJAPvI66yDzRIHMBMGA1UdJQQMMAoG
CCsGAQUFBwMBMA0GCSqGSIb3DQEBCwUAA4IBAQC1RxqvLIv8KcPxXwqpZROWhQoG
Qcww2feD/EBFBjuJnPqmPQBUpUu5jidyOzSC/un5oJ820E0LKcw+0BqT7ZKyyAiF
qF0WBC5SEPHxehfuLFelS5fqVUAPnpKZgAwsccIhHXv0TF1v3AwaCmoBZbw6LCUK
CUKzk5TeHqQwn+aQzr03cBY+TNPDmpSy2p47YgUO95jt886R8Nm21t5O+M2qSVrw
4qHOmwWXo7shENFyn+joP/Q9+t8CTnUHAZzK9M+Scile+sk81e6Kl9aGrPj3UWD3
rxabt7gUJa5y3beIVxLONiCeszbAZRM+MtpKEYOizQjkwpu+Uo0oBf+SJVZZ
-----END CERTIFICATE-----
