Certificate:
    Data:
        Version: 3 (0x2)
        Serial Number: 268435602 (0x10000092)
    Signature Algorithm: sha1WithRSAEncryption
        Issuer: C=DE, ST=Hessen, O=privacyidea, CN=CA001
        Validity
            Not Before: Jun 15 13:03:37 2015 GMT
            Not After : Jun 14 13:03:37 2016 GMT
        Subject: C=DE, ST=Hessen, O=privacyidea, CN=requester.localdomain
        Subject Public Key Info:
            Public Key Algorithm: rsaEncryption
                Public-Key: (2048 bit)
                Modulus:
                    00:cd:be:14:4f:fa:ce:01:3f:42:22:1b:1d:9c:af:
                    dd:92:d2:7f:db:6c:b7:3e:39:43:43:6b:13:03:f1:
                    05:f4:07:74:bc:76:69:28:0b:af:19:8e:d7:fc:e3:
                    cd:c6:58:f2:ca:7f:08:6d:53:fc:07:02:44:24:c6:
                    b4:34:4c:8c:04:fe:33:0e:40:e2:20:ba:02:73:5a:
                    f7:f5:4f:63:6e:cc:c6:b6:df:54:1d:37:39:7d:51:
                    36:26:5f:bd:dc:3f:a8:8b:6b:a2:ae:b6:9d:d6:21:
                    e7:df:41:b8:7a:28:2a:68:48:ca:a8:2d:ed:e1:e9:
                    46:5e:5a:72:6d:b4:84:38:87:91:fd:94:11:0b:28:
                    84:c6:c2:2f:2a:fb:01:f9:36:7a:09:75:d1:33:88:
                    3c:73:41:5b:c8:bf:94:89:70:a1:f0:c0:b9:2e:50:
                    53:1e:b1:17:64:69:f4:2d:81:e0:a9:0d:0e:32:e9:
                    ba:55:8a:85:f1:1b:6f:49:79:b4:7f:88:c3:0d:3e:
                    54:88:9b:3d:1f:38:8c:04:f3:ee:6a:63:2b:f5:c6:
                    db:b4:83:aa:c4:78:41:3a:7d:4b:e1:c8:3e:71:ca:
                    1b:61:59:ea:c6:c4:ca:32:5e:c9:e9:bf:12:29:e6:
                    c6:c3:63:fe:a0:55:da:7a:f1:60:98:4d:26:ed:fa:
                    70:2d
                Exponent: 65537 (0x10001)
        X509v3 extensions:
            X509v3 Key Usage: 
                Digital Signature, Key Encipherment
            X509v3 Basic Constraints: 
                CA:FALSE
            Netscape Cert Type: 
                SSL Server
            Netscape Comment: 
                OpenSSL Generated Server Certificate
            X509v3 Subject Key Identifier: 
                53:3F:ED:5D:09:07:B3:65:7B:AB:45:C9:24:5B:09:77:80:0A:96:ED
            X509v3 Authority Key Identifier: 
                keyid:F4:A7:C0:CC:91:46:AF:64:F3:91:F2:27:F8:C8:B2:6F:8A:87:32:73
                DirName:/C=DE/ST=Hessen/O=privacyidea/CN=CA001
                serial:FB:C8:EB:AC:83:CD:12:07

            X509v3 Extended Key Usage: 
                TLS Web Server Authentication
    Signature Algorithm: sha1WithRSAEncryption
         a7:69:0d:5c:24:51:8d:e8:bf:a5:26:e9:e2:30:da:6d:ad:47:
         97:95:4f:25:5e:6a:26:15:77:23:ce:2a:c1:d9:e1:7f:d9:12:
         dd:7d:6a:69:5c:3d:cd:c8:3d:38:80:e1:9a:6d:aa:eb:f8:7b:
         0b:b6:df:2f:5b:bc:a1:92:73:00:2c:86:fa:b8:31:63:41:e3:
         73:dc:39:36:ec:d1:59:46:ba:c2:59:04:21:f4:6f:6b:1f:f2:
         c9:36:8d:80:de:6e:3b:47:9e:0f:3a:91:23:dd:a8:71:77:3c:
         c2:27:24:46:21:af:2f:76:be:3a:e2:a0:35:02:c0:c7:6e:2b:
         2a:6f:55:1f:7d:e9:4f:eb:65:88:f4:77:1d:66:45:b5:1a:4e:
         a4:83:85:4e:64:ba:4d:f3:8a:75:c1:b1:87:1a:bb:e7:a9:d4:
         7a:fd:79:57:2b:4e:ee:ee:dd:18:39:9b:47:28:39:f4:d1:9c:
         4b:b7:45:00:c6:82:15:c0:36:85:89:f7:4a:96:71:49:24:3e:
         39:be:89:ef:2e:bd:ea:50:76:94:14:a5:eb:dd:94:d0:f5:73:
         7b:be:be:23:af:7d:2f:e6:8d:5c:26:4d:d7:20:9f:02:9e:e3:
         5c:9e:63:11:08:ca:80:9e:0b:76:e4:b3:d2:2b:97:68:5f:a6:
         55:57:57:cd
-----BEGIN CERTIFICATE-----
MIIEJjCCAw6gAwIBAgIEEAAAkjANBgkqhkiG9w0BAQUFADBEMQswCQYDVQQGEwJE
RTEPMA0GA1UECAwGSGVzc2VuMRQwEgYDVQQKDAtwcml2YWN5aWRlYTEOMAwGA1UE
AwwFQ0EwMDEwHhcNMTUwNjE1MTMwMzM3WhcNMTYwNjE0MTMwMzM3WjBUMQswCQYD
VQQGEwJERTEPMA0GA1UECAwGSGVzc2VuMRQwEgYDVQQKDAtwcml2YWN5aWRlYTEe
MBwGA1UEAwwVcmVxdWVzdGVyLmxvY2FsZG9tYWluMIIBIjANBgkqhkiG9w0BAQEF
AAOCAQ8AMIIBCgKCAQEAzb4UT/rOAT9CIhsdnK/dktJ/22y3PjlDQ2sTA/EF9Ad0
vHZpKAuvGY7X/OPNxljyyn8IbVP8BwJEJMa0NEyMBP4zDkDiILoCc1r39U9jbszG
tt9UHTc5fVE2Jl+93D+oi2uirrad1iHn30G4eigqaEjKqC3t4elGXlpybbSEOIeR
/ZQRCyiExsIvKvsB+TZ6CXXRM4g8c0FbyL+UiXCh8MC5LlBTHrEXZGn0LYHgqQ0O
Mum6VYqF8RtvSXm0f4jDDT5UiJs9HziMBPPuamMr9cbbtIOqxHhBOn1L4cg+ccob
YVnqxsTKMl7J6b8SKebGw2P+oFXaevFgmE0m7fpwLQIDAQABo4IBDjCCAQowCwYD
VR0PBAQDAgWgMAkGA1UdEwQCMAAwEQYJYIZIAYb4QgEBBAQDAgZAMDMGCWCGSAGG
+EIBDQQmFiRPcGVuU1NMIEdlbmVyYXRlZCBTZXJ2ZXIgQ2VydGlmaWNhdGUwHQYD
VR0OBBYEFFM/7V0JB7Nle6tFySRbCXeACpbtMHQGA1UdIwRtMGuAFPSnwMyRRq9k
85HyJ/jIsm+KhzJzoUikRjBEMQswCQYDVQQGEwJERTEPMA0GA1UECAwGSGVzc2Vu
MRQwEgYDVQQKDAtwcml2YWN5aWRlYTEOMAwGA1UEAwwFQ0EwMDGCCQD7yOusg80S
BzATBgNVHSUEDDAKBggrBgEFBQcDATANBgkqhkiG9w0BAQUFAAOCAQEAp2kNXCRR
jei/pSbp4jDaba1Hl5VPJV5qJhV3I84qwdnhf9kS3X1qaVw9zcg9OIDhmm2q6/h7
C7bfL1u8oZJzACyG+rgxY0Hjc9w5NuzRWUa6wlkEIfRvax/yyTaNgN5uO0eeDzqR
I92ocXc8wickRiGvL3a+OuKgNQLAx24rKm9VH33pT+tliPR3HWZFtRpOpIOFTmS6
TfOKdcGxhxq756nUev15VytO7u7dGDmbRyg59NGcS7dFAMaCFcA2hYn3SpZxSSQ+
Ob6J7y696lB2lBSl692U0PVze76+I699L+aNXCZN1yCfAp7jXJ5jEQjKgJ4LduSz
0iuXaF+mVVdXzQ==
-----END CERTIFICATE-----
