Certificate:
    Data:
        Version: 3 (0x2)
        Serial Number: 268435665 (0x100000d1)
        Signature Algorithm: sha256WithRSAEncryption
        Issuer: C=DE, ST=Hessen, O=privacyidea, CN=CA001
        Validity
            Not Before: Nov 29 13:06:53 2019 GMT
            Not After : Nov 28 13:06:53 2020 GMT
        Subject: OU=realm1, CN=cornelius/emailAddress=user@localhost.localdomain
        Subject Public Key Info:
            Public Key Algorithm: rsaEncryption
                RSA Public-Key: (2048 bit)
                Modulus:
                    00:ba:35:bf:51:25:c7:a7:f3:fa:74:5b:c4:0b:14:
                    ea:75:a9:aa:2a:4b:d6:00:10:52:29:8b:d3:7c:93:
                    43:84:71:d8:c2:d1:96:20:fe:b8:37:16:92:4b:80:
                    7a:94:21:f7:b6:88:9d:79:7e:e4:2d:07:9d:5a:80:
                    28:b3:3e:8c:6e:d0:f2:59:d1:10:55:8c:95:68:ed:
                    27:03:9c:ad:f7:2a:49:0f:62:00:c6:a2:5b:cb:c7:
                    fa:4f:17:5e:4d:3d:61:0c:16:61:4b:bc:78:b2:d3:
                    0b:2a:cb:67:5a:08:6c:dd:f8:33:ef:67:6d:ef:57:
                    dc:99:ed:14:22:fb:f4:32:56:b8:0c:ac:ad:cd:64:
                    46:6b:74:0b:29:71:e7:59:31:60:00:40:42:17:da:
                    6a:5e:47:06:a2:95:0b:60:7f:5a:47:6a:7e:53:9b:
                    8a:8a:eb:1e:51:ff:ea:52:d2:56:2a:3b:81:ba:f3:
                    da:73:9a:4c:17:62:d9:5f:df:38:d5:c1:e2:2c:c6:
                    f3:c9:60:36:e7:41:16:9f:30:5e:e9:50:ff:7a:f0:
                    29:76:3b:6b:5c:1c:52:17:58:70:f5:76:4f:b1:4d:
                    74:37:e6:7f:08:f5:0c:bd:07:73:7d:3c:87:7d:7e:
                    ca:ab:b4:a3:b4:75:98:c8:32:da:7e:8f:2c:8f:30:
                    32:cd
                Exponent: 65537 (0x10001)
        X509v3 extensions:
            X509v3 Key Usage: 
                Digital Signature, Key Encipherment
            X509v3 Basic Constraints: 
                CA:FALSE
            Netscape Cert Type: 
                SSL Server
            Netscape Comment: 
                OpenSSL Generated Server Certificate
            X509v3 Subject Key Identifier: 
                F1:C3:BA:86:F0:86:72:7D:D8:4C:1A:B2:71:89:E0:AF:B5:9B:41:40
            X509v3 Authority Key Identifier: 
                keyid:F4:A7:C0:CC:91:46:AF:64:F3:91:F2:27:F8:C8:B2:6F:8A:87:32:73
                DirName:/C=DE/ST=Hessen/O=privacyidea/CN=CA001
                serial:FB:C8:EB:AC:83:CD:12:07

            X509v3 Extended Key Usage: 
                TLS Web Server Authentication
    Signature Algorithm: sha256WithRSAEncryption
         5d:5d:d0:bc:46:21:b8:f7:a9:99:d4:c1:37:b7:a5:0b:5e:bd:
         36:ad:16:a4:16:eb:02:25:a0:c4:8d:ac:5e:ea:a4:06:3a:0c:
         5c:28:60:42:73:59:b6:69:71:c8:99:22:fa:d3:81:81:16:9f:
         c7:e4:c4:a4:d6:f4:8f:0b:9a:0e:a0:e1:ba:fa:82:b5:0f:11:
         01:bf:bb:4a:52:e2:97:6e:cc:88:e4:dc:d0:56:82:48:c5:e6:
         a5:00:22:8b:e4:5d:77:05:83:e6:3c:83:b6:01:7c:78:ad:6a:
         d4:c6:69:74:37:63:db:cf:7d:76:08:5b:a9:fc:9a:1d:35:3b:
         f2:3a:e7:8f:ab:dd:b3:c2:a7:2f:50:90:81:03:cd:db:cc:f3:
         79:f8:b9:0f:08:3a:c5:a7:1a:38:5e:4c:15:4a:b5:75:42:58:
         d6:e0:c8:76:12:ae:e7:fd:0f:04:c8:fa:49:43:35:e3:87:72:
         b3:f6:d1:f8:f5:52:32:1c:b7:bd:cf:a9:49:07:b3:23:3e:a3:
         ba:80:16:d9:32:4a:57:01:b2:6c:b7:d0:27:e3:d6:4e:43:f9:
         ee:b8:fa:7e:05:13:2f:b1:71:a9:ba:c6:10:17:37:17:05:cd:
         57:3f:52:f1:66:e5:f5:6a:c7:4d:c2:6e:e4:45:96:b7:12:a9:
         bd:be:a3:4f
-----BEGIN CERTIFICATE-----
MIIEIjCCAwqgAwIBAgIEEAAA0TANBgkqhkiG9w0BAQsFADBEMQswCQYDVQQGEwJE
RTEPMA0GA1UECAwGSGVzc2VuMRQwEgYDVQQKDAtwcml2YWN5aWRlYTEOMAwGA1UE
AwwFQ0EwMDEwHhcNMTkxMTI5MTMwNjUzWhcNMjAxMTI4MTMwNjUzWjBQMQ8wDQYD
VQQLDAZyZWFsbTExEjAQBgNVBAMMCWNvcm5lbGl1czEpMCcGCSqGSIb3DQEJARYa
dXNlckBsb2NhbGhvc3QubG9jYWxkb21haW4wggEiMA0GCSqGSIb3DQEBAQUAA4IB
DwAwggEKAoIBAQC6Nb9RJcen8/p0W8QLFOp1qaoqS9YAEFIpi9N8k0OEcdjC0ZYg
/rg3FpJLgHqUIfe2iJ15fuQtB51agCizPoxu0PJZ0RBVjJVo7ScDnK33KkkPYgDG
olvLx/pPF15NPWEMFmFLvHiy0wsqy2daCGzd+DPvZ23vV9yZ7RQi+/QyVrgMrK3N
ZEZrdAspcedZMWAAQEIX2mpeRwailQtgf1pHan5Tm4qK6x5R/+pS0lYqO4G689pz
mkwXYtlf3zjVweIsxvPJYDbnQRafMF7pUP968Cl2O2tcHFIXWHD1dk+xTXQ35n8I
9Qy9B3N9PId9fsqrtKO0dZjIMtp+jyyPMDLNAgMBAAGjggEOMIIBCjALBgNVHQ8E
BAMCBaAwCQYDVR0TBAIwADARBglghkgBhvhCAQEEBAMCBkAwMwYJYIZIAYb4QgEN
BCYWJE9wZW5TU0wgR2VuZXJhdGVkIFNlcnZlciBDZXJ0aWZpY2F0ZTAdBgNVHQ4E
FgQU8cO6hvCGcn3YTBqycYngr7WbQUAwdAYDVR0jBG0wa4AU9KfAzJFGr2TzkfIn
+Miyb4qHMnOhSKRGMEQxCzAJBgNVBAYTAkRFMQ8wDQYDVQQIDAZIZXNzZW4xFDAS
BgNVBAoMC3ByaXZhY3lpZGVhMQ4wDAYDVQQDDAVDQTAwMYIJAPvI66yDzRIHMBMG
A1UdJQQMMAoGCCsGAQUFBwMBMA0GCSqGSIb3DQEBCwUAA4IBAQBdXdC8RiG496mZ
1ME3t6ULXr02rRakFusCJaDEjaxe6qQGOgxcKGBCc1m2aXHImSL604GBFp/H5MSk
1vSPC5oOoOG6+oK1DxEBv7tKUuKXbsyI5NzQVoJIxealACKL5F13BYPmPIO2AXx4
rWrUxml0N2Pbz312CFup/JodNTvyOuePq92zwqcvUJCBA83bzPN5+LkPCDrFpxo4
XkwVSrV1QljW4Mh2Eq7n/Q8EyPpJQzXjh3Kz9tH49VIyHLe9z6lJB7MjPqO6gBbZ
MkpXAbJst9An49ZOQ/nuuPp+BRMvsXGpusYQFzcXBc1XP1LxZuX1asdNwm7kRZa3
Eqm9vqNP
-----END CERTIFICATE-----
