Certificate:
    Data:
        Version: 3 (0x2)
        Serial Number: 268435708 (0x100000fc)
    Signature Algorithm: sha256WithRSAEncryption
        Issuer: C=DE, ST=Hessen, O=privacyidea, CN=CA001
        Validity
            Not Before: Jan  9 21:04:36 2019 GMT
            Not After : Jan  9 21:04:36 2020 GMT
        Subject: CN=selfservice,CN=user,O=realm1/emailAddress=meine
        Subject Public Key Info:
            Public Key Algorithm: rsaEncryption
                Public-Key: (2048 bit)
                Modulus:
                    00:cf:3c:d4:33:0e:12:c4:e6:da:cd:b6:56:a1:1c:
                    26:bb:26:1c:8a:4a:73:a8:58:8a:b6:1e:b3:8b:99:
                    d2:1d:07:c2:92:89:79:c0:69:d8:c8:df:28:61:98:
                    1e:b3:fe:ae:2b:bd:78:a9:f7:6e:47:dc:a3:a0:16:
                    8c:85:02:c1:4e:92:fd:72:6e:f0:c8:03:29:9b:b8:
                    00:6e:c0:83:95:c8:34:20:36:9c:b3:e5:e4:e6:76:
                    73:a3:1a:ad:40:96:e0:53:54:00:ec:76:79:9a:c6:
                    0d:7e:b6:bd:29:ec:83:f3:cb:89:a4:cb:6c:00:ba:
                    0c:c5:78:0f:ff:69:b8:94:f4:04:70:43:3f:d8:9e:
                    d7:a7:fb:5d:ce:75:8e:da:e7:c4:07:b1:9d:de:6f:
                    88:4b:b6:4d:9a:cf:f9:bc:fa:9f:cd:32:6d:f6:3a:
                    0b:0d:23:42:78:ec:97:42:bf:0e:4d:60:56:e1:d3:
                    02:f2:19:cb:84:57:90:e5:70:a1:a2:83:35:86:e2:
                    da:86:9f:f9:8a:c4:79:b3:52:28:da:cb:bb:34:ca:
                    d3:da:91:4a:cf:8d:76:a2:b2:6b:9b:f9:96:fd:09:
                    2a:da:11:23:4d:f0:cb:d6:b2:b1:0e:12:6c:9a:19:
                    65:98:87:ca:e4:ee:24:ce:44:ac:90:8f:9d:1b:c5:
                    2a:9d
                Exponent: 65537 (0x10001)
        X509v3 extensions:
            X509v3 Key Usage: 
                Digital Signature, Key Encipherment
            X509v3 Basic Constraints: 
                CA:FALSE
            Netscape Cert Type: 
                SSL Server
            Netscape Comment: 
                OpenSSL Generated Server Certificate
            X509v3 Subject Key Identifier: 
                4D:07:90:AD:FF:1D:0D:E7:1A:DD:D6:2E:FA:BA:34:CB:AA:1F:24:C6
            X509v3 Authority Key Identifier: 
                keyid:F4:A7:C0:CC:91:46:AF:64:F3:91:F2:27:F8:C8:B2:6F:8A:87:32:73
                DirName:/C=DE/ST=Hessen/O=privacyidea/CN=CA001
                serial:FB:C8:EB:AC:83:CD:12:07

            X509v3 Extended Key Usage: 
                TLS Web Server Authentication
    Signature Algorithm: sha256WithRSAEncryption
         7b:05:4a:19:80:6b:b8:f8:99:55:5c:b7:89:98:4d:27:cb:d5:
         52:28:56:73:b4:56:12:29:a0:85:c5:3f:8d:e8:e3:03:a6:c1:
         19:6d:6e:16:32:b3:50:72:17:bb:a5:bf:db:d2:2b:ea:0c:4e:
         42:24:07:9e:99:38:e4:c4:7d:99:df:ed:88:88:82:ed:39:3a:
         c2:c7:41:30:2a:c4:1e:53:93:4f:ec:ae:a5:18:74:e4:ce:38:
         6a:cd:2c:b0:5e:a2:41:da:81:cd:04:0d:37:c6:8d:36:33:9f:
         bd:82:5d:18:3e:10:71:b5:dc:4a:63:44:57:94:71:ea:22:b2:
         60:00:f3:98:78:f3:85:99:3f:75:0e:75:58:fe:45:22:b7:81:
         19:66:45:68:6b:18:94:e4:39:05:2d:c9:e8:d5:cd:f8:06:f4:
         d6:70:f8:2f:8c:ce:76:98:23:69:40:97:7a:a4:8b:d0:c0:e5:
         b3:fb:ca:bf:4a:a7:e1:f5:8f:8c:25:13:cc:e0:12:df:c2:a0:
         91:4a:ce:66:cb:27:4c:71:be:d4:f1:a5:cd:21:6b:fe:cf:04:
         d4:14:45:84:0c:3e:69:0b:22:be:49:e4:1c:f5:da:0e:7f:67:
         1a:6a:22:78:82:65:db:19:2a:45:56:cc:50:0c:35:4e:7b:8b:
         bd:33:4f:1e
-----BEGIN CERTIFICATE-----
MIIEDzCCAvegAwIBAgIEEAAA/DANBgkqhkiG9w0BAQsFADBEMQswCQYDVQQGEwJE
RTEPMA0GA1UECAwGSGVzc2VuMRQwEgYDVQQKDAtwcml2YWN5aWRlYTEOMAwGA1UE
AwwFQ0EwMDEwHhcNMTkwMTA5MjEwNDM2WhcNMjAwMTA5MjEwNDM2WjA9MSUwIwYD
VQQDDBxzZWxmc2VydmljZSxDTj11c2VyLE89cmVhbG0xMRQwEgYJKoZIhvcNAQkB
FgVtZWluZTCCASIwDQYJKoZIhvcNAQEBBQADggEPADCCAQoCggEBAM881DMOEsTm
2s22VqEcJrsmHIpKc6hYirYes4uZ0h0HwpKJecBp2MjfKGGYHrP+riu9eKn3bkfc
o6AWjIUCwU6S/XJu8MgDKZu4AG7Ag5XINCA2nLPl5OZ2c6MarUCW4FNUAOx2eZrG
DX62vSnsg/PLiaTLbAC6DMV4D/9puJT0BHBDP9ie16f7Xc51jtrnxAexnd5viEu2
TZrP+bz6n80ybfY6Cw0jQnjsl0K/Dk1gVuHTAvIZy4RXkOVwoaKDNYbi2oaf+YrE
ebNSKNrLuzTK09qRSs+NdqKya5v5lv0JKtoRI03wy9aysQ4SbJoZZZiHyuTuJM5E
rJCPnRvFKp0CAwEAAaOCAQ4wggEKMAsGA1UdDwQEAwIFoDAJBgNVHRMEAjAAMBEG
CWCGSAGG+EIBAQQEAwIGQDAzBglghkgBhvhCAQ0EJhYkT3BlblNTTCBHZW5lcmF0
ZWQgU2VydmVyIENlcnRpZmljYXRlMB0GA1UdDgQWBBRNB5Ct/x0N5xrd1i76ujTL
qh8kxjB0BgNVHSMEbTBrgBT0p8DMkUavZPOR8if4yLJviocyc6FIpEYwRDELMAkG
A1UEBhMCREUxDzANBgNVBAgMBkhlc3NlbjEUMBIGA1UECgwLcHJpdmFjeWlkZWEx
DjAMBgNVBAMMBUNBMDAxggkA+8jrrIPNEgcwEwYDVR0lBAwwCgYIKwYBBQUHAwEw
DQYJKoZIhvcNAQELBQADggEBAHsFShmAa7j4mVVct4mYTSfL1VIoVnO0VhIpoIXF
P43o4wOmwRltbhYys1ByF7ulv9vSK+oMTkIkB56ZOOTEfZnf7YiIgu05OsLHQTAq
xB5Tk0/srqUYdOTOOGrNLLBeokHagc0EDTfGjTYzn72CXRg+EHG13EpjRFeUceoi
smAA85h484WZP3UOdVj+RSK3gRlmRWhrGJTkOQUtyejVzfgG9NZw+C+MznaYI2lA
l3qki9DA5bP7yr9Kp+H1j4wlE8zgEt/CoJFKzmbLJ0xxvtTxpc0ha/7PBNQURYQM
PmkLIr5J5Bz12g5/ZxpqIniCZdsZKkVWzFAMNU57i70zTx4=
-----END CERTIFICATE-----
