Certificate:
    Data:
        Version: 3 (0x2)
        Serial Number: 268435695 (0x100000ef)
        Signature Algorithm: sha256WithRSAEncryption
        Issuer: C=DE, ST=Hessen, O=privacyidea, CN=CA001
        Validity
            Not Before: Oct 24 12:53:44 2019 GMT
            Not After : Oct 23 12:53:44 2020 GMT
        Subject: OU=realm1, CN=cornelius/emailAddress=user@localhost.localdomain
        Subject Public Key Info:
            Public Key Algorithm: rsaEncryption
                RSA Public-Key: (2048 bit)
                Modulus:
                    00:d9:8d:ab:05:b7:5d:82:79:a6:ac:3c:14:5a:a7:
                    7f:ed:8c:bb:79:91:f6:5c:6c:fa:87:f4:24:c1:6f:
                    99:10:0a:ca:fe:56:f1:be:99:dd:16:be:fd:8c:f2:
                    ed:9c:27:c9:ab:f7:c8:52:69:e2:07:4c:33:ae:15:
                    a8:20:92:7f:d9:7b:93:7d:96:cb:bd:b7:83:de:e8:
                    a9:3f:46:18:6d:15:2b:df:6d:5e:94:aa:df:38:99:
                    59:2c:85:68:9f:b4:2d:ac:0f:f5:79:a8:77:d3:61:
                    b9:c8:bc:f5:53:63:4b:af:09:d0:a6:a8:58:68:b3:
                    bc:c2:4f:95:5c:78:d4:2a:53:79:3b:e7:4f:e9:5b:
                    9b:56:0f:e3:a6:71:b0:af:b7:0a:16:6c:d0:2c:0c:
                    fc:df:1d:fc:fb:6e:90:5e:f8:ed:cb:ca:81:af:ee:
                    c5:0f:19:41:fc:af:93:84:f2:0b:50:3d:34:3b:d9:
                    35:c6:83:c1:5d:00:cb:88:dc:fa:72:cc:c3:ba:ee:
                    7d:19:96:f3:80:dd:e6:71:ab:8d:0c:9e:57:0b:8c:
                    fe:b1:34:8d:8f:be:d4:ce:3a:d0:13:41:50:75:9b:
                    08:54:ab:34:77:b1:09:ee:81:1f:da:f5:9b:18:4e:
                    99:a1:7f:03:2e:27:15:58:28:62:1c:20:c4:3d:0b:
                    32:7f
                Exponent: 65537 (0x10001)
        X509v3 extensions:
            X509v3 Key Usage: 
                Digital Signature, Key Encipherment
            X509v3 Basic Constraints: 
                CA:FALSE
            Netscape Cert Type: 
                SSL Server
            Netscape Comment: 
                OpenSSL Generated Server Certificate
            X509v3 Subject Key Identifier: 
                CF:D4:15:0C:31:B6:4E:9C:05:50:49:3B:17:DF:20:F4:D6:45:6D:30
            X509v3 Authority Key Identifier: 
                keyid:F4:A7:C0:CC:91:46:AF:64:F3:91:F2:27:F8:C8:B2:6F:8A:87:32:73
                DirName:/C=DE/ST=Hessen/O=privacyidea/CN=CA001
                serial:FB:C8:EB:AC:83:CD:12:07

            X509v3 Extended Key Usage: 
                TLS Web Server Authentication
    Signature Algorithm: sha256WithRSAEncryption
         a2:31:f7:47:ae:94:c2:b5:13:7f:56:21:75:91:a1:3c:01:01:
         7b:d8:a0:04:39:69:55:a3:10:0d:f6:9d:b6:44:e6:15:4c:32:
         e2:e9:67:63:69:3f:08:97:ad:4c:ed:62:b3:80:1f:50:62:cc:
         f6:99:c1:7f:b5:f1:d6:e7:23:b0:3d:e9:ab:1f:5c:f1:1b:1b:
         73:81:c7:eb:77:dc:a7:d8:96:03:4b:31:06:fc:80:2b:4b:20:
         30:b6:59:c4:7f:c3:1d:5e:24:71:b5:26:74:c7:cd:4c:e2:e8:
         94:f1:1b:8e:d8:80:c1:be:76:35:94:d2:cc:77:07:e7:c5:66:
         38:36:c8:38:da:2f:50:49:1c:7a:b3:8c:97:06:47:1f:95:bf:
         e9:20:32:2e:d5:6e:78:95:4e:1a:4f:d0:85:6a:5b:65:aa:31:
         d1:3f:5e:7c:bb:e6:c4:55:0c:89:0d:c6:b3:02:f6:2d:c9:d0:
         54:56:c7:72:4b:cb:af:c5:29:33:e4:a7:32:5f:72:e2:50:fb:
         0c:27:a9:23:f4:f1:6d:23:30:ba:56:fe:58:ac:22:7f:01:4d:
         3b:07:24:df:bc:18:6e:74:5e:f1:7e:da:b4:29:72:a7:07:65:
         76:ec:91:ee:ba:45:2c:fd:06:46:98:b8:c3:7d:6a:0c:b3:47:
         42:33:d2:e9
-----BEGIN CERTIFICATE-----
MIIEIjCCAwqgAwIBAgIEEAAA7zANBgkqhkiG9w0BAQsFADBEMQswCQYDVQQGEwJE
RTEPMA0GA1UECAwGSGVzc2VuMRQwEgYDVQQKDAtwcml2YWN5aWRlYTEOMAwGA1UE
AwwFQ0EwMDEwHhcNMTkxMDI0MTI1MzQ0WhcNMjAxMDIzMTI1MzQ0WjBQMQ8wDQYD
VQQLDAZyZWFsbTExEjAQBgNVBAMMCWNvcm5lbGl1czEpMCcGCSqGSIb3DQEJARYa
dXNlckBsb2NhbGhvc3QubG9jYWxkb21haW4wggEiMA0GCSqGSIb3DQEBAQUAA4IB
DwAwggEKAoIBAQDZjasFt12CeaasPBRap3/tjLt5kfZcbPqH9CTBb5kQCsr+VvG+
md0Wvv2M8u2cJ8mr98hSaeIHTDOuFaggkn/Ze5N9lsu9t4Pe6Kk/RhhtFSvfbV6U
qt84mVkshWiftC2sD/V5qHfTYbnIvPVTY0uvCdCmqFhos7zCT5VceNQqU3k750/p
W5tWD+OmcbCvtwoWbNAsDPzfHfz7bpBe+O3LyoGv7sUPGUH8r5OE8gtQPTQ72TXG
g8FdAMuI3PpyzMO67n0ZlvOA3eZxq40MnlcLjP6xNI2PvtTOOtATQVB1mwhUqzR3
sQnugR/a9ZsYTpmhfwMuJxVYKGIcIMQ9CzJ/AgMBAAGjggEOMIIBCjALBgNVHQ8E
BAMCBaAwCQYDVR0TBAIwADARBglghkgBhvhCAQEEBAMCBkAwMwYJYIZIAYb4QgEN
BCYWJE9wZW5TU0wgR2VuZXJhdGVkIFNlcnZlciBDZXJ0aWZpY2F0ZTAdBgNVHQ4E
FgQUz9QVDDG2TpwFUEk7F98g9NZFbTAwdAYDVR0jBG0wa4AU9KfAzJFGr2TzkfIn
+Miyb4qHMnOhSKRGMEQxCzAJBgNVBAYTAkRFMQ8wDQYDVQQIDAZIZXNzZW4xFDAS
BgNVBAoMC3ByaXZhY3lpZGVhMQ4wDAYDVQQDDAVDQTAwMYIJAPvI66yDzRIHMBMG
A1UdJQQMMAoGCCsGAQUFBwMBMA0GCSqGSIb3DQEBCwUAA4IBAQCiMfdHrpTCtRN/
ViF1kaE8AQF72KAEOWlVoxAN9p22ROYVTDLi6WdjaT8Il61M7WKzgB9QYsz2mcF/
tfHW5yOwPemrH1zxGxtzgcfrd9yn2JYDSzEG/IArSyAwtlnEf8MdXiRxtSZ0x81M
4uiU8RuO2IDBvnY1lNLMdwfnxWY4Nsg42i9QSRx6s4yXBkcflb/pIDIu1W54lU4a
T9CFaltlqjHRP158u+bEVQyJDcazAvYtydBUVsdyS8uvxSkz5KcyX3LiUPsMJ6kj
9PFtIzC6Vv5YrCJ/AU07ByTfvBhudF7xftq0KXKnB2V27JHuukUs/QZGmLjDfWoM
s0dCM9Lp
-----END CERTIFICATE-----
