Certificate:
    Data:
        Version: 3 (0x2)
        Serial Number: 268435714 (0x10000102)
    Signature Algorithm: sha256WithRSAEncryption
        Issuer: C=DE, ST=Hessen, O=privacyidea, CN=CA001
        Validity
            Not Before: Jan  9 21:19:02 2019 GMT
            Not After : Jan  9 21:19:02 2020 GMT
        Subject: C=DE, ST=Hessen, O=privacyidea, CN=requester.localdomain
        Subject Public Key Info:
            Public Key Algorithm: rsaEncryption
                Public-Key: (2048 bit)
                Modulus:
                    00:cd:be:14:4f:fa:ce:01:3f:42:22:1b:1d:9c:af:
                    dd:92:d2:7f:db:6c:b7:3e:39:43:43:6b:13:03:f1:
                    05:f4:07:74:bc:76:69:28:0b:af:19:8e:d7:fc:e3:
                    cd:c6:58:f2:ca:7f:08:6d:53:fc:07:02:44:24:c6:
                    b4:34:4c:8c:04:fe:33:0e:40:e2:20:ba:02:73:5a:
                    f7:f5:4f:63:6e:cc:c6:b6:df:54:1d:37:39:7d:51:
                    36:26:5f:bd:dc:3f:a8:8b:6b:a2:ae:b6:9d:d6:21:
                    e7:df:41:b8:7a:28:2a:68:48:ca:a8:2d:ed:e1:e9:
                    46:5e:5a:72:6d:b4:84:38:87:91:fd:94:11:0b:28:
                    84:c6:c2:2f:2a:fb:01:f9:36:7a:09:75:d1:33:88:
                    3c:73:41:5b:c8:bf:94:89:70:a1:f0:c0:b9:2e:50:
                    53:1e:b1:17:64:69:f4:2d:81:e0:a9:0d:0e:32:e9:
                    ba:55:8a:85:f1:1b:6f:49:79:b4:7f:88:c3:0d:3e:
                    54:88:9b:3d:1f:38:8c:04:f3:ee:6a:63:2b:f5:c6:
                    db:b4:83:aa:c4:78:41:3a:7d:4b:e1:c8:3e:71:ca:
                    1b:61:59:ea:c6:c4:ca:32:5e:c9:e9:bf:12:29:e6:
                    c6:c3:63:fe:a0:55:da:7a:f1:60:98:4d:26:ed:fa:
                    70:2d
                Exponent: 65537 (0x10001)
        X509v3 extensions:
            X509v3 Key Usage: 
                Digital Signature, Key Encipherment
            X509v3 Basic Constraints: 
                CA:FALSE
            Netscape Cert Type: 
                SSL Server
            Netscape Comment: 
                OpenSSL Generated Server Certificate
            X509v3 Subject Key Identifier: 
                53:3F:ED:5D:09:07:B3:65:7B:AB:45:C9:24:5B:09:77:80:0A:96:ED
            X509v3 Authority Key Identifier: 
                keyid:F4:A7:C0:CC:91:46:AF:64:F3:91:F2:27:F8:C8:B2:6F:8A:87:32:73
                DirName:/C=DE/ST=Hessen/O=privacyidea/CN=CA001
                serial:FB:C8:EB:AC:83:CD:12:07

            X509v3 Extended Key Usage: 
                TLS Web Server Authentication
    Signature Algorithm: sha256WithRSAEncryption
         77:63:bd:61:76:a3:f5:a1:07:51:a5:14:0d:e4:72:ce:84:d4:
         eb:eb:27:05:a2:50:a0:09:a4:e7:93:47:bb:f0:d6:e5:32:be:
         52:f2:51:bf:a5:dc:e9:12:1d:bf:8b:b8:28:48:b5:e4:4c:97:
         51:44:a5:9a:c2:5a:18:33:46:e2:1c:49:2a:aa:f5:86:7e:29:
         ef:28:17:12:2d:bb:d3:26:62:d6:e9:ad:cf:a4:86:09:30:f3:
         f7:4c:68:04:73:e0:ec:26:46:23:da:ab:0a:e6:c3:a1:0f:24:
         1d:93:a6:a9:0d:92:e3:8a:57:42:57:3a:b8:36:9e:47:c2:dc:
         31:0a:c6:b8:b3:1b:12:6b:62:36:cc:64:82:aa:bf:39:6c:20:
         ac:a6:22:f5:76:58:65:5e:2f:4d:95:d5:34:de:5c:fe:a0:86:
         ac:be:08:cd:3f:e1:34:d3:b0:4d:57:b5:19:0d:a3:b6:2f:df:
         bc:de:22:4e:c4:f7:69:d6:01:f8:8d:c4:36:f2:6a:f8:41:5d:
         80:8c:f3:fb:4e:6a:da:34:39:40:aa:c1:77:22:4b:b1:e1:be:
         46:08:48:2b:8c:20:ec:06:50:a9:3b:d1:33:50:af:e4:2a:c0:
         00:61:a1:a3:d1:a1:f9:54:96:0f:88:b4:f7:69:e2:2f:5b:55:
         72:30:8a:c2
-----BEGIN CERTIFICATE-----
MIIEJjCCAw6gAwIBAgIEEAABAjANBgkqhkiG9w0BAQsFADBEMQswCQYDVQQGEwJE
RTEPMA0GA1UECAwGSGVzc2VuMRQwEgYDVQQKDAtwcml2YWN5aWRlYTEOMAwGA1UE
AwwFQ0EwMDEwHhcNMTkwMTA5MjExOTAyWhcNMjAwMTA5MjExOTAyWjBUMQswCQYD
VQQGEwJERTEPMA0GA1UECAwGSGVzc2VuMRQwEgYDVQQKDAtwcml2YWN5aWRlYTEe
MBwGA1UEAwwVcmVxdWVzdGVyLmxvY2FsZG9tYWluMIIBIjANBgkqhkiG9w0BAQEF
AAOCAQ8AMIIBCgKCAQEAzb4UT/rOAT9CIhsdnK/dktJ/22y3PjlDQ2sTA/EF9Ad0
vHZpKAuvGY7X/OPNxljyyn8IbVP8BwJEJMa0NEyMBP4zDkDiILoCc1r39U9jbszG
tt9UHTc5fVE2Jl+93D+oi2uirrad1iHn30G4eigqaEjKqC3t4elGXlpybbSEOIeR
/ZQRCyiExsIvKvsB+TZ6CXXRM4g8c0FbyL+UiXCh8MC5LlBTHrEXZGn0LYHgqQ0O
Mum6VYqF8RtvSXm0f4jDDT5UiJs9HziMBPPuamMr9cbbtIOqxHhBOn1L4cg+ccob
YVnqxsTKMl7J6b8SKebGw2P+oFXaevFgmE0m7fpwLQIDAQABo4IBDjCCAQowCwYD
VR0PBAQDAgWgMAkGA1UdEwQCMAAwEQYJYIZIAYb4QgEBBAQDAgZAMDMGCWCGSAGG
+EIBDQQmFiRPcGVuU1NMIEdlbmVyYXRlZCBTZXJ2ZXIgQ2VydGlmaWNhdGUwHQYD
VR0OBBYEFFM/7V0JB7Nle6tFySRbCXeACpbtMHQGA1UdIwRtMGuAFPSnwMyRRq9k
85HyJ/jIsm+KhzJzoUikRjBEMQswCQYDVQQGEwJERTEPMA0GA1UECAwGSGVzc2Vu
MRQwEgYDVQQKDAtwcml2YWN5aWRlYTEOMAwGA1UEAwwFQ0EwMDGCCQD7yOusg80S
BzATBgNVHSUEDDAKBggrBgEFBQcDATANBgkqhkiG9w0BAQsFAAOCAQEAd2O9YXaj
9aEHUaUUDeRyzoTU6+snBaJQoAmk55NHu/DW5TK+UvJRv6Xc6RIdv4u4KEi15EyX
UUSlmsJaGDNG4hxJKqr1hn4p7ygXEi270yZi1umtz6SGCTDz90xoBHPg7CZGI9qr
CubDoQ8kHZOmqQ2S44pXQlc6uDaeR8LcMQrGuLMbEmtiNsxkgqq/OWwgrKYi9XZY
ZV4vTZXVNN5c/qCGrL4IzT/hNNOwTVe1GQ2jti/fvN4iTsT3adYB+I3ENvJq+EFd
gIzz+05q2jQ5QKrBdyJLseG+RghIK4wg7AZQqTvRM1Cv5CrAAGGho9Gh+VSWD4i0
92niL1tVcjCKwg==
-----END CERTIFICATE-----
