Certificate:
    Data:
        Version: 3 (0x2)
        Serial Number: 268435633 (0x100000b1)
    Signature Algorithm: sha1WithRSAEncryption
        Issuer: C=DE, ST=Hessen, O=privacyidea, CN=CA001
        Validity
            Not Before: Sep 12 09:42:06 2015 GMT
            Not After : Sep 11 09:42:06 2016 GMT
        Subject: C=DE, ST=Hessen, O=privacyidea, CN=usercert
        Subject Public Key Info:
            Public Key Algorithm: rsaEncryption
                Public-Key: (2048 bit)
                Modulus:
                    00:dc:2f:d1:5f:29:97:d4:7c:c3:53:c8:30:bd:4b:
                    67:70:2c:24:6b:b8:5e:eb:21:7a:48:12:56:7c:81:
                    5c:48:75:b6:68:eb:f6:f2:98:4e:50:51:d1:7f:6c:
                    73:f3:0a:a7:ae:be:48:5e:e5:d6:e1:d9:2a:7c:32:
                    6e:4e:fd:08:f6:5a:54:49:23:73:c3:b9:07:18:d1:
                    ef:b3:ac:f8:8a:dc:94:96:a4:90:3a:8e:74:df:e6:
                    0d:37:1b:bd:5b:b7:25:1a:56:39:da:6f:91:aa:5e:
                    1c:74:f3:f9:7c:14:01:83:12:65:76:c7:bb:fe:36:
                    5b:95:e9:72:65:83:ed:3e:98:30:71:fa:87:dd:a3:
                    36:5a:30:03:2e:26:e0:61:d1:bf:02:3f:b6:06:1f:
                    4a:89:28:1c:5c:a2:ff:4e:be:94:e6:8c:e0:da:82:
                    f1:9d:29:32:48:30:73:b4:04:f6:42:1e:be:f7:e2:
                    32:32:27:3c:9d:89:2f:70:3e:85:9a:6f:5c:c5:09:
                    c0:8c:32:2f:72:22:c9:d2:95:1f:b6:ac:72:60:72:
                    b7:82:4d:6b:ce:5b:e3:00:d0:d2:2f:58:c6:e0:10:
                    e5:51:ca:4d:3b:2e:e6:7e:ab:84:d6:56:f1:93:35:
                    a0:93:64:26:81:75:2f:91:b5:16:06:38:0b:db:cc:
                    2d:07
                Exponent: 65537 (0x10001)
        X509v3 extensions:
            X509v3 Key Usage: 
                Digital Signature, Key Encipherment
            X509v3 Basic Constraints: 
                CA:FALSE
            Netscape Cert Type: 
                SSL Server
            Netscape Comment: 
                OpenSSL Generated Server Certificate
            X509v3 Subject Key Identifier: 
                FC:14:D1:F0:4B:8D:00:90:F2:F5:B8:71:9E:4E:97:C3:92:54:AD:0B
            X509v3 Authority Key Identifier: 
                keyid:F4:A7:C0:CC:91:46:AF:64:F3:91:F2:27:F8:C8:B2:6F:8A:87:32:73
                DirName:/C=DE/ST=Hessen/O=privacyidea/CN=CA001
                serial:FB:C8:EB:AC:83:CD:12:07

            X509v3 Extended Key Usage: 
                TLS Web Server Authentication
    Signature Algorithm: sha1WithRSAEncryption
         81:93:00:89:13:a3:78:b8:f3:9e:bc:ce:c0:6d:4e:0a:9f:7d:
         3b:20:38:66:c3:4f:4a:28:da:e0:af:94:30:aa:7e:3d:e9:91:
         62:bf:dc:ae:22:27:15:a6:6a:fe:8b:d6:39:fc:99:26:e0:bc:
         2a:da:91:7d:aa:14:20:9f:75:df:f0:b8:1f:f9:5d:e5:b8:d4:
         78:f8:7e:c7:9e:b6:02:2a:6e:45:62:c6:db:8f:32:58:00:26:
         16:19:d4:7d:c3:df:d5:ba:9f:6d:4e:9f:c1:79:7c:3c:12:22:
         c5:63:f0:50:41:2e:b7:54:fe:8f:f5:d1:de:f2:0c:94:02:c8:
         90:6e:c3:f4:88:93:b0:57:6d:1a:de:cf:b4:e8:6c:18:1e:27:
         98:c8:c2:54:f3:eb:b1:9b:81:30:1b:41:93:f6:c8:da:95:cf:
         0a:f7:5f:92:f3:ec:b8:09:2c:aa:9b:42:84:2d:30:97:f4:cb:
         a2:6a:43:9d:44:3b:85:7f:e6:0a:62:82:c7:2f:a5:eb:06:71:
         d3:6d:f0:ae:83:6c:b2:94:62:bb:e2:4b:0d:60:23:d9:97:53:
         83:25:bd:88:db:fb:12:a8:25:30:2d:8d:63:49:27:d2:ea:e1:
         0f:99:5e:72:b1:bc:ab:be:8a:e9:42:a5:57:ee:ea:06:30:0f:
         e1:f0:da:7b
-----BEGIN CERTIFICATE-----
MIIEGTCCAwGgAwIBAgIEEAAAsTANBgkqhkiG9w0BAQUFADBEMQswCQYDVQQGEwJE
RTEPMA0GA1UECAwGSGVzc2VuMRQwEgYDVQQKDAtwcml2YWN5aWRlYTEOMAwGA1UE
AwwFQ0EwMDEwHhcNMTUwOTEyMDk0MjA2WhcNMTYwOTExMDk0MjA2WjBHMQswCQYD
VQQGEwJERTEPMA0GA1UECAwGSGVzc2VuMRQwEgYDVQQKDAtwcml2YWN5aWRlYTER
MA8GA1UEAwwIdXNlcmNlcnQwggEiMA0GCSqGSIb3DQEBAQUAA4IBDwAwggEKAoIB
AQDcL9FfKZfUfMNTyDC9S2dwLCRruF7rIXpIElZ8gVxIdbZo6/bymE5QUdF/bHPz
Cqeuvkhe5dbh2Sp8Mm5O/Qj2WlRJI3PDuQcY0e+zrPiK3JSWpJA6jnTf5g03G71b
tyUaVjnab5GqXhx08/l8FAGDEmV2x7v+NluV6XJlg+0+mDBx+ofdozZaMAMuJuBh
0b8CP7YGH0qJKBxcov9OvpTmjODagvGdKTJIMHO0BPZCHr734jIyJzydiS9wPoWa
b1zFCcCMMi9yIsnSlR+2rHJgcreCTWvOW+MA0NIvWMbgEOVRyk07LuZ+q4TWVvGT
NaCTZCaBdS+RtRYGOAvbzC0HAgMBAAGjggEOMIIBCjALBgNVHQ8EBAMCBaAwCQYD
VR0TBAIwADARBglghkgBhvhCAQEEBAMCBkAwMwYJYIZIAYb4QgENBCYWJE9wZW5T
U0wgR2VuZXJhdGVkIFNlcnZlciBDZXJ0aWZpY2F0ZTAdBgNVHQ4EFgQU/BTR8EuN
AJDy9bhxnk6Xw5JUrQswdAYDVR0jBG0wa4AU9KfAzJFGr2TzkfIn+Miyb4qHMnOh
SKRGMEQxCzAJBgNVBAYTAkRFMQ8wDQYDVQQIDAZIZXNzZW4xFDASBgNVBAoMC3By
aXZhY3lpZGVhMQ4wDAYDVQQDDAVDQTAwMYIJAPvI66yDzRIHMBMGA1UdJQQMMAoG
CCsGAQUFBwMBMA0GCSqGSIb3DQEBBQUAA4IBAQCBkwCJE6N4uPOevM7AbU4Kn307
IDhmw09KKNrgr5Qwqn496ZFiv9yuIicVpmr+i9Y5/Jkm4Lwq2pF9qhQgn3Xf8Lgf
+V3luNR4+H7HnrYCKm5FYsbbjzJYACYWGdR9w9/Vup9tTp/BeXw8EiLFY/BQQS63
VP6P9dHe8gyUAsiQbsP0iJOwV20a3s+06GwYHieYyMJU8+uxm4EwG0GT9sjalc8K
91+S8+y4CSyqm0KELTCX9MuiakOdRDuFf+YKYoLHL6XrBnHTbfCug2yylGK74ksN
YCPZl1ODJb2I2/sSqCUwLY1jSSfS6uEPmV5ysbyrvorpQqVX7uoGMA/h8Np7
-----END CERTIFICATE-----
