Certificate:
    Data:
        Version: 3 (0x2)
        Serial Number: 268435743 (0x1000011f)
    Signature Algorithm: sha256WithRSAEncryption
        Issuer: C=DE, ST=Hessen, O=privacyidea, CN=CA001
        Validity
            Not Before: Jan 10 06:29:46 2019 GMT
            Not After : Jan 10 06:29:46 2020 GMT
        Subject: C=DE, ST=Hessen, O=privacyidea, CN=requester.localdomain
        Subject Public Key Info:
            Public Key Algorithm: rsaEncryption
                Public-Key: (2048 bit)
                Modulus:
                    00:cd:be:14:4f:fa:ce:01:3f:42:22:1b:1d:9c:af:
                    dd:92:d2:7f:db:6c:b7:3e:39:43:43:6b:13:03:f1:
                    05:f4:07:74:bc:76:69:28:0b:af:19:8e:d7:fc:e3:
                    cd:c6:58:f2:ca:7f:08:6d:53:fc:07:02:44:24:c6:
                    b4:34:4c:8c:04:fe:33:0e:40:e2:20:ba:02:73:5a:
                    f7:f5:4f:63:6e:cc:c6:b6:df:54:1d:37:39:7d:51:
                    36:26:5f:bd:dc:3f:a8:8b:6b:a2:ae:b6:9d:d6:21:
                    e7:df:41:b8:7a:28:2a:68:48:ca:a8:2d:ed:e1:e9:
                    46:5e:5a:72:6d:b4:84:38:87:91:fd:94:11:0b:28:
                    84:c6:c2:2f:2a:fb:01:f9:36:7a:09:75:d1:33:88:
                    3c:73:41:5b:c8:bf:94:89:70:a1:f0:c0:b9:2e:50:
                    53:1e:b1:17:64:69:f4:2d:81:e0:a9:0d:0e:32:e9:
                    ba:55:8a:85:f1:1b:6f:49:79:b4:7f:88:c3:0d:3e:
                    54:88:9b:3d:1f:38:8c:04:f3:ee:6a:63:2b:f5:c6:
                    db:b4:83:aa:c4:78:41:3a:7d:4b:e1:c8:3e:71:ca:
                    1b:61:59:ea:c6:c4:ca:32:5e:c9:e9:bf:12:29:e6:
                    c6:c3:63:fe:a0:55:da:7a:f1:60:98:4d:26:ed:fa:
                    70:2d
                Exponent: 65537 (0x10001)
        X509v3 extensions:
            X509v3 Key Usage: 
                Digital Signature, Key Encipherment
            X509v3 Basic Constraints: 
                CA:FALSE
            Netscape Cert Type: 
                SSL Server
            Netscape Comment: 
                OpenSSL Generated Server Certificate
            X509v3 Subject Key Identifier: 
                53:3F:ED:5D:09:07:B3:65:7B:AB:45:C9:24:5B:09:77:80:0A:96:ED
            X509v3 Authority Key Identifier: 
                keyid:F4:A7:C0:CC:91:46:AF:64:F3:91:F2:27:F8:C8:B2:6F:8A:87:32:73
                DirName:/C=DE/ST=Hessen/O=privacyidea/CN=CA001
                serial:FB:C8:EB:AC:83:CD:12:07

            X509v3 Extended Key Usage: 
                TLS Web Server Authentication
    Signature Algorithm: sha256WithRSAEncryption
         7b:34:f7:c3:a4:2d:0f:03:a8:6e:e0:c0:a4:29:0a:c2:25:b1:
         d0:78:6f:42:ba:cd:69:11:ff:16:c2:16:2e:f3:ca:bb:cc:32:
         68:09:53:c1:eb:4a:f6:27:8a:76:bd:d5:b6:e5:ef:b6:34:ee:
         16:d0:74:48:00:d4:a1:1d:b7:b0:ed:a3:b8:85:d7:b7:fe:96:
         0d:64:20:c9:53:4b:00:26:2f:b8:f9:8a:1f:11:34:3d:0f:96:
         1b:e8:a0:79:ed:32:7d:68:87:78:2f:42:2e:d2:2c:01:76:5e:
         34:ef:79:50:f3:35:7f:f1:fa:db:2b:6f:58:e6:71:32:6d:2c:
         b3:7f:2e:37:6d:7d:6d:1f:b9:d4:90:79:5b:a7:5b:b4:57:bc:
         49:d7:f0:26:76:59:0d:5b:71:13:a5:53:ac:20:e9:6a:ca:10:
         43:a6:09:6b:37:fd:01:48:53:0e:a8:6a:23:29:ec:84:e1:11:
         a6:d3:1f:30:e1:5f:2f:97:1b:19:5f:45:e5:22:7c:57:2d:1f:
         4c:ed:51:47:5f:b7:88:75:a1:8e:b7:03:3a:8c:12:87:11:73:
         0f:99:19:e7:41:06:3b:df:d3:1e:cf:b5:35:96:db:d7:c8:b9:
         37:7a:54:de:a1:b0:11:d6:74:f5:b8:ae:d3:30:47:ff:5d:d9:
         1f:6a:fd:0f
-----BEGIN CERTIFICATE-----
MIIEJjCCAw6gAwIBAgIEEAABHzANBgkqhkiG9w0BAQsFADBEMQswCQYDVQQGEwJE
RTEPMA0GA1UECAwGSGVzc2VuMRQwEgYDVQQKDAtwcml2YWN5aWRlYTEOMAwGA1UE
AwwFQ0EwMDEwHhcNMTkwMTEwMDYyOTQ2WhcNMjAwMTEwMDYyOTQ2WjBUMQswCQYD
VQQGEwJERTEPMA0GA1UECAwGSGVzc2VuMRQwEgYDVQQKDAtwcml2YWN5aWRlYTEe
MBwGA1UEAwwVcmVxdWVzdGVyLmxvY2FsZG9tYWluMIIBIjANBgkqhkiG9w0BAQEF
AAOCAQ8AMIIBCgKCAQEAzb4UT/rOAT9CIhsdnK/dktJ/22y3PjlDQ2sTA/EF9Ad0
vHZpKAuvGY7X/OPNxljyyn8IbVP8BwJEJMa0NEyMBP4zDkDiILoCc1r39U9jbszG
tt9UHTc5fVE2Jl+93D+oi2uirrad1iHn30G4eigqaEjKqC3t4elGXlpybbSEOIeR
/ZQRCyiExsIvKvsB+TZ6CXXRM4g8c0FbyL+UiXCh8MC5LlBTHrEXZGn0LYHgqQ0O
Mum6VYqF8RtvSXm0f4jDDT5UiJs9HziMBPPuamMr9cbbtIOqxHhBOn1L4cg+ccob
YVnqxsTKMl7J6b8SKebGw2P+oFXaevFgmE0m7fpwLQIDAQABo4IBDjCCAQowCwYD
VR0PBAQDAgWgMAkGA1UdEwQCMAAwEQYJYIZIAYb4QgEBBAQDAgZAMDMGCWCGSAGG
+EIBDQQmFiRPcGVuU1NMIEdlbmVyYXRlZCBTZXJ2ZXIgQ2VydGlmaWNhdGUwHQYD
VR0OBBYEFFM/7V0JB7Nle6tFySRbCXeACpbtMHQGA1UdIwRtMGuAFPSnwMyRRq9k
85HyJ/jIsm+KhzJzoUikRjBEMQswCQYDVQQGEwJERTEPMA0GA1UECAwGSGVzc2Vu
MRQwEgYDVQQKDAtwcml2YWN5aWRlYTEOMAwGA1UEAwwFQ0EwMDGCCQD7yOusg80S
BzATBgNVHSUEDDAKBggrBgEFBQcDATANBgkqhkiG9w0BAQsFAAOCAQEAezT3w6Qt
DwOobuDApCkKwiWx0HhvQrrNaRH/FsIWLvPKu8wyaAlTwetK9ieKdr3VtuXvtjTu
FtB0SADUoR23sO2juIXXt/6WDWQgyVNLACYvuPmKHxE0PQ+WG+igee0yfWiHeC9C
LtIsAXZeNO95UPM1f/H62ytvWOZxMm0ss38uN219bR+51JB5W6dbtFe8SdfwJnZZ
DVtxE6VTrCDpasoQQ6YJazf9AUhTDqhqIynshOERptMfMOFfL5cbGV9F5SJ8Vy0f
TO1RR1+3iHWhjrcDOowShxFzD5kZ50EGO9/THs+1NZbb18i5N3pU3qGwEdZ09biu
0zBH/13ZH2r9Dw==
-----END CERTIFICATE-----
