Certificate:
    Data:
        Version: 3 (0x2)
        Serial Number: 268435609 (0x10000099)
    Signature Algorithm: sha1WithRSAEncryption
        Issuer: C=DE, ST=Hessen, O=privacyidea, CN=CA001
        Validity
            Not Before: Sep 27 07:48:16 2015 GMT
            Not After : Sep 26 07:48:16 2016 GMT
        Subject: C=DE, ST=Hessen, O=privacyidea, CN=usercert
        Subject Public Key Info:
            Public Key Algorithm: rsaEncryption
                Public-Key: (2048 bit)
                Modulus:
                    00:dc:2f:d1:5f:29:97:d4:7c:c3:53:c8:30:bd:4b:
                    67:70:2c:24:6b:b8:5e:eb:21:7a:48:12:56:7c:81:
                    5c:48:75:b6:68:eb:f6:f2:98:4e:50:51:d1:7f:6c:
                    73:f3:0a:a7:ae:be:48:5e:e5:d6:e1:d9:2a:7c:32:
                    6e:4e:fd:08:f6:5a:54:49:23:73:c3:b9:07:18:d1:
                    ef:b3:ac:f8:8a:dc:94:96:a4:90:3a:8e:74:df:e6:
                    0d:37:1b:bd:5b:b7:25:1a:56:39:da:6f:91:aa:5e:
                    1c:74:f3:f9:7c:14:01:83:12:65:76:c7:bb:fe:36:
                    5b:95:e9:72:65:83:ed:3e:98:30:71:fa:87:dd:a3:
                    36:5a:30:03:2e:26:e0:61:d1:bf:02:3f:b6:06:1f:
                    4a:89:28:1c:5c:a2:ff:4e:be:94:e6:8c:e0:da:82:
                    f1:9d:29:32:48:30:73:b4:04:f6:42:1e:be:f7:e2:
                    32:32:27:3c:9d:89:2f:70:3e:85:9a:6f:5c:c5:09:
                    c0:8c:32:2f:72:22:c9:d2:95:1f:b6:ac:72:60:72:
                    b7:82:4d:6b:ce:5b:e3:00:d0:d2:2f:58:c6:e0:10:
                    e5:51:ca:4d:3b:2e:e6:7e:ab:84:d6:56:f1:93:35:
                    a0:93:64:26:81:75:2f:91:b5:16:06:38:0b:db:cc:
                    2d:07
                Exponent: 65537 (0x10001)
        X509v3 extensions:
            X509v3 Key Usage: 
                Digital Signature, Key Encipherment
            X509v3 Basic Constraints: 
                CA:FALSE
            Netscape Cert Type: 
                SSL Server
            Netscape Comment: 
                OpenSSL Generated Server Certificate
            X509v3 Subject Key Identifier: 
                FC:14:D1:F0:4B:8D:00:90:F2:F5:B8:71:9E:4E:97:C3:92:54:AD:0B
            X509v3 Authority Key Identifier: 
                keyid:F4:A7:C0:CC:91:46:AF:64:F3:91:F2:27:F8:C8:B2:6F:8A:87:32:73
                DirName:/C=DE/ST=Hessen/O=privacyidea/CN=CA001
                serial:FB:C8:EB:AC:83:CD:12:07

            X509v3 Extended Key Usage: 
                TLS Web Server Authentication
    Signature Algorithm: sha1WithRSAEncryption
         08:b9:50:90:69:8d:26:96:25:88:d6:73:c9:7b:e2:08:e9:47:
         ed:23:db:4b:d7:fa:bd:79:2a:db:47:d4:9d:b1:6f:84:47:19:
         82:ce:ab:c3:63:02:6a:e5:c8:be:bc:26:43:47:48:17:ad:01:
         6a:b2:6c:90:58:5f:c0:1d:a7:f8:0f:ce:47:57:5b:ff:2c:74:
         ae:3f:db:b1:87:17:7e:95:96:47:b3:ed:00:88:0a:60:bf:f2:
         30:3f:57:76:56:58:2f:eb:26:24:85:65:55:66:4c:81:9e:c5:
         a8:6f:b7:c2:fd:57:d0:51:51:9b:35:ad:5e:7f:23:59:0c:a8:
         ad:9b:a5:bc:8e:40:1f:f8:c8:9a:f1:d2:b0:db:3e:f4:75:52:
         98:60:d5:67:e4:e4:8b:3a:08:8a:54:6e:ae:35:1d:39:97:1b:
         92:cc:62:15:a8:fe:1f:9f:6a:58:d2:07:3c:56:59:64:96:df:
         d5:9a:26:f2:42:1b:e0:27:01:b3:b9:70:24:cc:5a:76:45:15:
         d1:16:e6:cf:73:1c:ee:d9:14:90:44:e1:bc:4c:6a:be:02:55:
         54:d9:7b:79:c7:17:bb:7d:3c:c5:e2:f7:11:b9:fd:4b:2f:8e:
         75:ab:c6:b5:18:01:c6:ae:72:75:43:9c:5c:85:98:60:04:0a:
         57:ba:69:51
-----BEGIN CERTIFICATE-----
MIIEGTCCAwGgAwIBAgIEEAAAmTANBgkqhkiG9w0BAQUFADBEMQswCQYDVQQGEwJE
RTEPMA0GA1UECAwGSGVzc2VuMRQwEgYDVQQKDAtwcml2YWN5aWRlYTEOMAwGA1UE
AwwFQ0EwMDEwHhcNMTUwOTI3MDc0ODE2WhcNMTYwOTI2MDc0ODE2WjBHMQswCQYD
VQQGEwJERTEPMA0GA1UECAwGSGVzc2VuMRQwEgYDVQQKDAtwcml2YWN5aWRlYTER
MA8GA1UEAwwIdXNlcmNlcnQwggEiMA0GCSqGSIb3DQEBAQUAA4IBDwAwggEKAoIB
AQDcL9FfKZfUfMNTyDC9S2dwLCRruF7rIXpIElZ8gVxIdbZo6/bymE5QUdF/bHPz
Cqeuvkhe5dbh2Sp8Mm5O/Qj2WlRJI3PDuQcY0e+zrPiK3JSWpJA6jnTf5g03G71b
tyUaVjnab5GqXhx08/l8FAGDEmV2x7v+NluV6XJlg+0+mDBx+ofdozZaMAMuJuBh
0b8CP7YGH0qJKBxcov9OvpTmjODagvGdKTJIMHO0BPZCHr734jIyJzydiS9wPoWa
b1zFCcCMMi9yIsnSlR+2rHJgcreCTWvOW+MA0NIvWMbgEOVRyk07LuZ+q4TWVvGT
NaCTZCaBdS+RtRYGOAvbzC0HAgMBAAGjggEOMIIBCjALBgNVHQ8EBAMCBaAwCQYD
VR0TBAIwADARBglghkgBhvhCAQEEBAMCBkAwMwYJYIZIAYb4QgENBCYWJE9wZW5T
U0wgR2VuZXJhdGVkIFNlcnZlciBDZXJ0aWZpY2F0ZTAdBgNVHQ4EFgQU/BTR8EuN
AJDy9bhxnk6Xw5JUrQswdAYDVR0jBG0wa4AU9KfAzJFGr2TzkfIn+Miyb4qHMnOh
SKRGMEQxCzAJBgNVBAYTAkRFMQ8wDQYDVQQIDAZIZXNzZW4xFDASBgNVBAoMC3By
aXZhY3lpZGVhMQ4wDAYDVQQDDAVDQTAwMYIJAPvI66yDzRIHMBMGA1UdJQQMMAoG
CCsGAQUFBwMBMA0GCSqGSIb3DQEBBQUAA4IBAQAIuVCQaY0mliWI1nPJe+II6Uft
I9tL1/q9eSrbR9SdsW+ERxmCzqvDYwJq5ci+vCZDR0gXrQFqsmyQWF/AHaf4D85H
V1v/LHSuP9uxhxd+lZZHs+0AiApgv/IwP1d2Vlgv6yYkhWVVZkyBnsWob7fC/VfQ
UVGbNa1efyNZDKitm6W8jkAf+Mia8dKw2z70dVKYYNVn5OSLOgiKVG6uNR05lxuS
zGIVqP4fn2pY0gc8Vllklt/VmibyQhvgJwGzuXAkzFp2RRXRFubPcxzu2RSQROG8
TGq+AlVU2Xt5xxe7fTzF4vcRuf1LL451q8a1GAHGrnJ1Q5xchZhgBApXumlR
-----END CERTIFICATE-----
