Certificate:
    Data:
        Version: 3 (0x2)
        Serial Number: 268435692 (0x100000ec)
        Signature Algorithm: sha256WithRSAEncryption
        Issuer: C=DE, ST=Hessen, O=privacyidea, CN=CA001
        Validity
            Not Before: Oct 24 12:34:04 2019 GMT
            Not After : Oct 23 12:34:04 2020 GMT
        Subject: OU=realm1, CN=cornelius/emailAddress=user@localhost.localdomain
        Subject Public Key Info:
            Public Key Algorithm: rsaEncryption
                RSA Public-Key: (2048 bit)
                Modulus:
                    00:b2:1b:26:69:59:96:64:ab:4e:5d:81:37:7d:ec:
                    ad:52:7b:35:a5:d0:ea:ce:74:f2:24:a6:55:35:f5:
                    3f:a3:db:10:ca:6e:ee:da:ba:5e:18:35:9a:25:6a:
                    20:3b:c9:f3:d1:6b:08:4b:7a:b9:0f:38:12:c4:13:
                    50:85:c8:b1:54:d8:7c:ea:cb:a2:c4:f8:75:5d:fb:
                    61:04:e7:f2:8e:5b:f0:fd:18:b1:a5:6f:a3:89:06:
                    f3:84:f5:d7:d5:60:b5:00:90:f3:a8:c1:e8:7b:df:
                    46:7a:03:a6:49:5c:9c:5d:ce:f1:96:b0:b5:2c:14:
                    d5:d9:da:d0:8c:54:4a:35:55:dd:69:3c:44:ba:ed:
                    97:f5:15:58:f1:42:d8:f5:b8:f5:b5:cb:d8:1b:dd:
                    5e:7d:17:27:cb:6e:3c:b0:df:9e:47:dd:ed:85:1f:
                    e1:6a:87:e7:15:25:e5:ae:58:55:a8:64:d3:67:43:
                    80:90:15:5e:0b:1b:b5:11:13:0d:9a:b7:d3:48:fb:
                    67:23:4e:6a:98:b5:13:0a:03:2d:0b:08:fb:3d:88:
                    7b:1c:45:76:21:d4:38:88:91:f5:64:1b:f9:79:f8:
                    c4:04:71:54:af:66:5d:b5:b4:a0:05:d7:9e:cd:c3:
                    d9:5f:7c:cc:90:57:44:41:bb:fb:f4:34:ee:90:2c:
                    37:93
                Exponent: 65537 (0x10001)
        X509v3 extensions:
            X509v3 Key Usage: 
                Digital Signature, Key Encipherment
            X509v3 Basic Constraints: 
                CA:FALSE
            Netscape Cert Type: 
                SSL Server
            Netscape Comment: 
                OpenSSL Generated Server Certificate
            X509v3 Subject Key Identifier: 
                B8:92:A6:65:6C:B6:AA:85:56:91:23:E8:4B:4B:C8:3F:1D:52:FE:89
            X509v3 Authority Key Identifier: 
                keyid:F4:A7:C0:CC:91:46:AF:64:F3:91:F2:27:F8:C8:B2:6F:8A:87:32:73
                DirName:/C=DE/ST=Hessen/O=privacyidea/CN=CA001
                serial:FB:C8:EB:AC:83:CD:12:07

            X509v3 Extended Key Usage: 
                TLS Web Server Authentication
    Signature Algorithm: sha256WithRSAEncryption
         87:f0:ca:04:14:e8:9b:a8:bf:13:52:e0:b7:4a:4c:86:59:fb:
         f1:33:df:d8:fd:9c:47:79:ba:d5:6d:9e:c3:58:6f:a9:63:c2:
         c5:82:a1:01:e4:a1:c3:99:ca:04:2b:db:79:fc:ef:cf:c3:9a:
         bf:22:5a:c0:5f:6e:a6:39:ab:9b:81:bd:32:98:62:c4:c4:f5:
         fb:00:ae:1d:e9:a3:d1:80:68:64:1b:a1:99:65:58:cd:d1:00:
         b6:bd:21:53:d8:f3:ba:f1:8a:d8:51:78:ae:be:52:0b:29:09:
         48:b2:01:03:ef:56:23:0b:ef:bc:ea:52:50:27:2d:1d:98:88:
         de:e1:3a:fd:1a:97:51:ff:a4:43:14:38:ad:5e:6e:1c:af:10:
         36:99:6b:b8:68:8a:1a:26:88:c5:8b:45:c6:9b:bf:b1:00:ed:
         fe:39:7a:56:bc:4d:56:db:fc:f0:ad:6e:fd:f2:14:e2:bb:c0:
         a1:8b:2e:b7:b2:4f:47:f3:f1:33:9e:34:8a:1a:81:a3:4a:cb:
         e0:d4:08:1e:8c:9d:ee:91:bb:61:83:db:01:1c:ec:75:71:cb:
         fa:2f:a9:a8:5e:90:cf:7a:28:02:fd:78:25:9a:3a:3d:75:61:
         58:77:e0:fd:bd:cb:6a:68:95:26:b3:60:18:bb:43:d9:c9:de:
         5f:a5:20:e0
-----BEGIN CERTIFICATE-----
MIIEIjCCAwqgAwIBAgIEEAAA7DANBgkqhkiG9w0BAQsFADBEMQswCQYDVQQGEwJE
RTEPMA0GA1UECAwGSGVzc2VuMRQwEgYDVQQKDAtwcml2YWN5aWRlYTEOMAwGA1UE
AwwFQ0EwMDEwHhcNMTkxMDI0MTIzNDA0WhcNMjAxMDIzMTIzNDA0WjBQMQ8wDQYD
VQQLDAZyZWFsbTExEjAQBgNVBAMMCWNvcm5lbGl1czEpMCcGCSqGSIb3DQEJARYa
dXNlckBsb2NhbGhvc3QubG9jYWxkb21haW4wggEiMA0GCSqGSIb3DQEBAQUAA4IB
DwAwggEKAoIBAQCyGyZpWZZkq05dgTd97K1SezWl0OrOdPIkplU19T+j2xDKbu7a
ul4YNZolaiA7yfPRawhLerkPOBLEE1CFyLFU2Hzqy6LE+HVd+2EE5/KOW/D9GLGl
b6OJBvOE9dfVYLUAkPOoweh730Z6A6ZJXJxdzvGWsLUsFNXZ2tCMVEo1Vd1pPES6
7Zf1FVjxQtj1uPW1y9gb3V59FyfLbjyw355H3e2FH+Fqh+cVJeWuWFWoZNNnQ4CQ
FV4LG7UREw2at9NI+2cjTmqYtRMKAy0LCPs9iHscRXYh1DiIkfVkG/l5+MQEcVSv
Zl21tKAF157Nw9lffMyQV0RBu/v0NO6QLDeTAgMBAAGjggEOMIIBCjALBgNVHQ8E
BAMCBaAwCQYDVR0TBAIwADARBglghkgBhvhCAQEEBAMCBkAwMwYJYIZIAYb4QgEN
BCYWJE9wZW5TU0wgR2VuZXJhdGVkIFNlcnZlciBDZXJ0aWZpY2F0ZTAdBgNVHQ4E
FgQUuJKmZWy2qoVWkSPoS0vIPx1S/okwdAYDVR0jBG0wa4AU9KfAzJFGr2TzkfIn
+Miyb4qHMnOhSKRGMEQxCzAJBgNVBAYTAkRFMQ8wDQYDVQQIDAZIZXNzZW4xFDAS
BgNVBAoMC3ByaXZhY3lpZGVhMQ4wDAYDVQQDDAVDQTAwMYIJAPvI66yDzRIHMBMG
A1UdJQQMMAoGCCsGAQUFBwMBMA0GCSqGSIb3DQEBCwUAA4IBAQCH8MoEFOibqL8T
UuC3SkyGWfvxM9/Y/ZxHebrVbZ7DWG+pY8LFgqEB5KHDmcoEK9t5/O/Pw5q/IlrA
X26mOaubgb0ymGLExPX7AK4d6aPRgGhkG6GZZVjN0QC2vSFT2PO68YrYUXiuvlIL
KQlIsgED71YjC++86lJQJy0dmIje4Tr9GpdR/6RDFDitXm4crxA2mWu4aIoaJojF
i0XGm7+xAO3+OXpWvE1W2/zwrW798hTiu8Chiy63sk9H8/EznjSKGoGjSsvg1Age
jJ3ukbthg9sBHOx1ccv6L6moXpDPeigC/Xglmjo9dWFYd+D9vctqaJUms2AYu0PZ
yd5fpSDg
-----END CERTIFICATE-----
