Certificate:
    Data:
        Version: 3 (0x2)
        Serial Number: 268435645 (0x100000bd)
    Signature Algorithm: sha1WithRSAEncryption
        Issuer: C=DE, ST=Hessen, O=privacyidea, CN=CA001
        Validity
            Not Before: Dec 12 18:20:42 2015 GMT
            Not After : Dec 11 18:20:42 2016 GMT
        Subject: C=DE, ST=Hessen, O=privacyidea, CN=requester.localdomain
        Subject Public Key Info:
            Public Key Algorithm: rsaEncryption
                Public-Key: (2048 bit)
                Modulus:
                    00:cd:be:14:4f:fa:ce:01:3f:42:22:1b:1d:9c:af:
                    dd:92:d2:7f:db:6c:b7:3e:39:43:43:6b:13:03:f1:
                    05:f4:07:74:bc:76:69:28:0b:af:19:8e:d7:fc:e3:
                    cd:c6:58:f2:ca:7f:08:6d:53:fc:07:02:44:24:c6:
                    b4:34:4c:8c:04:fe:33:0e:40:e2:20:ba:02:73:5a:
                    f7:f5:4f:63:6e:cc:c6:b6:df:54:1d:37:39:7d:51:
                    36:26:5f:bd:dc:3f:a8:8b:6b:a2:ae:b6:9d:d6:21:
                    e7:df:41:b8:7a:28:2a:68:48:ca:a8:2d:ed:e1:e9:
                    46:5e:5a:72:6d:b4:84:38:87:91:fd:94:11:0b:28:
                    84:c6:c2:2f:2a:fb:01:f9:36:7a:09:75:d1:33:88:
                    3c:73:41:5b:c8:bf:94:89:70:a1:f0:c0:b9:2e:50:
                    53:1e:b1:17:64:69:f4:2d:81:e0:a9:0d:0e:32:e9:
                    ba:55:8a:85:f1:1b:6f:49:79:b4:7f:88:c3:0d:3e:
                    54:88:9b:3d:1f:38:8c:04:f3:ee:6a:63:2b:f5:c6:
                    db:b4:83:aa:c4:78:41:3a:7d:4b:e1:c8:3e:71:ca:
                    1b:61:59:ea:c6:c4:ca:32:5e:c9:e9:bf:12:29:e6:
                    c6:c3:63:fe:a0:55:da:7a:f1:60:98:4d:26:ed:fa:
                    70:2d
                Exponent: 65537 (0x10001)
        X509v3 extensions:
            X509v3 Key Usage: 
                Digital Signature, Key Encipherment
            X509v3 Basic Constraints: 
                CA:FALSE
            Netscape Cert Type: 
                SSL Server
            Netscape Comment: 
                OpenSSL Generated Server Certificate
            X509v3 Subject Key Identifier: 
                53:3F:ED:5D:09:07:B3:65:7B:AB:45:C9:24:5B:09:77:80:0A:96:ED
            X509v3 Authority Key Identifier: 
                keyid:F4:A7:C0:CC:91:46:AF:64:F3:91:F2:27:F8:C8:B2:6F:8A:87:32:73
                DirName:/C=DE/ST=Hessen/O=privacyidea/CN=CA001
                serial:FB:C8:EB:AC:83:CD:12:07

            X509v3 Extended Key Usage: 
                TLS Web Server Authentication
    Signature Algorithm: sha1WithRSAEncryption
         60:d2:bb:8b:46:ba:71:c0:48:2b:51:40:54:fb:05:c0:3b:d4:
         16:d8:38:6d:d6:1f:0c:a0:87:5b:99:6d:c2:21:75:2a:8c:04:
         74:63:50:a0:69:a3:f7:12:f2:48:54:01:39:4e:ae:3a:01:53:
         3f:09:96:89:3d:f2:0d:f6:60:d7:e5:b1:fc:66:db:ca:81:d5:
         b4:97:3d:b8:18:9a:99:dd:e7:bb:e5:43:f8:6a:3e:33:9f:44:
         30:ff:72:65:82:2d:64:d7:a4:43:0f:ee:07:14:85:90:7d:c1:
         c0:c4:a5:5a:99:14:6e:29:e5:8c:fc:bb:51:29:6f:4e:8b:b0:
         ee:0b:76:fa:97:25:19:c9:d2:04:aa:da:bb:f9:95:e5:06:02:
         a8:b8:bb:35:64:f7:d1:e1:72:0b:b2:65:41:dc:29:82:d5:92:
         e1:a9:4b:05:74:36:91:d7:0a:16:6a:1b:90:22:06:3e:48:51:
         8e:ac:99:8f:d3:5e:19:e2:7b:9f:bb:d0:7a:bb:f4:ca:52:68:
         60:3c:a7:63:29:69:d9:c3:b5:7e:78:1e:bb:2b:9f:28:75:bc:
         c2:3b:f9:c4:28:41:87:de:7f:23:89:c5:a1:5c:1d:f0:5f:a1:
         dc:13:96:e5:b2:1e:81:bc:e5:4f:df:25:d4:0f:ba:eb:5f:95:
         a8:f1:02:19
-----BEGIN CERTIFICATE-----
MIIEJjCCAw6gAwIBAgIEEAAAvTANBgkqhkiG9w0BAQUFADBEMQswCQYDVQQGEwJE
RTEPMA0GA1UECAwGSGVzc2VuMRQwEgYDVQQKDAtwcml2YWN5aWRlYTEOMAwGA1UE
AwwFQ0EwMDEwHhcNMTUxMjEyMTgyMDQyWhcNMTYxMjExMTgyMDQyWjBUMQswCQYD
VQQGEwJERTEPMA0GA1UECAwGSGVzc2VuMRQwEgYDVQQKDAtwcml2YWN5aWRlYTEe
MBwGA1UEAwwVcmVxdWVzdGVyLmxvY2FsZG9tYWluMIIBIjANBgkqhkiG9w0BAQEF
AAOCAQ8AMIIBCgKCAQEAzb4UT/rOAT9CIhsdnK/dktJ/22y3PjlDQ2sTA/EF9Ad0
vHZpKAuvGY7X/OPNxljyyn8IbVP8BwJEJMa0NEyMBP4zDkDiILoCc1r39U9jbszG
tt9UHTc5fVE2Jl+93D+oi2uirrad1iHn30G4eigqaEjKqC3t4elGXlpybbSEOIeR
/ZQRCyiExsIvKvsB+TZ6CXXRM4g8c0FbyL+UiXCh8MC5LlBTHrEXZGn0LYHgqQ0O
Mum6VYqF8RtvSXm0f4jDDT5UiJs9HziMBPPuamMr9cbbtIOqxHhBOn1L4cg+ccob
YVnqxsTKMl7J6b8SKebGw2P+oFXaevFgmE0m7fpwLQIDAQABo4IBDjCCAQowCwYD
VR0PBAQDAgWgMAkGA1UdEwQCMAAwEQYJYIZIAYb4QgEBBAQDAgZAMDMGCWCGSAGG
+EIBDQQmFiRPcGVuU1NMIEdlbmVyYXRlZCBTZXJ2ZXIgQ2VydGlmaWNhdGUwHQYD
VR0OBBYEFFM/7V0JB7Nle6tFySRbCXeACpbtMHQGA1UdIwRtMGuAFPSnwMyRRq9k
85HyJ/jIsm+KhzJzoUikRjBEMQswCQYDVQQGEwJERTEPMA0GA1UECAwGSGVzc2Vu
MRQwEgYDVQQKDAtwcml2YWN5aWRlYTEOMAwGA1UEAwwFQ0EwMDGCCQD7yOusg80S
BzATBgNVHSUEDDAKBggrBgEFBQcDATANBgkqhkiG9w0BAQUFAAOCAQEAYNK7i0a6
ccBIK1FAVPsFwDvUFtg4bdYfDKCHW5ltwiF1KowEdGNQoGmj9xLySFQBOU6uOgFT
PwmWiT3yDfZg1+Wx/GbbyoHVtJc9uBiamd3nu+VD+Go+M59EMP9yZYItZNekQw/u
BxSFkH3BwMSlWpkUbinljPy7USlvTouw7gt2+pclGcnSBKrau/mV5QYCqLi7NWT3
0eFyC7JlQdwpgtWS4alLBXQ2kdcKFmobkCIGPkhRjqyZj9NeGeJ7n7vQerv0ylJo
YDynYylp2cO1fngeuyufKHW8wjv5xChBh95/I4nFoVwd8F+h3BOW5bIegbzlT98l
1A+661+VqPECGQ==
-----END CERTIFICATE-----
