Certificate:
    Data:
        Version: 3 (0x2)
        Serial Number: 268435616 (0x100000a0)
    Signature Algorithm: sha1WithRSAEncryption
        Issuer: C=DE, ST=Hessen, O=privacyidea, CN=CA001
        Validity
            Not Before: Sep 27 08:00:20 2015 GMT
            Not After : Sep 26 08:00:20 2016 GMT
        Subject: CN=selfservice,CN=user,O=realm1/emailAddress=meine
        Subject Public Key Info:
            Public Key Algorithm: rsaEncryption
                Public-Key: (2048 bit)
                Modulus:
                    00:cf:3c:d4:33:0e:12:c4:e6:da:cd:b6:56:a1:1c:
                    26:bb:26:1c:8a:4a:73:a8:58:8a:b6:1e:b3:8b:99:
                    d2:1d:07:c2:92:89:79:c0:69:d8:c8:df:28:61:98:
                    1e:b3:fe:ae:2b:bd:78:a9:f7:6e:47:dc:a3:a0:16:
                    8c:85:02:c1:4e:92:fd:72:6e:f0:c8:03:29:9b:b8:
                    00:6e:c0:83:95:c8:34:20:36:9c:b3:e5:e4:e6:76:
                    73:a3:1a:ad:40:96:e0:53:54:00:ec:76:79:9a:c6:
                    0d:7e:b6:bd:29:ec:83:f3:cb:89:a4:cb:6c:00:ba:
                    0c:c5:78:0f:ff:69:b8:94:f4:04:70:43:3f:d8:9e:
                    d7:a7:fb:5d:ce:75:8e:da:e7:c4:07:b1:9d:de:6f:
                    88:4b:b6:4d:9a:cf:f9:bc:fa:9f:cd:32:6d:f6:3a:
                    0b:0d:23:42:78:ec:97:42:bf:0e:4d:60:56:e1:d3:
                    02:f2:19:cb:84:57:90:e5:70:a1:a2:83:35:86:e2:
                    da:86:9f:f9:8a:c4:79:b3:52:28:da:cb:bb:34:ca:
                    d3:da:91:4a:cf:8d:76:a2:b2:6b:9b:f9:96:fd:09:
                    2a:da:11:23:4d:f0:cb:d6:b2:b1:0e:12:6c:9a:19:
                    65:98:87:ca:e4:ee:24:ce:44:ac:90:8f:9d:1b:c5:
                    2a:9d
                Exponent: 65537 (0x10001)
        X509v3 extensions:
            X509v3 Key Usage: 
                Digital Signature, Key Encipherment
            X509v3 Basic Constraints: 
                CA:FALSE
            Netscape Cert Type: 
                SSL Server
            Netscape Comment: 
                OpenSSL Generated Server Certificate
            X509v3 Subject Key Identifier: 
                4D:07:90:AD:FF:1D:0D:E7:1A:DD:D6:2E:FA:BA:34:CB:AA:1F:24:C6
            X509v3 Authority Key Identifier: 
                keyid:F4:A7:C0:CC:91:46:AF:64:F3:91:F2:27:F8:C8:B2:6F:8A:87:32:73
                DirName:/C=DE/ST=Hessen/O=privacyidea/CN=CA001
                serial:FB:C8:EB:AC:83:CD:12:07

            X509v3 Extended Key Usage: 
                TLS Web Server Authentication
    Signature Algorithm: sha1WithRSAEncryption
         51:29:4a:2a:07:d2:65:05:54:53:96:70:9e:86:8b:0d:9c:3f:
         66:a9:96:69:da:f1:29:58:65:90:9e:c2:54:28:c4:4f:a7:30:
         94:8c:b8:ee:10:c5:1b:f0:df:6d:41:41:5b:70:c6:c4:eb:e0:
         02:45:8c:b1:cf:c4:a6:47:23:8d:0b:82:7e:e4:21:ec:bc:04:
         e8:b7:e7:56:ec:c1:d5:8c:f0:2a:a5:5f:dd:41:aa:40:f7:e9:
         0c:eb:53:4a:14:e3:94:08:59:2c:06:74:e8:ba:ad:dd:bf:0d:
         84:f5:6b:bd:86:69:08:7a:88:40:fb:ee:5d:a4:2a:c4:c8:e1:
         93:82:ab:5b:bc:8f:e2:20:c1:9d:9b:3f:38:c9:02:37:6b:2d:
         69:fa:ff:27:08:bf:2b:9d:ef:5a:63:8d:cc:d0:e6:c4:9c:df:
         05:08:36:86:61:2f:61:29:88:c3:9a:02:a3:f6:bd:2d:ce:5f:
         20:c9:a2:03:9f:cc:eb:57:ff:de:84:cc:da:93:dd:27:de:b7:
         5e:21:74:74:39:06:b1:0c:e1:60:98:7b:fc:31:3f:19:16:62:
         1a:3a:c2:0f:9a:af:a0:6a:14:e7:76:89:19:b3:b4:5c:73:07:
         69:8a:57:d0:0b:7d:ce:33:1f:60:ce:94:54:bb:1a:e3:3c:0c:
         0d:78:f2:13
-----BEGIN CERTIFICATE-----
MIIEDzCCAvegAwIBAgIEEAAAoDANBgkqhkiG9w0BAQUFADBEMQswCQYDVQQGEwJE
RTEPMA0GA1UECAwGSGVzc2VuMRQwEgYDVQQKDAtwcml2YWN5aWRlYTEOMAwGA1UE
AwwFQ0EwMDEwHhcNMTUwOTI3MDgwMDIwWhcNMTYwOTI2MDgwMDIwWjA9MSUwIwYD
VQQDExxzZWxmc2VydmljZSxDTj11c2VyLE89cmVhbG0xMRQwEgYJKoZIhvcNAQkB
FgVtZWluZTCCASIwDQYJKoZIhvcNAQEBBQADggEPADCCAQoCggEBAM881DMOEsTm
2s22VqEcJrsmHIpKc6hYirYes4uZ0h0HwpKJecBp2MjfKGGYHrP+riu9eKn3bkfc
o6AWjIUCwU6S/XJu8MgDKZu4AG7Ag5XINCA2nLPl5OZ2c6MarUCW4FNUAOx2eZrG
DX62vSnsg/PLiaTLbAC6DMV4D/9puJT0BHBDP9ie16f7Xc51jtrnxAexnd5viEu2
TZrP+bz6n80ybfY6Cw0jQnjsl0K/Dk1gVuHTAvIZy4RXkOVwoaKDNYbi2oaf+YrE
ebNSKNrLuzTK09qRSs+NdqKya5v5lv0JKtoRI03wy9aysQ4SbJoZZZiHyuTuJM5E
rJCPnRvFKp0CAwEAAaOCAQ4wggEKMAsGA1UdDwQEAwIFoDAJBgNVHRMEAjAAMBEG
CWCGSAGG+EIBAQQEAwIGQDAzBglghkgBhvhCAQ0EJhYkT3BlblNTTCBHZW5lcmF0
ZWQgU2VydmVyIENlcnRpZmljYXRlMB0GA1UdDgQWBBRNB5Ct/x0N5xrd1i76ujTL
qh8kxjB0BgNVHSMEbTBrgBT0p8DMkUavZPOR8if4yLJviocyc6FIpEYwRDELMAkG
A1UEBhMCREUxDzANBgNVBAgMBkhlc3NlbjEUMBIGA1UECgwLcHJpdmFjeWlkZWEx
DjAMBgNVBAMMBUNBMDAxggkA+8jrrIPNEgcwEwYDVR0lBAwwCgYIKwYBBQUHAwEw
DQYJKoZIhvcNAQEFBQADggEBAFEpSioH0mUFVFOWcJ6Giw2cP2aplmna8SlYZZCe
wlQoxE+nMJSMuO4QxRvw321BQVtwxsTr4AJFjLHPxKZHI40Lgn7kIey8BOi351bs
wdWM8CqlX91BqkD36QzrU0oU45QIWSwGdOi6rd2/DYT1a72GaQh6iED77l2kKsTI
4ZOCq1u8j+IgwZ2bPzjJAjdrLWn6/ycIvyud71pjjczQ5sSc3wUINoZhL2EpiMOa
AqP2vS3OXyDJogOfzOtX/96EzNqT3Sfet14hdHQ5BrEM4WCYe/wxPxkWYho6wg+a
r6BqFOd2iRmztFxzB2mKV9ALfc4zH2DOlFS7GuM8DA148hM=
-----END CERTIFICATE-----
