Certificate:
    Data:
        Version: 3 (0x2)
        Serial Number: 268435652 (0x100000c4)
    Signature Algorithm: sha1WithRSAEncryption
        Issuer: C=DE, ST=Hessen, O=privacyidea, CN=CA001
        Validity
            Not Before: May  4 05:42:34 2016 GMT
            Not After : May  4 05:42:34 2017 GMT
        Subject: C=DE, ST=Hessen, O=privacyidea, CN=requester.localdomain
        Subject Public Key Info:
            Public Key Algorithm: rsaEncryption
                Public-Key: (2048 bit)
                Modulus:
                    00:cd:be:14:4f:fa:ce:01:3f:42:22:1b:1d:9c:af:
                    dd:92:d2:7f:db:6c:b7:3e:39:43:43:6b:13:03:f1:
                    05:f4:07:74:bc:76:69:28:0b:af:19:8e:d7:fc:e3:
                    cd:c6:58:f2:ca:7f:08:6d:53:fc:07:02:44:24:c6:
                    b4:34:4c:8c:04:fe:33:0e:40:e2:20:ba:02:73:5a:
                    f7:f5:4f:63:6e:cc:c6:b6:df:54:1d:37:39:7d:51:
                    36:26:5f:bd:dc:3f:a8:8b:6b:a2:ae:b6:9d:d6:21:
                    e7:df:41:b8:7a:28:2a:68:48:ca:a8:2d:ed:e1:e9:
                    46:5e:5a:72:6d:b4:84:38:87:91:fd:94:11:0b:28:
                    84:c6:c2:2f:2a:fb:01:f9:36:7a:09:75:d1:33:88:
                    3c:73:41:5b:c8:bf:94:89:70:a1:f0:c0:b9:2e:50:
                    53:1e:b1:17:64:69:f4:2d:81:e0:a9:0d:0e:32:e9:
                    ba:55:8a:85:f1:1b:6f:49:79:b4:7f:88:c3:0d:3e:
                    54:88:9b:3d:1f:38:8c:04:f3:ee:6a:63:2b:f5:c6:
                    db:b4:83:aa:c4:78:41:3a:7d:4b:e1:c8:3e:71:ca:
                    1b:61:59:ea:c6:c4:ca:32:5e:c9:e9:bf:12:29:e6:
                    c6:c3:63:fe:a0:55:da:7a:f1:60:98:4d:26:ed:fa:
                    70:2d
                Exponent: 65537 (0x10001)
        X509v3 extensions:
            X509v3 Key Usage: 
                Digital Signature, Key Encipherment
            X509v3 Basic Constraints: 
                CA:FALSE
            Netscape Cert Type: 
                SSL Server
            Netscape Comment: 
                OpenSSL Generated Server Certificate
            X509v3 Subject Key Identifier: 
                53:3F:ED:5D:09:07:B3:65:7B:AB:45:C9:24:5B:09:77:80:0A:96:ED
            X509v3 Authority Key Identifier: 
                keyid:F4:A7:C0:CC:91:46:AF:64:F3:91:F2:27:F8:C8:B2:6F:8A:87:32:73
                DirName:/C=DE/ST=Hessen/O=privacyidea/CN=CA001
                serial:FB:C8:EB:AC:83:CD:12:07

            X509v3 Extended Key Usage: 
                TLS Web Server Authentication
    Signature Algorithm: sha1WithRSAEncryption
         90:ce:6f:83:e2:43:6b:dc:2b:91:dc:69:3a:bc:7a:1a:47:4f:
         9b:68:94:1e:0f:d5:1e:47:e9:de:d8:72:e3:d7:00:5b:c8:fa:
         85:17:27:56:7e:07:3a:6b:00:4e:7b:50:39:89:5b:02:18:42:
         13:ac:3b:c2:48:08:76:c5:b3:3b:71:6a:e6:00:aa:b2:40:d4:
         3a:9a:de:1e:1f:37:36:c3:db:7d:f8:7a:ea:5f:1b:00:ac:b2:
         ca:7d:75:08:49:f6:bd:1b:e0:87:68:99:f9:e3:70:69:9a:8e:
         59:15:1f:b9:bb:4b:37:d4:2a:b5:26:e1:4b:56:55:d9:27:05:
         6a:e8:52:12:df:3b:50:73:2f:4b:7a:68:48:96:2e:be:79:e6:
         71:2f:4e:73:44:6c:ee:a9:0d:09:6d:9e:43:09:56:15:73:db:
         a7:df:c3:4a:3e:56:83:7c:f2:ce:7d:ad:c6:48:5d:c6:39:a3:
         5a:27:f8:9a:14:61:bc:2f:8c:23:e1:13:3b:9d:9b:bc:5d:af:
         a4:f3:f8:10:0c:5d:b2:d1:0c:7a:68:d8:eb:3c:82:63:12:75:
         d5:44:43:5c:ab:bc:be:ca:26:a9:24:60:b2:db:c2:84:bb:0e:
         a6:72:1c:4b:ac:4a:fe:27:05:70:ea:57:98:22:97:30:57:27:
         47:56:34:c2
-----BEGIN CERTIFICATE-----
MIIEJjCCAw6gAwIBAgIEEAAAxDANBgkqhkiG9w0BAQUFADBEMQswCQYDVQQGEwJE
RTEPMA0GA1UECAwGSGVzc2VuMRQwEgYDVQQKDAtwcml2YWN5aWRlYTEOMAwGA1UE
AwwFQ0EwMDEwHhcNMTYwNTA0MDU0MjM0WhcNMTcwNTA0MDU0MjM0WjBUMQswCQYD
VQQGEwJERTEPMA0GA1UECAwGSGVzc2VuMRQwEgYDVQQKDAtwcml2YWN5aWRlYTEe
MBwGA1UEAwwVcmVxdWVzdGVyLmxvY2FsZG9tYWluMIIBIjANBgkqhkiG9w0BAQEF
AAOCAQ8AMIIBCgKCAQEAzb4UT/rOAT9CIhsdnK/dktJ/22y3PjlDQ2sTA/EF9Ad0
vHZpKAuvGY7X/OPNxljyyn8IbVP8BwJEJMa0NEyMBP4zDkDiILoCc1r39U9jbszG
tt9UHTc5fVE2Jl+93D+oi2uirrad1iHn30G4eigqaEjKqC3t4elGXlpybbSEOIeR
/ZQRCyiExsIvKvsB+TZ6CXXRM4g8c0FbyL+UiXCh8MC5LlBTHrEXZGn0LYHgqQ0O
Mum6VYqF8RtvSXm0f4jDDT5UiJs9HziMBPPuamMr9cbbtIOqxHhBOn1L4cg+ccob
YVnqxsTKMl7J6b8SKebGw2P+oFXaevFgmE0m7fpwLQIDAQABo4IBDjCCAQowCwYD
VR0PBAQDAgWgMAkGA1UdEwQCMAAwEQYJYIZIAYb4QgEBBAQDAgZAMDMGCWCGSAGG
+EIBDQQmFiRPcGVuU1NMIEdlbmVyYXRlZCBTZXJ2ZXIgQ2VydGlmaWNhdGUwHQYD
VR0OBBYEFFM/7V0JB7Nle6tFySRbCXeACpbtMHQGA1UdIwRtMGuAFPSnwMyRRq9k
85HyJ/jIsm+KhzJzoUikRjBEMQswCQYDVQQGEwJERTEPMA0GA1UECAwGSGVzc2Vu
MRQwEgYDVQQKDAtwcml2YWN5aWRlYTEOMAwGA1UEAwwFQ0EwMDGCCQD7yOusg80S
BzATBgNVHSUEDDAKBggrBgEFBQcDATANBgkqhkiG9w0BAQUFAAOCAQEAkM5vg+JD
a9wrkdxpOrx6GkdPm2iUHg/VHkfp3thy49cAW8j6hRcnVn4HOmsATntQOYlbAhhC
E6w7wkgIdsWzO3Fq5gCqskDUOpreHh83NsPbffh66l8bAKyyyn11CEn2vRvgh2iZ
+eNwaZqOWRUfubtLN9QqtSbhS1ZV2ScFauhSEt87UHMvS3poSJYuvnnmcS9Oc0Rs
7qkNCW2eQwlWFXPbp9/DSj5Wg3zyzn2txkhdxjmjWif4mhRhvC+MI+ETO52bvF2v
pPP4EAxdstEMemjY6zyCYxJ11URDXKu8vsomqSRgstvChLsOpnIcS6xK/icFcOpX
mCKXMFcnR1Y0wg==
-----END CERTIFICATE-----
