Certificate:
    Data:
        Version: 3 (0x2)
        Serial Number: 268435711 (0x100000ff)
    Signature Algorithm: sha256WithRSAEncryption
        Issuer: C=DE, ST=Hessen, O=privacyidea, CN=CA001
        Validity
            Not Before: Jan  9 21:14:30 2019 GMT
            Not After : Jan  9 21:14:30 2020 GMT
        Subject: C=DE, ST=Hessen, O=privacyidea, CN=usercert
        Subject Public Key Info:
            Public Key Algorithm: rsaEncryption
                Public-Key: (2048 bit)
                Modulus:
                    00:dc:2f:d1:5f:29:97:d4:7c:c3:53:c8:30:bd:4b:
                    67:70:2c:24:6b:b8:5e:eb:21:7a:48:12:56:7c:81:
                    5c:48:75:b6:68:eb:f6:f2:98:4e:50:51:d1:7f:6c:
                    73:f3:0a:a7:ae:be:48:5e:e5:d6:e1:d9:2a:7c:32:
                    6e:4e:fd:08:f6:5a:54:49:23:73:c3:b9:07:18:d1:
                    ef:b3:ac:f8:8a:dc:94:96:a4:90:3a:8e:74:df:e6:
                    0d:37:1b:bd:5b:b7:25:1a:56:39:da:6f:91:aa:5e:
                    1c:74:f3:f9:7c:14:01:83:12:65:76:c7:bb:fe:36:
                    5b:95:e9:72:65:83:ed:3e:98:30:71:fa:87:dd:a3:
                    36:5a:30:03:2e:26:e0:61:d1:bf:02:3f:b6:06:1f:
                    4a:89:28:1c:5c:a2:ff:4e:be:94:e6:8c:e0:da:82:
                    f1:9d:29:32:48:30:73:b4:04:f6:42:1e:be:f7:e2:
                    32:32:27:3c:9d:89:2f:70:3e:85:9a:6f:5c:c5:09:
                    c0:8c:32:2f:72:22:c9:d2:95:1f:b6:ac:72:60:72:
                    b7:82:4d:6b:ce:5b:e3:00:d0:d2:2f:58:c6:e0:10:
                    e5:51:ca:4d:3b:2e:e6:7e:ab:84:d6:56:f1:93:35:
                    a0:93:64:26:81:75:2f:91:b5:16:06:38:0b:db:cc:
                    2d:07
                Exponent: 65537 (0x10001)
        X509v3 extensions:
            X509v3 Key Usage: 
                Digital Signature, Key Encipherment
            X509v3 Basic Constraints: 
                CA:FALSE
            Netscape Cert Type: 
                SSL Server
            Netscape Comment: 
                OpenSSL Generated Server Certificate
            X509v3 Subject Key Identifier: 
                FC:14:D1:F0:4B:8D:00:90:F2:F5:B8:71:9E:4E:97:C3:92:54:AD:0B
            X509v3 Authority Key Identifier: 
                keyid:F4:A7:C0:CC:91:46:AF:64:F3:91:F2:27:F8:C8:B2:6F:8A:87:32:73
                DirName:/C=DE/ST=Hessen/O=privacyidea/CN=CA001
                serial:FB:C8:EB:AC:83:CD:12:07

            X509v3 Extended Key Usage: 
                TLS Web Server Authentication
    Signature Algorithm: sha256WithRSAEncryption
         1e:61:58:db:f1:73:d6:84:46:04:0e:7c:05:8d:ff:dd:d7:5b:
         af:3f:25:af:b9:27:11:9e:30:24:9f:6e:59:ad:98:ef:5f:62:
         69:e8:38:b2:aa:be:ae:ff:d5:cd:ff:c9:ec:aa:bc:c5:5b:38:
         5f:c2:9b:eb:e7:5f:3c:41:59:9e:9b:04:d2:9d:ee:f8:66:a5:
         3d:75:fa:dc:08:1d:b7:4a:a3:07:2f:7d:da:eb:2e:d8:dc:ab:
         be:d3:72:57:bd:21:1c:e0:bb:95:76:2d:f9:86:1f:99:99:67:
         26:9d:e2:59:02:a1:38:53:02:f5:d1:90:49:06:e1:10:37:b2:
         95:91:3a:35:8d:be:eb:fa:fd:da:28:75:58:d6:5b:40:ce:fc:
         81:b6:07:7f:5d:22:3d:8e:9f:dd:0d:25:3d:36:0a:5b:77:b3:
         09:84:fd:60:bc:23:e6:67:df:1f:59:5c:35:6d:7b:a1:96:af:
         2d:24:25:39:b4:65:ab:b2:80:10:e7:f9:d4:b5:c0:56:d2:79:
         9f:1b:59:fd:3f:db:31:7b:25:6b:bf:24:f2:a4:bb:b4:ad:d5:
         9e:8e:ee:35:bd:05:ff:c1:cd:99:c7:80:04:d0:da:8e:48:68:
         97:b1:12:eb:c3:d1:6a:fc:01:ce:59:a1:a7:82:04:d8:37:71:
         64:3c:a4:b3
-----BEGIN CERTIFICATE-----
MIIEGTCCAwGgAwIBAgIEEAAA/zANBgkqhkiG9w0BAQsFADBEMQswCQYDVQQGEwJE
RTEPMA0GA1UECAwGSGVzc2VuMRQwEgYDVQQKDAtwcml2YWN5aWRlYTEOMAwGA1UE
AwwFQ0EwMDEwHhcNMTkwMTA5MjExNDMwWhcNMjAwMTA5MjExNDMwWjBHMQswCQYD
VQQGEwJERTEPMA0GA1UECAwGSGVzc2VuMRQwEgYDVQQKDAtwcml2YWN5aWRlYTER
MA8GA1UEAwwIdXNlcmNlcnQwggEiMA0GCSqGSIb3DQEBAQUAA4IBDwAwggEKAoIB
AQDcL9FfKZfUfMNTyDC9S2dwLCRruF7rIXpIElZ8gVxIdbZo6/bymE5QUdF/bHPz
Cqeuvkhe5dbh2Sp8Mm5O/Qj2WlRJI3PDuQcY0e+zrPiK3JSWpJA6jnTf5g03G71b
tyUaVjnab5GqXhx08/l8FAGDEmV2x7v+NluV6XJlg+0+mDBx+ofdozZaMAMuJuBh
0b8CP7YGH0qJKBxcov9OvpTmjODagvGdKTJIMHO0BPZCHr734jIyJzydiS9wPoWa
b1zFCcCMMi9yIsnSlR+2rHJgcreCTWvOW+MA0NIvWMbgEOVRyk07LuZ+q4TWVvGT
NaCTZCaBdS+RtRYGOAvbzC0HAgMBAAGjggEOMIIBCjALBgNVHQ8EBAMCBaAwCQYD
VR0TBAIwADARBglghkgBhvhCAQEEBAMCBkAwMwYJYIZIAYb4QgENBCYWJE9wZW5T
U0wgR2VuZXJhdGVkIFNlcnZlciBDZXJ0aWZpY2F0ZTAdBgNVHQ4EFgQU/BTR8EuN
AJDy9bhxnk6Xw5JUrQswdAYDVR0jBG0wa4AU9KfAzJFGr2TzkfIn+Miyb4qHMnOh
SKRGMEQxCzAJBgNVBAYTAkRFMQ8wDQYDVQQIDAZIZXNzZW4xFDASBgNVBAoMC3By
aXZhY3lpZGVhMQ4wDAYDVQQDDAVDQTAwMYIJAPvI66yDzRIHMBMGA1UdJQQMMAoG
CCsGAQUFBwMBMA0GCSqGSIb3DQEBCwUAA4IBAQAeYVjb8XPWhEYEDnwFjf/d11uv
PyWvuScRnjAkn25ZrZjvX2Jp6Diyqr6u/9XN/8nsqrzFWzhfwpvr5188QVmemwTS
ne74ZqU9dfrcCB23SqMHL33a6y7Y3Ku+03JXvSEc4LuVdi35hh+ZmWcmneJZAqE4
UwL10ZBJBuEQN7KVkTo1jb7r+v3aKHVY1ltAzvyBtgd/XSI9jp/dDSU9Ngpbd7MJ
hP1gvCPmZ98fWVw1bXuhlq8tJCU5tGWrsoAQ5/nUtcBW0nmfG1n9P9sxeyVrvyTy
pLu0rdWeju41vQX/wc2Zx4AE0NqOSGiXsRLrw9Fq/AHOWaGnggTYN3FkPKSz
-----END CERTIFICATE-----
