Certificate:
    Data:
        Version: 3 (0x2)
        Serial Number: 268435671 (0x100000d7)
        Signature Algorithm: sha256WithRSAEncryption
        Issuer: C=DE, ST=Hessen, O=privacyidea, CN=CA001
        Validity
            Not Before: Nov 29 13:09:45 2019 GMT
            Not After : Nov 28 13:09:45 2020 GMT
        Subject: OU=realm1, CN=cornelius/emailAddress=user@localhost.localdomain
        Subject Public Key Info:
            Public Key Algorithm: rsaEncryption
                RSA Public-Key: (2048 bit)
                Modulus:
                    00:b2:28:b1:d5:98:41:ad:57:01:10:55:72:e2:36:
                    bb:08:1b:3a:63:29:b8:ad:7c:89:e1:1b:b2:a1:50:
                    77:95:b0:ba:02:c3:97:c3:1d:03:1f:0d:6f:09:d1:
                    68:ac:88:ea:1b:8f:22:d0:6c:f9:dd:99:c7:ed:4f:
                    5b:65:e9:81:15:d5:98:11:39:c2:e4:f4:18:75:39:
                    12:f4:a3:7c:07:f7:66:e0:2a:26:51:a6:d4:de:be:
                    71:64:9c:97:19:cd:23:86:78:07:78:a4:7b:97:69:
                    c0:69:99:14:46:ca:ac:ae:a7:80:c4:ae:62:38:60:
                    8a:25:80:d4:9b:fe:8c:4b:63:bc:c9:15:bd:12:ea:
                    de:03:8b:b1:6a:6d:91:d7:f9:dc:09:c6:1a:0d:a3:
                    54:25:33:bf:74:32:ea:26:b3:35:2c:8a:0c:c7:0f:
                    c3:2a:c9:1a:5e:95:8d:f4:71:e6:45:64:52:60:53:
                    eb:dc:5f:5f:89:3c:92:c6:32:1f:44:c5:a1:84:03:
                    99:46:90:18:8f:b7:40:92:06:14:e8:ce:8e:2f:28:
                    a8:67:3d:92:79:59:ec:5d:ed:11:70:79:49:25:08:
                    e0:c0:2a:70:ab:a0:d7:6e:3b:b8:f6:cf:02:14:db:
                    14:04:c1:80:71:f2:ce:43:e8:6b:f8:44:ca:90:09:
                    f0:51
                Exponent: 65537 (0x10001)
        X509v3 extensions:
            X509v3 Key Usage: 
                Digital Signature, Key Encipherment
            X509v3 Basic Constraints: 
                CA:FALSE
            Netscape Cert Type: 
                SSL Server
            Netscape Comment: 
                OpenSSL Generated Server Certificate
            X509v3 Subject Key Identifier: 
                46:B5:BC:FD:4F:15:A8:48:D4:FF:DC:9D:62:49:52:ED:06:C6:E5:A3
            X509v3 Authority Key Identifier: 
                keyid:F4:A7:C0:CC:91:46:AF:64:F3:91:F2:27:F8:C8:B2:6F:8A:87:32:73
                DirName:/C=DE/ST=Hessen/O=privacyidea/CN=CA001
                serial:FB:C8:EB:AC:83:CD:12:07

            X509v3 Extended Key Usage: 
                TLS Web Server Authentication
    Signature Algorithm: sha256WithRSAEncryption
         59:cb:bd:f1:aa:4f:d3:81:6d:17:98:12:bc:e5:67:bf:e0:25:
         48:c0:33:40:ea:b3:ae:ba:af:f4:3e:99:fa:54:a4:33:c6:de:
         e0:d1:18:a2:50:92:81:b4:ff:c1:04:f8:9b:aa:12:0c:02:9a:
         ab:e6:cb:ef:57:ad:37:45:5c:08:ce:13:d3:1a:5f:aa:91:d3:
         58:2e:ac:59:0d:64:50:da:6b:9f:a9:85:b2:c3:b0:5b:c7:2c:
         c1:70:dd:48:f4:a6:90:c9:70:12:1d:35:ce:28:1e:c0:09:f6:
         13:54:f8:a3:31:13:6f:77:cb:f2:b5:4d:d4:98:2f:04:04:e0:
         5b:e1:2a:f6:ac:b3:32:44:39:5a:55:9b:ac:f3:d6:7f:f6:12:
         33:5e:1a:03:26:58:ea:0d:31:6a:fe:44:40:b3:ff:2a:b3:54:
         b7:75:ad:f6:7e:f6:5e:d3:84:69:c3:92:54:f6:2c:b8:89:14:
         a4:5f:8d:0f:5a:0e:77:9a:55:80:30:70:7c:01:32:c3:96:81:
         98:98:99:5e:51:fe:8e:92:73:0b:b2:8b:7e:f6:fe:f0:03:fc:
         f1:e7:28:47:67:02:aa:60:68:c2:54:45:88:8e:79:4e:87:dc:
         3a:58:09:e0:45:18:ed:55:6c:d6:55:9e:c3:50:31:56:01:f2:
         ed:f8:94:70
-----BEGIN CERTIFICATE-----
MIIEIjCCAwqgAwIBAgIEEAAA1zANBgkqhkiG9w0BAQsFADBEMQswCQYDVQQGEwJE
RTEPMA0GA1UECAwGSGVzc2VuMRQwEgYDVQQKDAtwcml2YWN5aWRlYTEOMAwGA1UE
AwwFQ0EwMDEwHhcNMTkxMTI5MTMwOTQ1WhcNMjAxMTI4MTMwOTQ1WjBQMQ8wDQYD
VQQLDAZyZWFsbTExEjAQBgNVBAMMCWNvcm5lbGl1czEpMCcGCSqGSIb3DQEJARYa
dXNlckBsb2NhbGhvc3QubG9jYWxkb21haW4wggEiMA0GCSqGSIb3DQEBAQUAA4IB
DwAwggEKAoIBAQCyKLHVmEGtVwEQVXLiNrsIGzpjKbitfInhG7KhUHeVsLoCw5fD
HQMfDW8J0WisiOobjyLQbPndmcftT1tl6YEV1ZgROcLk9Bh1ORL0o3wH92bgKiZR
ptTevnFknJcZzSOGeAd4pHuXacBpmRRGyqyup4DErmI4YIolgNSb/oxLY7zJFb0S
6t4Di7FqbZHX+dwJxhoNo1QlM790MuomszUsigzHD8MqyRpelY30ceZFZFJgU+vc
X1+JPJLGMh9ExaGEA5lGkBiPt0CSBhTozo4vKKhnPZJ5Wexd7RFweUklCODAKnCr
oNduO7j2zwIU2xQEwYBx8s5D6Gv4RMqQCfBRAgMBAAGjggEOMIIBCjALBgNVHQ8E
BAMCBaAwCQYDVR0TBAIwADARBglghkgBhvhCAQEEBAMCBkAwMwYJYIZIAYb4QgEN
BCYWJE9wZW5TU0wgR2VuZXJhdGVkIFNlcnZlciBDZXJ0aWZpY2F0ZTAdBgNVHQ4E
FgQURrW8/U8VqEjU/9ydYklS7QbG5aMwdAYDVR0jBG0wa4AU9KfAzJFGr2TzkfIn
+Miyb4qHMnOhSKRGMEQxCzAJBgNVBAYTAkRFMQ8wDQYDVQQIDAZIZXNzZW4xFDAS
BgNVBAoMC3ByaXZhY3lpZGVhMQ4wDAYDVQQDDAVDQTAwMYIJAPvI66yDzRIHMBMG
A1UdJQQMMAoGCCsGAQUFBwMBMA0GCSqGSIb3DQEBCwUAA4IBAQBZy73xqk/TgW0X
mBK85We/4CVIwDNA6rOuuq/0Ppn6VKQzxt7g0RiiUJKBtP/BBPibqhIMApqr5svv
V603RVwIzhPTGl+qkdNYLqxZDWRQ2mufqYWyw7BbxyzBcN1I9KaQyXASHTXOKB7A
CfYTVPijMRNvd8vytU3UmC8EBOBb4Sr2rLMyRDlaVZus89Z/9hIzXhoDJljqDTFq
/kRAs/8qs1S3da32fvZe04Rpw5JU9iy4iRSkX40PWg53mlWAMHB8ATLDloGYmJle
Uf6OknMLsot+9v7wA/zx5yhHZwKqYGjCVEWIjnlOh9w6WAngRRjtVWzWVZ7DUDFW
AfLt+JRw
-----END CERTIFICATE-----
