Certificate:
    Data:
        Version: 3 (0x2)
        Serial Number: 268435655 (0x100000c7)
    Signature Algorithm: sha1WithRSAEncryption
        Issuer: C=DE, ST=Hessen, O=privacyidea, CN=CA001
        Validity
            Not Before: May  4 05:45:04 2016 GMT
            Not After : May  4 05:45:04 2017 GMT
        Subject: C=DE, ST=Hessen, O=privacyidea, CN=requester.localdomain
        Subject Public Key Info:
            Public Key Algorithm: rsaEncryption
                Public-Key: (2048 bit)
                Modulus:
                    00:cd:be:14:4f:fa:ce:01:3f:42:22:1b:1d:9c:af:
                    dd:92:d2:7f:db:6c:b7:3e:39:43:43:6b:13:03:f1:
                    05:f4:07:74:bc:76:69:28:0b:af:19:8e:d7:fc:e3:
                    cd:c6:58:f2:ca:7f:08:6d:53:fc:07:02:44:24:c6:
                    b4:34:4c:8c:04:fe:33:0e:40:e2:20:ba:02:73:5a:
                    f7:f5:4f:63:6e:cc:c6:b6:df:54:1d:37:39:7d:51:
                    36:26:5f:bd:dc:3f:a8:8b:6b:a2:ae:b6:9d:d6:21:
                    e7:df:41:b8:7a:28:2a:68:48:ca:a8:2d:ed:e1:e9:
                    46:5e:5a:72:6d:b4:84:38:87:91:fd:94:11:0b:28:
                    84:c6:c2:2f:2a:fb:01:f9:36:7a:09:75:d1:33:88:
                    3c:73:41:5b:c8:bf:94:89:70:a1:f0:c0:b9:2e:50:
                    53:1e:b1:17:64:69:f4:2d:81:e0:a9:0d:0e:32:e9:
                    ba:55:8a:85:f1:1b:6f:49:79:b4:7f:88:c3:0d:3e:
                    54:88:9b:3d:1f:38:8c:04:f3:ee:6a:63:2b:f5:c6:
                    db:b4:83:aa:c4:78:41:3a:7d:4b:e1:c8:3e:71:ca:
                    1b:61:59:ea:c6:c4:ca:32:5e:c9:e9:bf:12:29:e6:
                    c6:c3:63:fe:a0:55:da:7a:f1:60:98:4d:26:ed:fa:
                    70:2d
                Exponent: 65537 (0x10001)
        X509v3 extensions:
            X509v3 Key Usage: 
                Digital Signature, Key Encipherment
            X509v3 Basic Constraints: 
                CA:FALSE
            Netscape Cert Type: 
                SSL Server
            Netscape Comment: 
                OpenSSL Generated Server Certificate
            X509v3 Subject Key Identifier: 
                53:3F:ED:5D:09:07:B3:65:7B:AB:45:C9:24:5B:09:77:80:0A:96:ED
            X509v3 Authority Key Identifier: 
                keyid:F4:A7:C0:CC:91:46:AF:64:F3:91:F2:27:F8:C8:B2:6F:8A:87:32:73
                DirName:/C=DE/ST=Hessen/O=privacyidea/CN=CA001
                serial:FB:C8:EB:AC:83:CD:12:07

            X509v3 Extended Key Usage: 
                TLS Web Server Authentication
    Signature Algorithm: sha1WithRSAEncryption
         1f:fe:17:9d:98:97:aa:b7:2c:a6:6d:54:5d:4d:a2:ac:98:12:
         4f:64:ce:37:64:4c:d9:b2:ec:82:9d:96:a4:4f:81:24:ec:b4:
         3c:8a:37:4f:f3:cd:d9:14:74:b3:b1:c4:28:56:87:65:d7:fd:
         f8:91:cb:ae:89:e7:c7:9b:8d:66:d5:bc:66:f7:f6:4d:31:b4:
         17:34:42:f4:6c:c7:00:9b:17:4d:f6:dd:66:2b:68:6a:1c:6b:
         75:76:66:21:bb:de:bf:dd:1a:89:4a:e5:87:ce:cf:86:71:e7:
         11:6d:cc:64:13:9c:8a:ee:b6:b6:bd:dd:89:9e:4f:4d:83:d9:
         8d:80:6d:2f:54:9b:f1:33:e9:19:be:eb:a0:4e:fb:81:13:f1:
         a3:ee:a8:c1:0e:8f:f1:03:cf:6a:f1:a8:f9:ac:5b:3d:fa:26:
         dc:c1:23:af:e8:44:75:48:60:65:f5:cc:65:c4:e4:6b:35:77:
         d7:7c:e8:3b:d0:9c:4c:32:2f:bf:7c:ad:bd:a0:9d:d8:bc:10:
         21:b8:e6:1b:d1:66:16:f5:61:98:4a:f0:e4:e5:f7:1f:e2:1e:
         e7:26:e1:2b:09:29:ce:ea:99:dc:21:7b:73:a2:15:1f:7d:7e:
         72:c1:1a:93:41:66:b0:88:42:04:73:da:04:04:25:cc:24:9d:
         8a:14:28:2e
-----BEGIN CERTIFICATE-----
MIIEJjCCAw6gAwIBAgIEEAAAxzANBgkqhkiG9w0BAQUFADBEMQswCQYDVQQGEwJE
RTEPMA0GA1UECAwGSGVzc2VuMRQwEgYDVQQKDAtwcml2YWN5aWRlYTEOMAwGA1UE
AwwFQ0EwMDEwHhcNMTYwNTA0MDU0NTA0WhcNMTcwNTA0MDU0NTA0WjBUMQswCQYD
VQQGEwJERTEPMA0GA1UECAwGSGVzc2VuMRQwEgYDVQQKDAtwcml2YWN5aWRlYTEe
MBwGA1UEAwwVcmVxdWVzdGVyLmxvY2FsZG9tYWluMIIBIjANBgkqhkiG9w0BAQEF
AAOCAQ8AMIIBCgKCAQEAzb4UT/rOAT9CIhsdnK/dktJ/22y3PjlDQ2sTA/EF9Ad0
vHZpKAuvGY7X/OPNxljyyn8IbVP8BwJEJMa0NEyMBP4zDkDiILoCc1r39U9jbszG
tt9UHTc5fVE2Jl+93D+oi2uirrad1iHn30G4eigqaEjKqC3t4elGXlpybbSEOIeR
/ZQRCyiExsIvKvsB+TZ6CXXRM4g8c0FbyL+UiXCh8MC5LlBTHrEXZGn0LYHgqQ0O
Mum6VYqF8RtvSXm0f4jDDT5UiJs9HziMBPPuamMr9cbbtIOqxHhBOn1L4cg+ccob
YVnqxsTKMl7J6b8SKebGw2P+oFXaevFgmE0m7fpwLQIDAQABo4IBDjCCAQowCwYD
VR0PBAQDAgWgMAkGA1UdEwQCMAAwEQYJYIZIAYb4QgEBBAQDAgZAMDMGCWCGSAGG
+EIBDQQmFiRPcGVuU1NMIEdlbmVyYXRlZCBTZXJ2ZXIgQ2VydGlmaWNhdGUwHQYD
VR0OBBYEFFM/7V0JB7Nle6tFySRbCXeACpbtMHQGA1UdIwRtMGuAFPSnwMyRRq9k
85HyJ/jIsm+KhzJzoUikRjBEMQswCQYDVQQGEwJERTEPMA0GA1UECAwGSGVzc2Vu
MRQwEgYDVQQKDAtwcml2YWN5aWRlYTEOMAwGA1UEAwwFQ0EwMDGCCQD7yOusg80S
BzATBgNVHSUEDDAKBggrBgEFBQcDATANBgkqhkiG9w0BAQUFAAOCAQEAH/4XnZiX
qrcspm1UXU2irJgST2TON2RM2bLsgp2WpE+BJOy0PIo3T/PN2RR0s7HEKFaHZdf9
+JHLronnx5uNZtW8Zvf2TTG0FzRC9GzHAJsXTfbdZitoahxrdXZmIbvev90aiUrl
h87PhnHnEW3MZBOciu62tr3diZ5PTYPZjYBtL1Sb8TPpGb7roE77gRPxo+6owQ6P
8QPPavGo+axbPfom3MEjr+hEdUhgZfXMZcTkazV313zoO9CcTDIvv3ytvaCd2LwQ
IbjmG9FmFvVhmErw5OX3H+Ie5ybhKwkpzuqZ3CF7c6IVH31+csEak0FmsIhCBHPa
BAQlzCSdihQoLg==
-----END CERTIFICATE-----
