Certificate:
    Data:
        Version: 3 (0x2)
        Serial Number: 268435604 (0x10000094)
    Signature Algorithm: sha1WithRSAEncryption
        Issuer: C=DE, ST=Hessen, O=privacyidea, CN=CA001
        Validity
            Not Before: Jun 15 13:03:37 2015 GMT
            Not After : Jun 14 13:03:37 2016 GMT
        Subject: CN=Steve Test/emailAddress=steve@openssl.org
        Subject Public Key Info:
            Public Key Algorithm: rsaEncryption
                Public-Key: (2048 bit)
                Modulus:
                    00:d2:81:89:20:51:48:0f:73:f4:11:32:24:d5:1f:
                    1c:fd:5c:f5:b6:e6:c5:f0:52:81:dc:d2:af:66:4a:
                    7c:93:31:61:5c:af:d1:6d:06:70:03:60:7c:72:0c:
                    88:dd:49:cd:9e:02:6c:d2:5a:d7:53:0f:f3:da:be:
                    69:64:b5:0f:0c:00:e3:b3:50:47:a3:b3:9b:ba:13:
                    50:d6:58:5a:4b:ab:39:e0:11:ca:0a:27:67:03:78:
                    22:66:6d:92:1e:1b:5c:49:ae:e6:6b:d1:8e:3b:9d:
                    06:d3:c6:ac:4d:53:43:10:ab:e8:96:c1:87:82:97:
                    99:8f:20:d3:99:12:37:31:84:e1:8a:ff:29:03:5f:
                    22:90:3e:7f:9b:e0:20:c1:ad:dc:ae:4c:39:1a:31:
                    96:17:02:8c:b2:d9:b4:0d:20:12:9b:7d:86:54:fd:
                    33:fd:c1:2a:62:46:f8:60:96:cf:6e:01:6f:22:df:
                    13:47:e7:97:ec:05:72:23:a3:62:f8:fa:ef:ac:9c:
                    72:f0:37:cb:2f:37:cf:90:a8:27:51:86:c6:d7:78:
                    08:8f:7e:25:a2:15:70:a2:fb:1c:b6:15:5e:a0:97:
                    8b:81:4c:09:28:8a:27:3b:94:bc:71:db:5b:71:37:
                    9a:2b:16:e0:6f:b5:c9:f5:4b:4f:20:ba:65:cf:af:
                    ad:ad
                Exponent: 65537 (0x10001)
        X509v3 extensions:
            X509v3 Key Usage: 
                Digital Signature, Key Encipherment
            X509v3 Basic Constraints: 
                CA:FALSE
            Netscape Cert Type: 
                SSL Server
            Netscape Comment: 
                OpenSSL Generated Server Certificate
            X509v3 Subject Key Identifier: 
                E5:25:6D:3E:AF:0D:DD:3F:4C:F2:45:19:39:D5:14:DB:7E:9C:C0:AD
            X509v3 Authority Key Identifier: 
                keyid:F4:A7:C0:CC:91:46:AF:64:F3:91:F2:27:F8:C8:B2:6F:8A:87:32:73
                DirName:/C=DE/ST=Hessen/O=privacyidea/CN=CA001
                serial:FB:C8:EB:AC:83:CD:12:07

            X509v3 Extended Key Usage: 
                TLS Web Server Authentication
    Signature Algorithm: sha1WithRSAEncryption
         a9:64:87:70:b6:5c:a0:24:f6:79:86:53:37:05:55:3b:5c:9c:
         1a:fb:f2:82:7f:1f:36:1c:5b:6f:77:d3:eb:2d:16:b0:60:8e:
         84:3e:7a:c8:60:bb:1f:36:ff:c5:40:09:00:7b:af:db:9c:88:
         fc:4e:f3:6a:fd:68:82:8d:f2:ab:dd:7c:86:b8:6b:f7:7f:a9:
         b3:3e:32:db:e1:e2:d5:21:8f:ed:48:d9:85:4c:88:93:c6:a1:
         45:d6:a4:43:1d:8d:20:1d:a1:3e:d0:fa:28:ff:1d:6a:73:0e:
         74:d8:ee:75:ea:cd:22:8a:fc:9f:e3:81:73:44:7d:84:3f:d5:
         58:ec:90:1a:9f:6a:77:48:92:af:18:5b:60:d8:80:b6:24:0c:
         9e:6e:11:52:5a:bc:62:7c:95:e4:32:f1:fa:fd:b3:c4:8e:ac:
         28:1f:7a:c8:6d:8d:41:53:ac:4e:35:29:ec:dc:25:52:d3:90:
         c8:54:bd:33:74:33:3c:a7:e8:96:3e:ec:ca:ee:10:2f:e5:c3:
         9b:4f:47:84:ee:ec:05:15:c1:69:2c:e0:97:f4:ef:6d:3d:eb:
         19:8b:21:3b:29:50:19:2d:69:de:ff:5a:53:52:6c:87:c7:1a:
         fd:34:bd:df:69:93:77:20:c1:54:fe:49:70:a3:b8:0b:b8:17:
         e8:54:08:3e
-----BEGIN CERTIFICATE-----
MIIECTCCAvGgAwIBAgIEEAAAlDANBgkqhkiG9w0BAQUFADBEMQswCQYDVQQGEwJE
RTEPMA0GA1UECAwGSGVzc2VuMRQwEgYDVQQKDAtwcml2YWN5aWRlYTEOMAwGA1UE
AwwFQ0EwMDEwHhcNMTUwNjE1MTMwMzM3WhcNMTYwNjE0MTMwMzM3WjA3MRMwEQYD
VQQDEwpTdGV2ZSBUZXN0MSAwHgYJKoZIhvcNAQkBFhFzdGV2ZUBvcGVuc3NsLm9y
ZzCCASIwDQYJKoZIhvcNAQEBBQADggEPADCCAQoCggEBANKBiSBRSA9z9BEyJNUf
HP1c9bbmxfBSgdzSr2ZKfJMxYVyv0W0GcANgfHIMiN1JzZ4CbNJa11MP89q+aWS1
DwwA47NQR6Ozm7oTUNZYWkurOeARygonZwN4ImZtkh4bXEmu5mvRjjudBtPGrE1T
QxCr6JbBh4KXmY8g05kSNzGE4Yr/KQNfIpA+f5vgIMGt3K5MORoxlhcCjLLZtA0g
Ept9hlT9M/3BKmJG+GCWz24BbyLfE0fnl+wFciOjYvj676yccvA3yy83z5CoJ1GG
xtd4CI9+JaIVcKL7HLYVXqCXi4FMCSiKJzuUvHHbW3E3misW4G+1yfVLTyC6Zc+v
ra0CAwEAAaOCAQ4wggEKMAsGA1UdDwQEAwIFoDAJBgNVHRMEAjAAMBEGCWCGSAGG
+EIBAQQEAwIGQDAzBglghkgBhvhCAQ0EJhYkT3BlblNTTCBHZW5lcmF0ZWQgU2Vy
dmVyIENlcnRpZmljYXRlMB0GA1UdDgQWBBTlJW0+rw3dP0zyRRk51RTbfpzArTB0
BgNVHSMEbTBrgBT0p8DMkUavZPOR8if4yLJviocyc6FIpEYwRDELMAkGA1UEBhMC
REUxDzANBgNVBAgMBkhlc3NlbjEUMBIGA1UECgwLcHJpdmFjeWlkZWExDjAMBgNV
BAMMBUNBMDAxggkA+8jrrIPNEgcwEwYDVR0lBAwwCgYIKwYBBQUHAwEwDQYJKoZI
hvcNAQEFBQADggEBAKlkh3C2XKAk9nmGUzcFVTtcnBr78oJ/HzYcW2930+stFrBg
joQ+eshgux82/8VACQB7r9uciPxO82r9aIKN8qvdfIa4a/d/qbM+Mtvh4tUhj+1I
2YVMiJPGoUXWpEMdjSAdoT7Q+ij/HWpzDnTY7nXqzSKK/J/jgXNEfYQ/1VjskBqf
andIkq8YW2DYgLYkDJ5uEVJavGJ8leQy8fr9s8SOrCgfeshtjUFTrE41KezcJVLT
kMhUvTN0Mzyn6JY+7MruEC/lw5tPR4Tu7AUVwWks4Jf072096xmLITspUBktad7/
WlNSbIfHGv00vd9pk3cgwVT+SXCjuAu4F+hUCD4=
-----END CERTIFICATE-----
