Certificate:
    Data:
        Version: 3 (0x2)
        Serial Number: 268435608 (0x10000098)
    Signature Algorithm: sha1WithRSAEncryption
        Issuer: C=DE, ST=Hessen, O=privacyidea, CN=CA001
        Validity
            Not Before: Sep 27 07:48:16 2015 GMT
            Not After : Sep 26 07:48:16 2016 GMT
        Subject: C=DE, ST=Hessen, O=privacyidea, CN=requester.localdomain
        Subject Public Key Info:
            Public Key Algorithm: rsaEncryption
                Public-Key: (2048 bit)
                Modulus:
                    00:cd:be:14:4f:fa:ce:01:3f:42:22:1b:1d:9c:af:
                    dd:92:d2:7f:db:6c:b7:3e:39:43:43:6b:13:03:f1:
                    05:f4:07:74:bc:76:69:28:0b:af:19:8e:d7:fc:e3:
                    cd:c6:58:f2:ca:7f:08:6d:53:fc:07:02:44:24:c6:
                    b4:34:4c:8c:04:fe:33:0e:40:e2:20:ba:02:73:5a:
                    f7:f5:4f:63:6e:cc:c6:b6:df:54:1d:37:39:7d:51:
                    36:26:5f:bd:dc:3f:a8:8b:6b:a2:ae:b6:9d:d6:21:
                    e7:df:41:b8:7a:28:2a:68:48:ca:a8:2d:ed:e1:e9:
                    46:5e:5a:72:6d:b4:84:38:87:91:fd:94:11:0b:28:
                    84:c6:c2:2f:2a:fb:01:f9:36:7a:09:75:d1:33:88:
                    3c:73:41:5b:c8:bf:94:89:70:a1:f0:c0:b9:2e:50:
                    53:1e:b1:17:64:69:f4:2d:81:e0:a9:0d:0e:32:e9:
                    ba:55:8a:85:f1:1b:6f:49:79:b4:7f:88:c3:0d:3e:
                    54:88:9b:3d:1f:38:8c:04:f3:ee:6a:63:2b:f5:c6:
                    db:b4:83:aa:c4:78:41:3a:7d:4b:e1:c8:3e:71:ca:
                    1b:61:59:ea:c6:c4:ca:32:5e:c9:e9:bf:12:29:e6:
                    c6:c3:63:fe:a0:55:da:7a:f1:60:98:4d:26:ed:fa:
                    70:2d
                Exponent: 65537 (0x10001)
        X509v3 extensions:
            X509v3 Key Usage: 
                Digital Signature, Key Encipherment
            X509v3 Basic Constraints: 
                CA:FALSE
            Netscape Cert Type: 
                SSL Server
            Netscape Comment: 
                OpenSSL Generated Server Certificate
            X509v3 Subject Key Identifier: 
                53:3F:ED:5D:09:07:B3:65:7B:AB:45:C9:24:5B:09:77:80:0A:96:ED
            X509v3 Authority Key Identifier: 
                keyid:F4:A7:C0:CC:91:46:AF:64:F3:91:F2:27:F8:C8:B2:6F:8A:87:32:73
                DirName:/C=DE/ST=Hessen/O=privacyidea/CN=CA001
                serial:FB:C8:EB:AC:83:CD:12:07

            X509v3 Extended Key Usage: 
                TLS Web Server Authentication
    Signature Algorithm: sha1WithRSAEncryption
         7d:92:6c:a1:12:0c:d2:46:36:41:f3:76:02:74:cc:ec:91:32:
         66:47:0a:58:8f:bb:a8:9e:10:5d:2a:f9:55:f7:77:1d:7d:30:
         21:88:6c:53:34:a0:c5:bc:5a:59:90:09:a3:9b:55:10:8e:64:
         f2:dd:08:bc:a5:74:a7:33:3a:c8:23:28:0e:25:26:57:bc:e7:
         ad:6a:64:af:a2:71:e0:dc:f2:37:a0:60:c6:a4:2b:f4:1c:61:
         5d:49:76:38:ff:f1:21:81:62:99:a3:79:4f:a6:92:88:4c:a1:
         98:14:81:99:09:e3:ce:52:e3:20:a9:78:60:b1:94:00:47:6e:
         cf:1a:09:60:51:ef:fd:d4:2f:49:fb:50:09:1b:15:37:f0:3d:
         10:1f:e7:cc:04:04:02:59:62:15:37:b4:07:d6:bf:ab:cc:49:
         b9:01:b4:68:3c:e4:fa:d4:7e:c2:1f:30:c3:8c:3c:d2:fb:59:
         ac:e0:6a:54:81:24:cc:da:7b:45:20:44:0c:9f:46:41:56:c3:
         71:9a:65:cb:d9:6d:f7:60:1a:cc:5c:0c:95:66:1e:22:fe:7e:
         52:d9:76:03:fd:e8:9a:a7:37:1d:ea:1b:d8:ae:6a:68:7e:14:
         d8:51:84:7e:c4:c9:1a:10:43:f9:8d:6c:15:7d:97:72:9a:da:
         3b:86:8d:85
-----BEGIN CERTIFICATE-----
MIIEJjCCAw6gAwIBAgIEEAAAmDANBgkqhkiG9w0BAQUFADBEMQswCQYDVQQGEwJE
RTEPMA0GA1UECAwGSGVzc2VuMRQwEgYDVQQKDAtwcml2YWN5aWRlYTEOMAwGA1UE
AwwFQ0EwMDEwHhcNMTUwOTI3MDc0ODE2WhcNMTYwOTI2MDc0ODE2WjBUMQswCQYD
VQQGEwJERTEPMA0GA1UECAwGSGVzc2VuMRQwEgYDVQQKDAtwcml2YWN5aWRlYTEe
MBwGA1UEAwwVcmVxdWVzdGVyLmxvY2FsZG9tYWluMIIBIjANBgkqhkiG9w0BAQEF
AAOCAQ8AMIIBCgKCAQEAzb4UT/rOAT9CIhsdnK/dktJ/22y3PjlDQ2sTA/EF9Ad0
vHZpKAuvGY7X/OPNxljyyn8IbVP8BwJEJMa0NEyMBP4zDkDiILoCc1r39U9jbszG
tt9UHTc5fVE2Jl+93D+oi2uirrad1iHn30G4eigqaEjKqC3t4elGXlpybbSEOIeR
/ZQRCyiExsIvKvsB+TZ6CXXRM4g8c0FbyL+UiXCh8MC5LlBTHrEXZGn0LYHgqQ0O
Mum6VYqF8RtvSXm0f4jDDT5UiJs9HziMBPPuamMr9cbbtIOqxHhBOn1L4cg+ccob
YVnqxsTKMl7J6b8SKebGw2P+oFXaevFgmE0m7fpwLQIDAQABo4IBDjCCAQowCwYD
VR0PBAQDAgWgMAkGA1UdEwQCMAAwEQYJYIZIAYb4QgEBBAQDAgZAMDMGCWCGSAGG
+EIBDQQmFiRPcGVuU1NMIEdlbmVyYXRlZCBTZXJ2ZXIgQ2VydGlmaWNhdGUwHQYD
VR0OBBYEFFM/7V0JB7Nle6tFySRbCXeACpbtMHQGA1UdIwRtMGuAFPSnwMyRRq9k
85HyJ/jIsm+KhzJzoUikRjBEMQswCQYDVQQGEwJERTEPMA0GA1UECAwGSGVzc2Vu
MRQwEgYDVQQKDAtwcml2YWN5aWRlYTEOMAwGA1UEAwwFQ0EwMDGCCQD7yOusg80S
BzATBgNVHSUEDDAKBggrBgEFBQcDATANBgkqhkiG9w0BAQUFAAOCAQEAfZJsoRIM
0kY2QfN2AnTM7JEyZkcKWI+7qJ4QXSr5Vfd3HX0wIYhsUzSgxbxaWZAJo5tVEI5k
8t0IvKV0pzM6yCMoDiUmV7znrWpkr6Jx4NzyN6BgxqQr9BxhXUl2OP/xIYFimaN5
T6aSiEyhmBSBmQnjzlLjIKl4YLGUAEduzxoJYFHv/dQvSftQCRsVN/A9EB/nzAQE
AlliFTe0B9a/q8xJuQG0aDzk+tR+wh8ww4w80vtZrOBqVIEkzNp7RSBEDJ9GQVbD
cZply9lt92AazFwMlWYeIv5+Utl2A/3omqc3Heob2K5qaH4U2FGEfsTJGhBD+Y1s
FX2XcpraO4aNhQ==
-----END CERTIFICATE-----
