Certificate:
    Data:
        Version: 3 (0x2)
        Serial Number: 268435637 (0x100000b5)
    Signature Algorithm: sha1WithRSAEncryption
        Issuer: C=DE, ST=Hessen, O=privacyidea, CN=CA001
        Validity
            Not Before: Sep 19 13:24:22 2015 GMT
            Not After : Sep 18 13:24:22 2016 GMT
        Subject: CN=admin,CN=admin,O=/emailAddress=meine
        Subject Public Key Info:
            Public Key Algorithm: rsaEncryption
                Public-Key: (2048 bit)
                Modulus:
                    00:c4:f0:26:96:e3:2b:80:14:c0:31:cc:55:fb:89:
                    cd:5f:99:a3:8b:1d:3e:5a:89:1a:d5:8d:84:a1:e1:
                    14:7e:36:02:49:e4:73:66:54:ba:89:3a:83:1b:f4:
                    45:ea:8f:a0:84:cb:80:10:c9:2f:78:3b:8c:c4:7f:
                    e7:15:f1:3d:56:2c:31:94:e3:4e:f0:1c:16:d7:17:
                    25:63:14:21:7c:07:7c:89:53:cd:cd:86:a6:cf:7c:
                    c0:c9:85:90:6a:79:60:05:3a:69:b6:cc:7a:30:51:
                    85:59:c0:41:e1:57:0a:87:15:56:ed:42:ba:bd:be:
                    8b:b8:26:4e:19:87:78:af:2c:48:16:ca:d0:8a:b2:
                    d6:48:1c:56:1b:52:e0:6b:ab:09:dd:43:e0:cb:69:
                    0d:c0:a1:0a:3a:46:f2:80:77:80:7e:59:af:bb:2a:
                    ec:e2:b9:74:fe:b1:aa:23:c4:3b:48:e1:60:89:12:
                    33:95:dd:8b:08:58:12:37:be:b3:60:44:dd:17:2c:
                    93:62:05:46:d4:75:68:44:21:de:9f:27:77:b8:34:
                    1c:18:d1:cf:42:83:8f:0a:d1:e8:e9:89:54:74:84:
                    47:81:32:a9:d2:b4:3b:4f:c6:32:0f:07:91:77:89:
                    8e:cf:22:38:83:0a:87:b4:a7:52:70:3f:34:99:14:
                    9a:4d
                Exponent: 65537 (0x10001)
        X509v3 extensions:
            X509v3 Key Usage: 
                Digital Signature, Key Encipherment
            X509v3 Basic Constraints: 
                CA:FALSE
            Netscape Cert Type: 
                SSL Server
            Netscape Comment: 
                OpenSSL Generated Server Certificate
            X509v3 Subject Key Identifier: 
                C3:42:90:B0:4A:B2:18:5F:37:54:9E:DD:B4:21:49:C0:CB:A1:E3:6B
            X509v3 Authority Key Identifier: 
                keyid:F4:A7:C0:CC:91:46:AF:64:F3:91:F2:27:F8:C8:B2:6F:8A:87:32:73
                DirName:/C=DE/ST=Hessen/O=privacyidea/CN=CA001
                serial:FB:C8:EB:AC:83:CD:12:07

            X509v3 Extended Key Usage: 
                TLS Web Server Authentication
    Signature Algorithm: sha1WithRSAEncryption
         74:6d:d1:21:8c:a5:d4:b7:ae:61:b8:c6:ba:28:de:78:6b:25:
         f7:65:a5:c1:78:c7:27:3a:3b:df:aa:e4:78:89:b2:26:45:16:
         16:ff:97:c3:42:fd:4c:95:f8:78:17:c0:67:2b:e0:a1:ef:53:
         f2:14:59:e0:94:da:89:2c:1c:45:00:3d:15:64:6f:50:85:b3:
         72:db:b3:7d:5e:57:c0:b0:90:ed:d8:d2:96:66:c2:8b:9b:c5:
         41:a9:66:db:99:17:d9:5d:1c:10:fe:52:37:f7:04:78:17:3f:
         d8:a0:75:10:6f:9a:d8:24:73:7e:d1:83:34:21:97:3b:4d:cb:
         5c:a2:92:c6:65:eb:b3:93:c5:ee:8e:fa:28:07:4b:5c:13:f9:
         9c:fc:c9:63:fe:53:3c:b7:45:77:a3:c2:1f:4c:0b:87:64:47:
         23:b8:c9:d4:62:87:6f:90:d5:41:86:4c:77:d5:97:34:78:87:
         b8:b5:e4:62:8e:b2:56:0e:a5:53:da:1a:7c:2f:92:13:54:de:
         82:6e:72:2e:b1:c0:b6:c7:0f:fe:69:5c:43:a4:8e:34:84:b9:
         a4:c1:36:13:41:09:fe:02:cd:93:2c:7b:e9:a9:7f:f0:eb:a5:
         4d:fc:18:25:be:87:7b:fa:d3:36:4c:d1:93:4e:52:b1:0d:34:
         41:31:98:f6
-----BEGIN CERTIFICATE-----
MIIEBDCCAuygAwIBAgIEEAAAtTANBgkqhkiG9w0BAQUFADBEMQswCQYDVQQGEwJE
RTEPMA0GA1UECAwGSGVzc2VuMRQwEgYDVQQKDAtwcml2YWN5aWRlYTEOMAwGA1UE
AwwFQ0EwMDEwHhcNMTUwOTE5MTMyNDIyWhcNMTYwOTE4MTMyNDIyWjAyMRowGAYD
VQQDExFhZG1pbixDTj1hZG1pbixPPTEUMBIGCSqGSIb3DQEJARYFbWVpbmUwggEi
MA0GCSqGSIb3DQEBAQUAA4IBDwAwggEKAoIBAQDE8CaW4yuAFMAxzFX7ic1fmaOL
HT5aiRrVjYSh4RR+NgJJ5HNmVLqJOoMb9EXqj6CEy4AQyS94O4zEf+cV8T1WLDGU
407wHBbXFyVjFCF8B3yJU83NhqbPfMDJhZBqeWAFOmm2zHowUYVZwEHhVwqHFVbt
Qrq9vou4Jk4Zh3ivLEgWytCKstZIHFYbUuBrqwndQ+DLaQ3AoQo6RvKAd4B+Wa+7
KuziuXT+saojxDtI4WCJEjOV3YsIWBI3vrNgRN0XLJNiBUbUdWhEId6fJ3e4NBwY
0c9Cg48K0ejpiVR0hEeBMqnStDtPxjIPB5F3iY7PIjiDCoe0p1JwPzSZFJpNAgMB
AAGjggEOMIIBCjALBgNVHQ8EBAMCBaAwCQYDVR0TBAIwADARBglghkgBhvhCAQEE
BAMCBkAwMwYJYIZIAYb4QgENBCYWJE9wZW5TU0wgR2VuZXJhdGVkIFNlcnZlciBD
ZXJ0aWZpY2F0ZTAdBgNVHQ4EFgQUw0KQsEqyGF83VJ7dtCFJwMuh42swdAYDVR0j
BG0wa4AU9KfAzJFGr2TzkfIn+Miyb4qHMnOhSKRGMEQxCzAJBgNVBAYTAkRFMQ8w
DQYDVQQIDAZIZXNzZW4xFDASBgNVBAoMC3ByaXZhY3lpZGVhMQ4wDAYDVQQDDAVD
QTAwMYIJAPvI66yDzRIHMBMGA1UdJQQMMAoGCCsGAQUFBwMBMA0GCSqGSIb3DQEB
BQUAA4IBAQB0bdEhjKXUt65huMa6KN54ayX3ZaXBeMcnOjvfquR4ibImRRYW/5fD
Qv1Mlfh4F8BnK+Ch71PyFFnglNqJLBxFAD0VZG9QhbNy27N9XlfAsJDt2NKWZsKL
m8VBqWbbmRfZXRwQ/lI39wR4Fz/YoHUQb5rYJHN+0YM0IZc7TctcopLGZeuzk8Xu
jvooB0tcE/mc/Mlj/lM8t0V3o8IfTAuHZEcjuMnUYodvkNVBhkx31Zc0eIe4teRi
jrJWDqVT2hp8L5ITVN6CbnIuscC2xw/+aVxDpI40hLmkwTYTQQn+As2TLHvpqX/w
66VN/Bglvod7+tM2TNGTTlKxDTRBMZj2
-----END CERTIFICATE-----
