Certificate:
    Data:
        Version: 3 (0x2)
        Serial Number: 268435722 (0x1000010a)
    Signature Algorithm: sha256WithRSAEncryption
        Issuer: C=DE, ST=Hessen, O=privacyidea, CN=CA001
        Validity
            Not Before: Jan  9 23:01:12 2019 GMT
            Not After : Jan 28 23:01:12 2021 GMT
        Subject: CN=Steve Test/emailAddress=steve@openssl.org
        Subject Public Key Info:
            Public Key Algorithm: rsaEncryption
                Public-Key: (2048 bit)
                Modulus:
                    00:d2:81:89:20:51:48:0f:73:f4:11:32:24:d5:1f:
                    1c:fd:5c:f5:b6:e6:c5:f0:52:81:dc:d2:af:66:4a:
                    7c:93:31:61:5c:af:d1:6d:06:70:03:60:7c:72:0c:
                    88:dd:49:cd:9e:02:6c:d2:5a:d7:53:0f:f3:da:be:
                    69:64:b5:0f:0c:00:e3:b3:50:47:a3:b3:9b:ba:13:
                    50:d6:58:5a:4b:ab:39:e0:11:ca:0a:27:67:03:78:
                    22:66:6d:92:1e:1b:5c:49:ae:e6:6b:d1:8e:3b:9d:
                    06:d3:c6:ac:4d:53:43:10:ab:e8:96:c1:87:82:97:
                    99:8f:20:d3:99:12:37:31:84:e1:8a:ff:29:03:5f:
                    22:90:3e:7f:9b:e0:20:c1:ad:dc:ae:4c:39:1a:31:
                    96:17:02:8c:b2:d9:b4:0d:20:12:9b:7d:86:54:fd:
                    33:fd:c1:2a:62:46:f8:60:96:cf:6e:01:6f:22:df:
                    13:47:e7:97:ec:05:72:23:a3:62:f8:fa:ef:ac:9c:
                    72:f0:37:cb:2f:37:cf:90:a8:27:51:86:c6:d7:78:
                    08:8f:7e:25:a2:15:70:a2:fb:1c:b6:15:5e:a0:97:
                    8b:81:4c:09:28:8a:27:3b:94:bc:71:db:5b:71:37:
                    9a:2b:16:e0:6f:b5:c9:f5:4b:4f:20:ba:65:cf:af:
                    ad:ad
                Exponent: 65537 (0x10001)
        X509v3 extensions:
            X509v3 Key Usage: 
                Digital Signature, Key Encipherment
            X509v3 Basic Constraints: 
                CA:FALSE
            Netscape Cert Type: 
                SSL Server
            Netscape Comment: 
                OpenSSL Generated Server Certificate
            X509v3 Subject Key Identifier: 
                E5:25:6D:3E:AF:0D:DD:3F:4C:F2:45:19:39:D5:14:DB:7E:9C:C0:AD
            X509v3 Authority Key Identifier: 
                keyid:F4:A7:C0:CC:91:46:AF:64:F3:91:F2:27:F8:C8:B2:6F:8A:87:32:73
                DirName:/C=DE/ST=Hessen/O=privacyidea/CN=CA001
                serial:FB:C8:EB:AC:83:CD:12:07

            X509v3 Extended Key Usage: 
                TLS Web Server Authentication
    Signature Algorithm: sha256WithRSAEncryption
         a2:e9:01:c4:ba:a1:de:af:56:ea:0d:72:64:ae:69:18:c3:4c:
         49:cd:f2:5a:88:3e:6a:bf:4f:7c:96:f5:fe:0a:e2:2f:23:b6:
         af:cb:6f:3e:ce:32:99:33:ad:71:e2:70:8a:c7:60:9f:95:61:
         25:4d:ac:57:e8:e8:f2:6c:7e:58:52:75:35:a5:bd:af:a0:0c:
         23:a6:3c:3d:ef:9c:91:d0:cb:81:c1:60:80:ac:3f:0a:26:dc:
         ba:d0:d8:63:89:9f:ab:5a:50:49:6f:77:d1:c9:7d:49:52:2e:
         73:d1:b1:83:82:5f:a6:16:9f:df:9c:b1:9a:52:9a:b7:ec:2d:
         d4:cc:c7:fa:00:c4:e4:b2:7a:c6:8a:f5:eb:3c:d9:58:e2:12:
         02:f7:0a:f8:b7:92:81:1b:cc:4c:59:1d:c5:5d:81:76:f9:16:
         4c:16:f9:3e:26:b4:8f:8b:c7:66:d2:e6:08:20:97:fc:20:a8:
         9e:be:66:4a:ec:c2:f3:06:b2:1c:31:7d:a2:4b:eb:90:6b:8d:
         e2:ea:19:8a:e6:a1:a6:8a:db:a5:36:62:90:f3:5a:af:2d:9a:
         2d:67:84:e4:65:f4:8e:e3:d7:f7:c7:16:a0:0f:c8:39:a9:86:
         21:30:0b:87:b2:c3:a9:9c:a9:23:5a:b0:7a:67:9d:c2:50:e3:
         2d:54:79:7d
-----BEGIN CERTIFICATE-----
MIIECTCCAvGgAwIBAgIEEAABCjANBgkqhkiG9w0BAQsFADBEMQswCQYDVQQGEwJE
RTEPMA0GA1UECAwGSGVzc2VuMRQwEgYDVQQKDAtwcml2YWN5aWRlYTEOMAwGA1UE
AwwFQ0EwMDEwHhcNMTkwMTA5MjMwMTEyWhcNMjEwMTI4MjMwMTEyWjA3MRMwEQYD
VQQDDApTdGV2ZSBUZXN0MSAwHgYJKoZIhvcNAQkBFhFzdGV2ZUBvcGVuc3NsLm9y
ZzCCASIwDQYJKoZIhvcNAQEBBQADggEPADCCAQoCggEBANKBiSBRSA9z9BEyJNUf
HP1c9bbmxfBSgdzSr2ZKfJMxYVyv0W0GcANgfHIMiN1JzZ4CbNJa11MP89q+aWS1
DwwA47NQR6Ozm7oTUNZYWkurOeARygonZwN4ImZtkh4bXEmu5mvRjjudBtPGrE1T
QxCr6JbBh4KXmY8g05kSNzGE4Yr/KQNfIpA+f5vgIMGt3K5MORoxlhcCjLLZtA0g
Ept9hlT9M/3BKmJG+GCWz24BbyLfE0fnl+wFciOjYvj676yccvA3yy83z5CoJ1GG
xtd4CI9+JaIVcKL7HLYVXqCXi4FMCSiKJzuUvHHbW3E3misW4G+1yfVLTyC6Zc+v
ra0CAwEAAaOCAQ4wggEKMAsGA1UdDwQEAwIFoDAJBgNVHRMEAjAAMBEGCWCGSAGG
+EIBAQQEAwIGQDAzBglghkgBhvhCAQ0EJhYkT3BlblNTTCBHZW5lcmF0ZWQgU2Vy
dmVyIENlcnRpZmljYXRlMB0GA1UdDgQWBBTlJW0+rw3dP0zyRRk51RTbfpzArTB0
BgNVHSMEbTBrgBT0p8DMkUavZPOR8if4yLJviocyc6FIpEYwRDELMAkGA1UEBhMC
REUxDzANBgNVBAgMBkhlc3NlbjEUMBIGA1UECgwLcHJpdmFjeWlkZWExDjAMBgNV
BAMMBUNBMDAxggkA+8jrrIPNEgcwEwYDVR0lBAwwCgYIKwYBBQUHAwEwDQYJKoZI
hvcNAQELBQADggEBAKLpAcS6od6vVuoNcmSuaRjDTEnN8lqIPmq/T3yW9f4K4i8j
tq/Lbz7OMpkzrXHicIrHYJ+VYSVNrFfo6PJsflhSdTWlva+gDCOmPD3vnJHQy4HB
YICsPwom3LrQ2GOJn6taUElvd9HJfUlSLnPRsYOCX6YWn9+csZpSmrfsLdTMx/oA
xOSyesaK9es82VjiEgL3Cvi3koEbzExZHcVdgXb5FkwW+T4mtI+Lx2bS5gggl/wg
qJ6+ZkrswvMGshwxfaJL65BrjeLqGYrmoaaK26U2YpDzWq8tmi1nhORl9I7j1/fH
FqAPyDmphiEwC4eyw6mcqSNasHpnncJQ4y1UeX0=
-----END CERTIFICATE-----
