Certificate:
    Data:
        Version: 3 (0x2)
        Serial Number: 268435623 (0x100000a7)
    Signature Algorithm: sha1WithRSAEncryption
        Issuer: C=DE, ST=Hessen, O=privacyidea, CN=CA001
        Validity
            Not Before: Sep 12 08:32:56 2015 GMT
            Not After : Sep 11 08:32:56 2016 GMT
        Subject: C=DE, ST=Hessen, O=privacyidea, CN=requester.localdomain
        Subject Public Key Info:
            Public Key Algorithm: rsaEncryption
                Public-Key: (2048 bit)
                Modulus:
                    00:cd:be:14:4f:fa:ce:01:3f:42:22:1b:1d:9c:af:
                    dd:92:d2:7f:db:6c:b7:3e:39:43:43:6b:13:03:f1:
                    05:f4:07:74:bc:76:69:28:0b:af:19:8e:d7:fc:e3:
                    cd:c6:58:f2:ca:7f:08:6d:53:fc:07:02:44:24:c6:
                    b4:34:4c:8c:04:fe:33:0e:40:e2:20:ba:02:73:5a:
                    f7:f5:4f:63:6e:cc:c6:b6:df:54:1d:37:39:7d:51:
                    36:26:5f:bd:dc:3f:a8:8b:6b:a2:ae:b6:9d:d6:21:
                    e7:df:41:b8:7a:28:2a:68:48:ca:a8:2d:ed:e1:e9:
                    46:5e:5a:72:6d:b4:84:38:87:91:fd:94:11:0b:28:
                    84:c6:c2:2f:2a:fb:01:f9:36:7a:09:75:d1:33:88:
                    3c:73:41:5b:c8:bf:94:89:70:a1:f0:c0:b9:2e:50:
                    53:1e:b1:17:64:69:f4:2d:81:e0:a9:0d:0e:32:e9:
                    ba:55:8a:85:f1:1b:6f:49:79:b4:7f:88:c3:0d:3e:
                    54:88:9b:3d:1f:38:8c:04:f3:ee:6a:63:2b:f5:c6:
                    db:b4:83:aa:c4:78:41:3a:7d:4b:e1:c8:3e:71:ca:
                    1b:61:59:ea:c6:c4:ca:32:5e:c9:e9:bf:12:29:e6:
                    c6:c3:63:fe:a0:55:da:7a:f1:60:98:4d:26:ed:fa:
                    70:2d
                Exponent: 65537 (0x10001)
        X509v3 extensions:
            X509v3 Key Usage: 
                Digital Signature, Key Encipherment
            X509v3 Basic Constraints: 
                CA:FALSE
            Netscape Cert Type: 
                SSL Server
            Netscape Comment: 
                OpenSSL Generated Server Certificate
            X509v3 Subject Key Identifier: 
                53:3F:ED:5D:09:07:B3:65:7B:AB:45:C9:24:5B:09:77:80:0A:96:ED
            X509v3 Authority Key Identifier: 
                keyid:F4:A7:C0:CC:91:46:AF:64:F3:91:F2:27:F8:C8:B2:6F:8A:87:32:73
                DirName:/C=DE/ST=Hessen/O=privacyidea/CN=CA001
                serial:FB:C8:EB:AC:83:CD:12:07

            X509v3 Extended Key Usage: 
                TLS Web Server Authentication
    Signature Algorithm: sha1WithRSAEncryption
         1f:40:7f:07:fa:0e:c7:df:db:60:f8:ca:0c:5f:2e:13:3f:10:
         bf:bf:a8:0b:43:02:f5:ad:1f:86:9f:33:73:3b:d7:23:67:33:
         c5:25:2f:b0:50:be:3d:8e:6c:6e:2d:4b:bd:9a:71:7e:cc:84:
         bd:83:eb:06:4b:36:be:ba:c2:3f:4e:8a:f6:a1:fc:ce:aa:ad:
         d0:ad:e5:cb:c4:a0:64:c3:ee:14:ac:39:b7:61:9a:b6:a0:38:
         59:9b:0a:c8:7e:e4:bd:28:a7:73:27:e9:44:56:d5:68:d2:53:
         42:cb:0b:aa:a2:01:db:82:bb:9f:8b:37:e1:c3:c0:76:9b:2a:
         33:80:7d:9f:83:fd:4c:e4:ba:81:32:33:63:0d:60:bd:a7:0d:
         da:6c:4c:e2:75:37:bb:2a:76:05:3f:9a:3a:44:5c:c7:37:e9:
         45:d3:a7:5b:5a:82:92:40:26:6b:b6:a1:8c:f1:42:5a:a8:63:
         46:83:70:44:b4:b3:23:e9:9e:b8:4d:43:49:2f:ca:f9:ac:0f:
         8a:fc:73:77:a8:53:25:cf:b8:fd:9f:e2:87:07:0c:58:e3:76:
         ae:66:c5:03:5c:6f:d7:db:f4:fa:35:43:dd:6b:d9:64:9f:cf:
         1b:a1:f7:d5:bf:c8:7d:89:7b:9c:ee:83:4f:4e:38:f4:2d:06:
         ec:71:d3:98
-----BEGIN CERTIFICATE-----
MIIEJjCCAw6gAwIBAgIEEAAApzANBgkqhkiG9w0BAQUFADBEMQswCQYDVQQGEwJE
RTEPMA0GA1UECAwGSGVzc2VuMRQwEgYDVQQKDAtwcml2YWN5aWRlYTEOMAwGA1UE
AwwFQ0EwMDEwHhcNMTUwOTEyMDgzMjU2WhcNMTYwOTExMDgzMjU2WjBUMQswCQYD
VQQGEwJERTEPMA0GA1UECAwGSGVzc2VuMRQwEgYDVQQKDAtwcml2YWN5aWRlYTEe
MBwGA1UEAwwVcmVxdWVzdGVyLmxvY2FsZG9tYWluMIIBIjANBgkqhkiG9w0BAQEF
AAOCAQ8AMIIBCgKCAQEAzb4UT/rOAT9CIhsdnK/dktJ/22y3PjlDQ2sTA/EF9Ad0
vHZpKAuvGY7X/OPNxljyyn8IbVP8BwJEJMa0NEyMBP4zDkDiILoCc1r39U9jbszG
tt9UHTc5fVE2Jl+93D+oi2uirrad1iHn30G4eigqaEjKqC3t4elGXlpybbSEOIeR
/ZQRCyiExsIvKvsB+TZ6CXXRM4g8c0FbyL+UiXCh8MC5LlBTHrEXZGn0LYHgqQ0O
Mum6VYqF8RtvSXm0f4jDDT5UiJs9HziMBPPuamMr9cbbtIOqxHhBOn1L4cg+ccob
YVnqxsTKMl7J6b8SKebGw2P+oFXaevFgmE0m7fpwLQIDAQABo4IBDjCCAQowCwYD
VR0PBAQDAgWgMAkGA1UdEwQCMAAwEQYJYIZIAYb4QgEBBAQDAgZAMDMGCWCGSAGG
+EIBDQQmFiRPcGVuU1NMIEdlbmVyYXRlZCBTZXJ2ZXIgQ2VydGlmaWNhdGUwHQYD
VR0OBBYEFFM/7V0JB7Nle6tFySRbCXeACpbtMHQGA1UdIwRtMGuAFPSnwMyRRq9k
85HyJ/jIsm+KhzJzoUikRjBEMQswCQYDVQQGEwJERTEPMA0GA1UECAwGSGVzc2Vu
MRQwEgYDVQQKDAtwcml2YWN5aWRlYTEOMAwGA1UEAwwFQ0EwMDGCCQD7yOusg80S
BzATBgNVHSUEDDAKBggrBgEFBQcDATANBgkqhkiG9w0BAQUFAAOCAQEAH0B/B/oO
x9/bYPjKDF8uEz8Qv7+oC0MC9a0fhp8zczvXI2czxSUvsFC+PY5sbi1LvZpxfsyE
vYPrBks2vrrCP06K9qH8zqqt0K3ly8SgZMPuFKw5t2GatqA4WZsKyH7kvSincyfp
RFbVaNJTQssLqqIB24K7n4s34cPAdpsqM4B9n4P9TOS6gTIzYw1gvacN2mxM4nU3
uyp2BT+aOkRcxzfpRdOnW1qCkkAma7ahjPFCWqhjRoNwRLSzI+meuE1DSS/K+awP
ivxzd6hTJc+4/Z/ihwcMWON2rmbFA1xv19v0+jVD3WvZZJ/PG6H31b/IfYl7nO6D
T0449C0G7HHTmA==
-----END CERTIFICATE-----
