Certificate:
    Data:
        Version: 3 (0x2)
        Serial Number: 268435754 (0x1000012a)
    Signature Algorithm: sha256WithRSAEncryption
        Issuer: C=DE, ST=Hessen, O=privacyidea, CN=CA001
        Validity
            Not Before: Jan 10 08:29:04 2019 GMT
            Not After : Jan 29 08:29:04 2021 GMT
        Subject: CN=Steve Test/emailAddress=steve@openssl.org
        Subject Public Key Info:
            Public Key Algorithm: rsaEncryption
                Public-Key: (2048 bit)
                Modulus:
                    00:d2:81:89:20:51:48:0f:73:f4:11:32:24:d5:1f:
                    1c:fd:5c:f5:b6:e6:c5:f0:52:81:dc:d2:af:66:4a:
                    7c:93:31:61:5c:af:d1:6d:06:70:03:60:7c:72:0c:
                    88:dd:49:cd:9e:02:6c:d2:5a:d7:53:0f:f3:da:be:
                    69:64:b5:0f:0c:00:e3:b3:50:47:a3:b3:9b:ba:13:
                    50:d6:58:5a:4b:ab:39:e0:11:ca:0a:27:67:03:78:
                    22:66:6d:92:1e:1b:5c:49:ae:e6:6b:d1:8e:3b:9d:
                    06:d3:c6:ac:4d:53:43:10:ab:e8:96:c1:87:82:97:
                    99:8f:20:d3:99:12:37:31:84:e1:8a:ff:29:03:5f:
                    22:90:3e:7f:9b:e0:20:c1:ad:dc:ae:4c:39:1a:31:
                    96:17:02:8c:b2:d9:b4:0d:20:12:9b:7d:86:54:fd:
                    33:fd:c1:2a:62:46:f8:60:96:cf:6e:01:6f:22:df:
                    13:47:e7:97:ec:05:72:23:a3:62:f8:fa:ef:ac:9c:
                    72:f0:37:cb:2f:37:cf:90:a8:27:51:86:c6:d7:78:
                    08:8f:7e:25:a2:15:70:a2:fb:1c:b6:15:5e:a0:97:
                    8b:81:4c:09:28:8a:27:3b:94:bc:71:db:5b:71:37:
                    9a:2b:16:e0:6f:b5:c9:f5:4b:4f:20:ba:65:cf:af:
                    ad:ad
                Exponent: 65537 (0x10001)
        X509v3 extensions:
            X509v3 Key Usage: 
                Digital Signature, Key Encipherment
            X509v3 Basic Constraints: 
                CA:FALSE
            Netscape Cert Type: 
                SSL Server
            Netscape Comment: 
                OpenSSL Generated Server Certificate
            X509v3 Subject Key Identifier: 
                E5:25:6D:3E:AF:0D:DD:3F:4C:F2:45:19:39:D5:14:DB:7E:9C:C0:AD
            X509v3 Authority Key Identifier: 
                keyid:F4:A7:C0:CC:91:46:AF:64:F3:91:F2:27:F8:C8:B2:6F:8A:87:32:73
                DirName:/C=DE/ST=Hessen/O=privacyidea/CN=CA001
                serial:FB:C8:EB:AC:83:CD:12:07

            X509v3 Extended Key Usage: 
                TLS Web Server Authentication
    Signature Algorithm: sha256WithRSAEncryption
         bf:96:2b:e3:88:8e:72:78:e4:78:f3:9f:08:8d:11:30:ea:6e:
         50:ab:ed:cf:81:8f:33:16:c8:d0:cb:b6:0d:c5:26:79:a1:36:
         10:7d:da:cc:5a:59:b5:b6:66:d4:ab:cf:83:ea:48:e5:d0:01:
         04:ab:e1:5c:46:cb:41:a6:7b:b1:61:88:d2:7a:18:b9:70:8c:
         6c:38:cc:3a:27:ed:47:19:a9:10:95:6b:17:5f:af:7d:95:51:
         01:bc:61:a8:e8:a1:f7:8f:25:a7:f2:d6:b8:cb:67:c9:80:a7:
         30:cf:be:17:ee:a6:3c:82:c4:2d:72:fc:ae:33:be:7e:1d:10:
         32:07:8d:42:d1:cf:0c:e3:4d:12:e4:f8:10:d9:ab:a4:53:ec:
         1d:32:30:e2:09:ca:6c:40:f3:bf:9a:7b:3a:90:fc:b5:f5:33:
         66:c6:4f:09:15:49:ef:10:b2:a4:29:e4:73:4f:79:b0:51:a3:
         eb:54:37:90:6c:1f:e3:3f:42:f5:c2:75:70:58:70:da:d6:96:
         bc:06:85:f5:16:69:f4:f8:00:e9:fe:eb:f4:8c:43:4a:14:b6:
         8f:5c:8d:4e:8c:33:a1:04:4b:5c:f1:22:39:76:b4:a6:b7:3b:
         11:fd:c0:44:f1:35:07:de:99:af:4a:ff:2a:2b:dc:cd:92:55:
         6d:d8:f6:ec
-----BEGIN CERTIFICATE-----
MIIECTCCAvGgAwIBAgIEEAABKjANBgkqhkiG9w0BAQsFADBEMQswCQYDVQQGEwJE
RTEPMA0GA1UECAwGSGVzc2VuMRQwEgYDVQQKDAtwcml2YWN5aWRlYTEOMAwGA1UE
AwwFQ0EwMDEwHhcNMTkwMTEwMDgyOTA0WhcNMjEwMTI5MDgyOTA0WjA3MRMwEQYD
VQQDDApTdGV2ZSBUZXN0MSAwHgYJKoZIhvcNAQkBFhFzdGV2ZUBvcGVuc3NsLm9y
ZzCCASIwDQYJKoZIhvcNAQEBBQADggEPADCCAQoCggEBANKBiSBRSA9z9BEyJNUf
HP1c9bbmxfBSgdzSr2ZKfJMxYVyv0W0GcANgfHIMiN1JzZ4CbNJa11MP89q+aWS1
DwwA47NQR6Ozm7oTUNZYWkurOeARygonZwN4ImZtkh4bXEmu5mvRjjudBtPGrE1T
QxCr6JbBh4KXmY8g05kSNzGE4Yr/KQNfIpA+f5vgIMGt3K5MORoxlhcCjLLZtA0g
Ept9hlT9M/3BKmJG+GCWz24BbyLfE0fnl+wFciOjYvj676yccvA3yy83z5CoJ1GG
xtd4CI9+JaIVcKL7HLYVXqCXi4FMCSiKJzuUvHHbW3E3misW4G+1yfVLTyC6Zc+v
ra0CAwEAAaOCAQ4wggEKMAsGA1UdDwQEAwIFoDAJBgNVHRMEAjAAMBEGCWCGSAGG
+EIBAQQEAwIGQDAzBglghkgBhvhCAQ0EJhYkT3BlblNTTCBHZW5lcmF0ZWQgU2Vy
dmVyIENlcnRpZmljYXRlMB0GA1UdDgQWBBTlJW0+rw3dP0zyRRk51RTbfpzArTB0
BgNVHSMEbTBrgBT0p8DMkUavZPOR8if4yLJviocyc6FIpEYwRDELMAkGA1UEBhMC
REUxDzANBgNVBAgMBkhlc3NlbjEUMBIGA1UECgwLcHJpdmFjeWlkZWExDjAMBgNV
BAMMBUNBMDAxggkA+8jrrIPNEgcwEwYDVR0lBAwwCgYIKwYBBQUHAwEwDQYJKoZI
hvcNAQELBQADggEBAL+WK+OIjnJ45HjznwiNETDqblCr7c+BjzMWyNDLtg3FJnmh
NhB92sxaWbW2ZtSrz4PqSOXQAQSr4VxGy0Gme7FhiNJ6GLlwjGw4zDon7UcZqRCV
axdfr32VUQG8YajoofePJafy1rjLZ8mApzDPvhfupjyCxC1y/K4zvn4dEDIHjULR
zwzjTRLk+BDZq6RT7B0yMOIJymxA87+aezqQ/LX1M2bGTwkVSe8QsqQp5HNPebBR
o+tUN5BsH+M/QvXCdXBYcNrWlrwGhfUWafT4AOn+6/SMQ0oUto9cjU6MM6EES1zx
Ijl2tKa3OxH9wETxNQfema9K/yor3M2SVW3Y9uw=
-----END CERTIFICATE-----
