Certificate:
    Data:
        Version: 3 (0x2)
        Serial Number: 268435667 (0x100000d3)
    Signature Algorithm: sha1WithRSAEncryption
        Issuer: C=DE, ST=Hessen, O=privacyidea, CN=CA001
        Validity
            Not Before: Feb 15 16:18:12 2017 GMT
            Not After : Feb 15 16:18:12 2018 GMT
        Subject: OU=kassel, CN=Administrator
        Subject Public Key Info:
            Public Key Algorithm: rsaEncryption
                Public-Key: (2048 bit)
                Modulus:
                    00:bc:5f:c8:a7:d7:ae:b2:ec:9b:56:98:ec:49:6b:
                    14:3e:a6:31:76:d0:c7:44:5b:c6:40:0c:5a:f1:35:
                    70:17:4e:cd:27:2a:e7:17:29:01:04:3a:49:ad:87:
                    c2:2c:1a:f7:37:07:69:c8:94:54:1d:8e:66:07:00:
                    64:a3:4b:fe:ea:c5:d3:86:34:2e:e5:5b:62:e7:a7:
                    96:61:34:83:d7:ad:77:db:65:9d:87:b3:ea:50:f0:
                    37:dc:6d:06:73:74:ef:23:c9:e0:80:bb:36:56:20:
                    0f:61:6c:6e:ed:0f:86:b3:85:1d:d7:7a:cd:ec:90:
                    41:61:e3:e6:50:3c:9a:88:d4:bc:24:08:59:fd:1b:
                    e7:db:dd:e5:3a:bf:4e:4a:35:f8:7a:a3:26:e7:0d:
                    c1:50:66:d3:80:56:82:e4:56:af:55:48:55:a8:40:
                    2e:4e:dc:1c:fc:8f:78:e2:78:42:e8:d3:f0:f2:94:
                    6e:7a:51:d5:56:5e:66:63:57:79:9e:d9:af:a7:8d:
                    d2:18:85:71:96:51:28:8c:f1:82:6a:f7:93:b3:4f:
                    03:ba:74:e9:f3:47:b0:3b:33:7f:10:5c:50:5c:a8:
                    4a:20:dc:94:e4:49:b3:f0:9f:f3:2f:be:80:3a:f9:
                    d0:bb:b8:fe:cb:10:73:1f:c5:9a:b9:a0:d9:50:fa:
                    fc:a1
                Exponent: 65537 (0x10001)
        X509v3 extensions:
            X509v3 Key Usage: 
                Digital Signature, Key Encipherment
            X509v3 Basic Constraints: 
                CA:FALSE
            Netscape Cert Type: 
                SSL Server
            Netscape Comment: 
                OpenSSL Generated Server Certificate
            X509v3 Subject Key Identifier: 
                FC:AE:EC:E0:79:BF:1C:29:D6:4C:4A:48:01:66:8C:5B:B6:73:BD:9A
            X509v3 Authority Key Identifier: 
                keyid:F4:A7:C0:CC:91:46:AF:64:F3:91:F2:27:F8:C8:B2:6F:8A:87:32:73
                DirName:/C=DE/ST=Hessen/O=privacyidea/CN=CA001
                serial:FB:C8:EB:AC:83:CD:12:07

            X509v3 Extended Key Usage: 
                TLS Web Server Authentication
    Signature Algorithm: sha1WithRSAEncryption
         16:ad:22:ae:76:9c:6f:78:88:24:97:13:3e:44:85:f9:d5:aa:
         57:19:10:a1:45:0f:88:25:4c:a3:cb:50:eb:1e:32:7c:ea:1f:
         81:19:62:2d:1e:fa:c1:c2:aa:72:6f:bc:e4:2e:71:98:53:d1:
         8e:be:8c:8d:d1:d6:15:32:1f:33:86:ce:3c:c0:76:5e:ed:59:
         e2:f6:4c:5c:2f:53:6e:28:cf:95:d9:22:31:cf:45:1f:10:74:
         9f:1b:0e:56:ab:b9:f0:cd:f7:4d:ec:bc:76:98:a2:fa:78:0c:
         3b:45:05:c6:b6:d7:64:bd:dc:a7:02:67:20:e7:64:40:b1:2f:
         fb:84:cb:49:5e:9f:60:cf:42:74:90:83:36:60:52:1b:ea:d3:
         51:ac:72:b5:a4:21:7a:49:a4:c3:8e:18:89:86:c8:37:1d:28:
         33:e7:03:58:68:5d:bd:b1:11:cb:69:1f:e0:31:91:b7:7d:96:
         3f:ba:41:98:6b:71:0a:69:a2:db:8d:e0:ff:c3:1b:d0:2d:da:
         79:b8:fe:de:f1:f5:43:78:26:0d:71:dc:0b:5b:b7:08:3e:f9:
         88:58:fa:6c:25:a8:c7:c1:67:02:7e:c8:72:3c:cb:26:d0:72:
         d1:6f:c7:12:86:92:3d:02:aa:e7:15:f8:f9:4f:3d:c5:e5:18:
         08:cf:b8:99
-----BEGIN CERTIFICATE-----
MIID+zCCAuOgAwIBAgIEEAAA0zANBgkqhkiG9w0BAQUFADBEMQswCQYDVQQGEwJE
RTEPMA0GA1UECAwGSGVzc2VuMRQwEgYDVQQKDAtwcml2YWN5aWRlYTEOMAwGA1UE
AwwFQ0EwMDEwHhcNMTcwMjE1MTYxODEyWhcNMTgwMjE1MTYxODEyWjApMQ8wDQYD
VQQLDAZrYXNzZWwxFjAUBgNVBAMMDUFkbWluaXN0cmF0b3IwggEiMA0GCSqGSIb3
DQEBAQUAA4IBDwAwggEKAoIBAQC8X8in166y7JtWmOxJaxQ+pjF20MdEW8ZADFrx
NXAXTs0nKucXKQEEOkmth8IsGvc3B2nIlFQdjmYHAGSjS/7qxdOGNC7lW2Lnp5Zh
NIPXrXfbZZ2Hs+pQ8DfcbQZzdO8jyeCAuzZWIA9hbG7tD4azhR3Xes3skEFh4+ZQ
PJqI1LwkCFn9G+fb3eU6v05KNfh6oybnDcFQZtOAVoLkVq9VSFWoQC5O3Bz8j3ji
eELo0/DylG56UdVWXmZjV3me2a+njdIYhXGWUSiM8YJq95OzTwO6dOnzR7A7M38Q
XFBcqEog3JTkSbPwn/MvvoA6+dC7uP7LEHMfxZq5oNlQ+vyhAgMBAAGjggEOMIIB
CjALBgNVHQ8EBAMCBaAwCQYDVR0TBAIwADARBglghkgBhvhCAQEEBAMCBkAwMwYJ
YIZIAYb4QgENBCYWJE9wZW5TU0wgR2VuZXJhdGVkIFNlcnZlciBDZXJ0aWZpY2F0
ZTAdBgNVHQ4EFgQU/K7s4Hm/HCnWTEpIAWaMW7ZzvZowdAYDVR0jBG0wa4AU9KfA
zJFGr2TzkfIn+Miyb4qHMnOhSKRGMEQxCzAJBgNVBAYTAkRFMQ8wDQYDVQQIDAZI
ZXNzZW4xFDASBgNVBAoMC3ByaXZhY3lpZGVhMQ4wDAYDVQQDDAVDQTAwMYIJAPvI
66yDzRIHMBMGA1UdJQQMMAoGCCsGAQUFBwMBMA0GCSqGSIb3DQEBBQUAA4IBAQAW
rSKudpxveIgklxM+RIX51apXGRChRQ+IJUyjy1DrHjJ86h+BGWItHvrBwqpyb7zk
LnGYU9GOvoyN0dYVMh8zhs48wHZe7Vni9kxcL1NuKM+V2SIxz0UfEHSfGw5Wq7nw
zfdN7Lx2mKL6eAw7RQXGttdkvdynAmcg52RAsS/7hMtJXp9gz0J0kIM2YFIb6tNR
rHK1pCF6SaTDjhiJhsg3HSgz5wNYaF29sRHLaR/gMZG3fZY/ukGYa3EKaaLbjeD/
wxvQLdp5uP7e8fVDeCYNcdwLW7cIPvmIWPpsJajHwWcCfshyPMsm0HLRb8cShpI9
AqrnFfj5Tz3F5RgIz7iZ
-----END CERTIFICATE-----
