Certificate:
    Data:
        Version: 3 (0x2)
        Serial Number: 268435666 (0x100000d2)
    Signature Algorithm: sha256WithRSAEncryption
        Issuer: C=DE, ST=Hessen, O=privacyidea, CN=CA001
        Validity
            Not Before: Feb 25 00:33:12 2017 GMT
            Not After : Mar 17 00:33:12 2019 GMT
        Subject: OU=kassel, CN=cornelius
        Subject Public Key Info:
            Public Key Algorithm: rsaEncryption
                Public-Key: (2048 bit)
                Modulus:
                    00:be:66:58:92:e1:c3:f9:a5:63:0f:5d:04:76:4a:
                    cc:7e:47:5a:b3:08:61:0c:1b:d6:18:61:2a:e1:3a:
                    48:8d:a8:59:cf:76:31:31:bf:1f:51:4d:96:02:53:
                    19:22:d3:d5:80:bd:4e:fe:da:16:ce:79:bc:ad:93:
                    a7:ad:5e:b0:68:18:cf:32:af:6d:e4:96:5c:b0:ff:
                    6c:ae:b6:64:84:7e:92:8f:13:cb:8d:ec:12:3d:3f:
                    7c:f5:1c:c2:c0:88:c2:d3:9c:de:95:d6:e9:ea:e2:
                    cd:62:0e:cc:15:88:56:d7:76:52:c5:a2:7a:55:61:
                    28:7a:b4:e5:26:e7:a7:84:78:e2:8c:71:4e:7d:8d:
                    83:c1:30:67:2b:30:2d:e4:41:9f:92:65:e7:76:ef:
                    3c:3a:a9:1f:f1:b7:f4:12:60:bc:48:21:7f:6e:4a:
                    c6:d2:9b:3a:ee:19:c8:58:82:b8:5a:9f:67:ac:e5:
                    5b:6f:75:82:16:0b:1f:77:96:9e:bf:e0:dc:5c:87:
                    91:39:87:bd:2a:4b:89:d2:0b:91:1f:21:e5:c9:dc:
                    a7:7a:37:d4:57:dd:78:b7:01:0f:bd:3a:35:fa:8f:
                    61:64:6b:e4:63:7a:ef:9e:26:55:56:6f:ae:8d:b3:
                    81:86:9f:20:47:a4:bc:4a:9c:f4:8a:eb:e7:06:5b:
                    0f:93
                Exponent: 65537 (0x10001)
        X509v3 extensions:
            X509v3 Key Usage: 
                Digital Signature, Key Encipherment
            X509v3 Basic Constraints: 
                CA:FALSE
            Netscape Cert Type: 
                SSL Server
            Netscape Comment: 
                OpenSSL Generated Server Certificate
            X509v3 Subject Key Identifier: 
                71:08:09:67:75:F3:65:F1:DF:F3:19:8C:D9:06:CA:71:CF:37:D7:FE
            X509v3 Authority Key Identifier: 
                keyid:F4:A7:C0:CC:91:46:AF:64:F3:91:F2:27:F8:C8:B2:6F:8A:87:32:73
                DirName:/C=DE/ST=Hessen/O=privacyidea/CN=CA001
                serial:FB:C8:EB:AC:83:CD:12:07

            X509v3 Extended Key Usage: 
                TLS Web Server Authentication
    Signature Algorithm: sha256WithRSAEncryption
         94:63:cd:ff:f9:d0:6e:62:35:00:ac:44:77:e6:d8:29:58:b5:
         05:f6:29:83:6c:78:fd:60:2e:96:5e:eb:db:22:d4:62:4a:b7:
         9e:17:80:db:7b:a5:54:76:da:71:e1:9e:7e:55:0f:24:ff:d2:
         f0:28:d4:ed:13:2e:75:68:48:00:48:73:c3:c4:7f:0a:90:05:
         cf:6c:9a:35:59:3d:83:54:dd:80:9c:40:cd:26:cd:4b:ef:39:
         8e:5c:11:16:27:fd:62:ef:7d:03:0c:5f:f8:e7:0e:dd:65:e3:
         5b:f9:38:3f:9a:e1:88:52:89:39:53:97:6e:96:45:10:c4:38:
         f8:2d:48:ad:68:f6:67:16:f0:9d:27:67:8f:f6:c2:48:93:4e:
         b8:be:30:b8:af:d5:57:81:c1:63:da:3e:55:36:e3:b9:ef:d7:
         c1:c5:1a:38:4c:1f:89:36:c7:28:c4:eb:95:41:ae:a0:aa:0b:
         6f:52:e6:15:c6:39:23:53:d8:df:25:d6:82:e3:a8:59:29:79:
         4f:ee:33:ed:bf:90:d2:cf:bc:9b:1c:dd:5a:53:b0:28:cf:0e:
         34:28:81:b8:3f:c4:29:d6:b4:7b:e3:14:f7:71:2c:69:85:8c:
         b7:a0:65:f6:0d:4a:ee:df:42:fe:9c:69:8f:58:82:a9:e4:e7:
         59:cf:95:ed
-----BEGIN CERTIFICATE-----
MIID9zCCAt+gAwIBAgIEEAAA0jANBgkqhkiG9w0BAQsFADBEMQswCQYDVQQGEwJE
RTEPMA0GA1UECAwGSGVzc2VuMRQwEgYDVQQKDAtwcml2YWN5aWRlYTEOMAwGA1UE
AwwFQ0EwMDEwHhcNMTcwMjI1MDAzMzEyWhcNMTkwMzE3MDAzMzEyWjAlMQ8wDQYD
VQQLDAZrYXNzZWwxEjAQBgNVBAMMCWNvcm5lbGl1czCCASIwDQYJKoZIhvcNAQEB
BQADggEPADCCAQoCggEBAL5mWJLhw/mlYw9dBHZKzH5HWrMIYQwb1hhhKuE6SI2o
Wc92MTG/H1FNlgJTGSLT1YC9Tv7aFs55vK2Tp61esGgYzzKvbeSWXLD/bK62ZIR+
ko8Ty43sEj0/fPUcwsCIwtOc3pXW6erizWIOzBWIVtd2UsWielVhKHq05Sbnp4R4
4oxxTn2Ng8EwZyswLeRBn5Jl53bvPDqpH/G39BJgvEghf25KxtKbOu4ZyFiCuFqf
Z6zlW291ghYLH3eWnr/g3FyHkTmHvSpLidILkR8h5cncp3o31FfdeLcBD706NfqP
YWRr5GN6754mVVZvro2zgYafIEekvEqc9Irr5wZbD5MCAwEAAaOCAQ4wggEKMAsG
A1UdDwQEAwIFoDAJBgNVHRMEAjAAMBEGCWCGSAGG+EIBAQQEAwIGQDAzBglghkgB
hvhCAQ0EJhYkT3BlblNTTCBHZW5lcmF0ZWQgU2VydmVyIENlcnRpZmljYXRlMB0G
A1UdDgQWBBRxCAlndfNl8d/zGYzZBspxzzfX/jB0BgNVHSMEbTBrgBT0p8DMkUav
ZPOR8if4yLJviocyc6FIpEYwRDELMAkGA1UEBhMCREUxDzANBgNVBAgMBkhlc3Nl
bjEUMBIGA1UECgwLcHJpdmFjeWlkZWExDjAMBgNVBAMMBUNBMDAxggkA+8jrrIPN
EgcwEwYDVR0lBAwwCgYIKwYBBQUHAwEwDQYJKoZIhvcNAQELBQADggEBAJRjzf/5
0G5iNQCsRHfm2ClYtQX2KYNseP1gLpZe69si1GJKt54XgNt7pVR22nHhnn5VDyT/
0vAo1O0TLnVoSABIc8PEfwqQBc9smjVZPYNU3YCcQM0mzUvvOY5cERYn/WLvfQMM
X/jnDt1l41v5OD+a4YhSiTlTl26WRRDEOPgtSK1o9mcW8J0nZ4/2wkiTTri+MLiv
1VeBwWPaPlU247nv18HFGjhMH4k2xyjE65VBrqCqC29S5hXGOSNT2N8l1oLjqFkp
eU/uM+2/kNLPvJsc3VpTsCjPDjQogbg/xCnWtHvjFPdxLGmFjLegZfYNSu7fQv6c
aY9Ygqnk51nPle0=
-----END CERTIFICATE-----
