Certificate:
    Data:
        Version: 3 (0x2)
        Serial Number: 268435658 (0x100000ca)
    Signature Algorithm: sha1WithRSAEncryption
        Issuer: C=DE, ST=Hessen, O=privacyidea, CN=CA001
        Validity
            Not Before: Jul 13 20:13:36 2016 GMT
            Not After : Jul 13 20:13:36 2017 GMT
        Subject: OU=wordpress, CN=markus
        Subject Public Key Info:
            Public Key Algorithm: rsaEncryption
                Public-Key: (2048 bit)
                Modulus:
                    00:ca:63:dd:a5:41:25:86:ec:59:d4:22:ce:e2:d3:
                    c1:b5:5a:bb:22:93:02:0b:22:1c:25:40:27:5d:df:
                    f2:60:65:81:c5:59:1a:ff:54:e7:09:6c:a2:8b:ac:
                    d7:c1:b4:24:12:ef:26:d0:a4:f4:7d:b8:f8:03:07:
                    4f:aa:9a:68:fc:80:2e:b0:f2:d1:c1:1c:ae:2e:58:
                    03:e4:c6:2f:c3:f6:83:af:82:22:04:de:0c:20:11:
                    84:37:b2:36:b3:d2:d1:f0:ec:63:7a:16:19:f8:d8:
                    5a:17:52:54:eb:f6:5a:d9:d1:0f:ee:4b:02:a9:a9:
                    b7:81:54:34:3c:cc:9f:db:3f:c5:b6:79:99:62:59:
                    14:41:3c:14:74:01:66:4a:8b:22:1b:66:81:03:f4:
                    ca:f4:49:ea:af:e8:5a:27:27:23:7c:e6:01:b4:dc:
                    74:f0:20:4f:d1:64:f5:2d:c8:68:72:bf:21:d9:d0:
                    28:4f:71:06:47:25:46:6c:35:cf:08:ed:72:24:91:
                    64:52:a0:e4:7d:3a:23:f1:91:c4:7c:46:63:71:85:
                    71:8c:68:16:7d:79:e2:ba:0a:96:94:a3:48:aa:d8:
                    ed:c6:cb:97:0b:c6:b4:0e:d5:15:74:d1:bd:65:42:
                    7b:4d:37:ca:09:4e:e6:c7:fb:ed:7c:bc:8d:9c:25:
                    de:7f
                Exponent: 65537 (0x10001)
        X509v3 extensions:
            X509v3 Key Usage: 
                Digital Signature, Key Encipherment
            X509v3 Basic Constraints: 
                CA:FALSE
            Netscape Cert Type: 
                SSL Server
            Netscape Comment: 
                OpenSSL Generated Server Certificate
            X509v3 Subject Key Identifier: 
                5C:D2:8F:F7:EF:97:36:2E:01:6A:02:1C:95:D4:EF:68:55:B2:F7:3F
            X509v3 Authority Key Identifier: 
                keyid:F4:A7:C0:CC:91:46:AF:64:F3:91:F2:27:F8:C8:B2:6F:8A:87:32:73
                DirName:/C=DE/ST=Hessen/O=privacyidea/CN=CA001
                serial:FB:C8:EB:AC:83:CD:12:07

            X509v3 Extended Key Usage: 
                TLS Web Server Authentication
    Signature Algorithm: sha1WithRSAEncryption
         a4:56:19:12:d1:fd:df:2c:a5:d8:00:80:a6:aa:a3:40:07:cd:
         4c:49:40:47:e1:52:3e:b5:4e:b9:a4:f3:2e:2d:e8:d6:8c:37:
         cf:39:d3:ed:d0:7d:4b:d3:57:02:91:35:95:48:40:3a:e5:81:
         8f:b6:73:f1:a2:7c:46:63:20:ad:6b:10:11:c7:e7:ce:fe:60:
         11:b6:d3:e6:17:80:f0:2d:16:95:ec:b1:0b:90:dd:26:55:cf:
         22:7d:02:dc:f5:20:99:48:05:cd:cc:9b:63:f2:1c:64:9f:74:
         1a:cc:12:1a:09:16:ab:bc:26:1c:22:79:19:5b:08:b4:0d:52:
         0c:de:6c:d6:f1:bf:5a:d6:82:95:82:05:6f:95:ad:4f:e3:f9:
         c4:b0:c1:7f:81:89:07:49:19:6a:2b:e9:f9:d5:ed:6e:39:f6:
         ac:d8:6e:19:0e:76:0a:26:28:46:67:fa:74:18:c9:c0:1e:12:
         6c:37:70:89:b7:9c:59:4a:72:14:0e:ae:08:52:b5:b5:9c:c9:
         c2:50:2d:d9:1e:5d:80:f1:77:fe:93:ed:4c:46:97:b8:20:a9:
         2f:94:9d:cc:95:ea:dc:5f:87:a0:5d:03:8d:5c:f9:80:ac:88:
         6f:0f:0b:06:17:d0:c3:f1:e0:b3:74:64:03:d4:af:29:d4:6e:
         91:75:ca:de
-----BEGIN CERTIFICATE-----
MIID9zCCAt+gAwIBAgIEEAAAyjANBgkqhkiG9w0BAQUFADBEMQswCQYDVQQGEwJE
RTEPMA0GA1UECAwGSGVzc2VuMRQwEgYDVQQKDAtwcml2YWN5aWRlYTEOMAwGA1UE
AwwFQ0EwMDEwHhcNMTYwNzEzMjAxMzM2WhcNMTcwNzEzMjAxMzM2WjAlMRIwEAYD
VQQLEwl3b3JkcHJlc3MxDzANBgNVBAMTBm1hcmt1czCCASIwDQYJKoZIhvcNAQEB
BQADggEPADCCAQoCggEBAMpj3aVBJYbsWdQizuLTwbVauyKTAgsiHCVAJ13f8mBl
gcVZGv9U5wlsoous18G0JBLvJtCk9H24+AMHT6qaaPyALrDy0cEcri5YA+TGL8P2
g6+CIgTeDCARhDeyNrPS0fDsY3oWGfjYWhdSVOv2WtnRD+5LAqmpt4FUNDzMn9s/
xbZ5mWJZFEE8FHQBZkqLIhtmgQP0yvRJ6q/oWicnI3zmAbTcdPAgT9Fk9S3IaHK/
IdnQKE9xBkclRmw1zwjtciSRZFKg5H06I/GRxHxGY3GFcYxoFn154roKlpSjSKrY
7cbLlwvGtA7VFXTRvWVCe003yglO5sf77Xy8jZwl3n8CAwEAAaOCAQ4wggEKMAsG
A1UdDwQEAwIFoDAJBgNVHRMEAjAAMBEGCWCGSAGG+EIBAQQEAwIGQDAzBglghkgB
hvhCAQ0EJhYkT3BlblNTTCBHZW5lcmF0ZWQgU2VydmVyIENlcnRpZmljYXRlMB0G
A1UdDgQWBBRc0o/375c2LgFqAhyV1O9oVbL3PzB0BgNVHSMEbTBrgBT0p8DMkUav
ZPOR8if4yLJviocyc6FIpEYwRDELMAkGA1UEBhMCREUxDzANBgNVBAgMBkhlc3Nl
bjEUMBIGA1UECgwLcHJpdmFjeWlkZWExDjAMBgNVBAMMBUNBMDAxggkA+8jrrIPN
EgcwEwYDVR0lBAwwCgYIKwYBBQUHAwEwDQYJKoZIhvcNAQEFBQADggEBAKRWGRLR
/d8spdgAgKaqo0AHzUxJQEfhUj61Trmk8y4t6NaMN8850+3QfUvTVwKRNZVIQDrl
gY+2c/GifEZjIK1rEBHH587+YBG20+YXgPAtFpXssQuQ3SZVzyJ9Atz1IJlIBc3M
m2PyHGSfdBrMEhoJFqu8JhwieRlbCLQNUgzebNbxv1rWgpWCBW+VrU/j+cSwwX+B
iQdJGWor6fnV7W459qzYbhkOdgomKEZn+nQYycAeEmw3cIm3nFlKchQOrghStbWc
ycJQLdkeXYDxd/6T7UxGl7ggqS+UncyV6txfh6BdA41c+YCsiG8PCwYX0MPx4LN0
ZAPUrynUbpF1yt4=
-----END CERTIFICATE-----
