Certificate:
    Data:
        Version: 3 (0x2)
        Serial Number: 268435693 (0x100000ed)
        Signature Algorithm: sha256WithRSAEncryption
        Issuer: C=DE, ST=Hessen, O=privacyidea, CN=CA001
        Validity
            Not Before: Oct 24 12:35:37 2019 GMT
            Not After : Oct 23 12:35:37 2020 GMT
        Subject: CN=selfservice,CN=user,O=realm1/emailAddress=meine
        Subject Public Key Info:
            Public Key Algorithm: rsaEncryption
                RSA Public-Key: (2048 bit)
                Modulus:
                    00:cf:3c:d4:33:0e:12:c4:e6:da:cd:b6:56:a1:1c:
                    26:bb:26:1c:8a:4a:73:a8:58:8a:b6:1e:b3:8b:99:
                    d2:1d:07:c2:92:89:79:c0:69:d8:c8:df:28:61:98:
                    1e:b3:fe:ae:2b:bd:78:a9:f7:6e:47:dc:a3:a0:16:
                    8c:85:02:c1:4e:92:fd:72:6e:f0:c8:03:29:9b:b8:
                    00:6e:c0:83:95:c8:34:20:36:9c:b3:e5:e4:e6:76:
                    73:a3:1a:ad:40:96:e0:53:54:00:ec:76:79:9a:c6:
                    0d:7e:b6:bd:29:ec:83:f3:cb:89:a4:cb:6c:00:ba:
                    0c:c5:78:0f:ff:69:b8:94:f4:04:70:43:3f:d8:9e:
                    d7:a7:fb:5d:ce:75:8e:da:e7:c4:07:b1:9d:de:6f:
                    88:4b:b6:4d:9a:cf:f9:bc:fa:9f:cd:32:6d:f6:3a:
                    0b:0d:23:42:78:ec:97:42:bf:0e:4d:60:56:e1:d3:
                    02:f2:19:cb:84:57:90:e5:70:a1:a2:83:35:86:e2:
                    da:86:9f:f9:8a:c4:79:b3:52:28:da:cb:bb:34:ca:
                    d3:da:91:4a:cf:8d:76:a2:b2:6b:9b:f9:96:fd:09:
                    2a:da:11:23:4d:f0:cb:d6:b2:b1:0e:12:6c:9a:19:
                    65:98:87:ca:e4:ee:24:ce:44:ac:90:8f:9d:1b:c5:
                    2a:9d
                Exponent: 65537 (0x10001)
        X509v3 extensions:
            X509v3 Key Usage: 
                Digital Signature, Key Encipherment
            X509v3 Basic Constraints: 
                CA:FALSE
            Netscape Cert Type: 
                SSL Server
            Netscape Comment: 
                OpenSSL Generated Server Certificate
            X509v3 Subject Key Identifier: 
                4D:07:90:AD:FF:1D:0D:E7:1A:DD:D6:2E:FA:BA:34:CB:AA:1F:24:C6
            X509v3 Authority Key Identifier: 
                keyid:F4:A7:C0:CC:91:46:AF:64:F3:91:F2:27:F8:C8:B2:6F:8A:87:32:73
                DirName:/C=DE/ST=Hessen/O=privacyidea/CN=CA001
                serial:FB:C8:EB:AC:83:CD:12:07

            X509v3 Extended Key Usage: 
                TLS Web Server Authentication
    Signature Algorithm: sha256WithRSAEncryption
         39:e8:ce:92:a8:4b:8a:8d:3d:33:be:6b:2d:fa:36:cd:2b:7f:
         bb:8e:cf:59:58:a2:31:f1:be:c3:e5:ec:57:21:72:40:bb:7c:
         e9:be:a6:7a:e2:31:56:42:2d:d4:a4:c5:d6:80:38:c6:2f:61:
         2e:42:b5:8f:bf:23:6b:72:89:8c:05:6a:85:2e:81:bf:b8:2d:
         03:23:e6:9b:5b:9c:4d:0e:b4:a2:63:82:d8:99:25:45:1b:38:
         e6:65:94:ae:5f:7b:28:cb:5b:47:37:39:43:a8:43:d7:21:68:
         c0:62:32:cc:83:d6:56:6f:10:00:aa:fe:83:72:e9:cc:56:15:
         17:52:01:cb:d5:fd:17:c0:7e:f5:62:07:2e:f4:3a:38:de:02:
         ed:72:84:3b:5c:3c:52:33:85:99:74:ea:b9:2a:9a:66:de:bb:
         4d:1e:01:3c:d2:db:a9:cb:b0:5a:27:4a:92:4c:92:b8:c5:44:
         d7:0c:8b:01:3d:45:bb:bd:79:ed:59:e4:52:50:f8:7c:6a:46:
         ab:31:24:69:ac:61:cc:b9:ab:75:97:b7:aa:f0:fe:85:d5:21:
         e6:11:da:0c:fa:83:6a:2a:28:df:ac:f2:76:b3:6c:af:ce:d7:
         aa:52:ae:dd:f1:57:9f:e9:87:50:23:e5:dc:34:31:59:ae:58:
         6e:ce:8a:26
-----BEGIN CERTIFICATE-----
MIIEDzCCAvegAwIBAgIEEAAA7TANBgkqhkiG9w0BAQsFADBEMQswCQYDVQQGEwJE
RTEPMA0GA1UECAwGSGVzc2VuMRQwEgYDVQQKDAtwcml2YWN5aWRlYTEOMAwGA1UE
AwwFQ0EwMDEwHhcNMTkxMDI0MTIzNTM3WhcNMjAxMDIzMTIzNTM3WjA9MSUwIwYD
VQQDDBxzZWxmc2VydmljZSxDTj11c2VyLE89cmVhbG0xMRQwEgYJKoZIhvcNAQkB
FgVtZWluZTCCASIwDQYJKoZIhvcNAQEBBQADggEPADCCAQoCggEBAM881DMOEsTm
2s22VqEcJrsmHIpKc6hYirYes4uZ0h0HwpKJecBp2MjfKGGYHrP+riu9eKn3bkfc
o6AWjIUCwU6S/XJu8MgDKZu4AG7Ag5XINCA2nLPl5OZ2c6MarUCW4FNUAOx2eZrG
DX62vSnsg/PLiaTLbAC6DMV4D/9puJT0BHBDP9ie16f7Xc51jtrnxAexnd5viEu2
TZrP+bz6n80ybfY6Cw0jQnjsl0K/Dk1gVuHTAvIZy4RXkOVwoaKDNYbi2oaf+YrE
ebNSKNrLuzTK09qRSs+NdqKya5v5lv0JKtoRI03wy9aysQ4SbJoZZZiHyuTuJM5E
rJCPnRvFKp0CAwEAAaOCAQ4wggEKMAsGA1UdDwQEAwIFoDAJBgNVHRMEAjAAMBEG
CWCGSAGG+EIBAQQEAwIGQDAzBglghkgBhvhCAQ0EJhYkT3BlblNTTCBHZW5lcmF0
ZWQgU2VydmVyIENlcnRpZmljYXRlMB0GA1UdDgQWBBRNB5Ct/x0N5xrd1i76ujTL
qh8kxjB0BgNVHSMEbTBrgBT0p8DMkUavZPOR8if4yLJviocyc6FIpEYwRDELMAkG
A1UEBhMCREUxDzANBgNVBAgMBkhlc3NlbjEUMBIGA1UECgwLcHJpdmFjeWlkZWEx
DjAMBgNVBAMMBUNBMDAxggkA+8jrrIPNEgcwEwYDVR0lBAwwCgYIKwYBBQUHAwEw
DQYJKoZIhvcNAQELBQADggEBADnozpKoS4qNPTO+ay36Ns0rf7uOz1lYojHxvsPl
7FchckC7fOm+pnriMVZCLdSkxdaAOMYvYS5CtY+/I2tyiYwFaoUugb+4LQMj5ptb
nE0OtKJjgtiZJUUbOOZllK5feyjLW0c3OUOoQ9chaMBiMsyD1lZvEACq/oNy6cxW
FRdSAcvV/RfAfvViBy70OjjeAu1yhDtcPFIzhZl06rkqmmbeu00eATzS26nLsFon
SpJMkrjFRNcMiwE9Rbu9ee1Z5FJQ+HxqRqsxJGmsYcy5q3WXt6rw/oXVIeYR2gz6
g2oqKN+s8nazbK/O16pSrt3xV5/ph1Aj5dw0MVmuWG7OiiY=
-----END CERTIFICATE-----
