Certificate:
    Data:
        Version: 3 (0x2)
        Serial Number: 268435669 (0x100000d5)
        Signature Algorithm: sha256WithRSAEncryption
        Issuer: C=DE, ST=Hessen, O=privacyidea, CN=CA001
        Validity
            Not Before: Nov 17 10:20:37 2019 GMT
            Not After : Dec  6 10:20:37 2021 GMT
        Subject: CN=Steve Test/emailAddress=steve@openssl.org
        Subject Public Key Info:
            Public Key Algorithm: rsaEncryption
                RSA Public-Key: (2048 bit)
                Modulus:
                    00:d2:81:89:20:51:48:0f:73:f4:11:32:24:d5:1f:
                    1c:fd:5c:f5:b6:e6:c5:f0:52:81:dc:d2:af:66:4a:
                    7c:93:31:61:5c:af:d1:6d:06:70:03:60:7c:72:0c:
                    88:dd:49:cd:9e:02:6c:d2:5a:d7:53:0f:f3:da:be:
                    69:64:b5:0f:0c:00:e3:b3:50:47:a3:b3:9b:ba:13:
                    50:d6:58:5a:4b:ab:39:e0:11:ca:0a:27:67:03:78:
                    22:66:6d:92:1e:1b:5c:49:ae:e6:6b:d1:8e:3b:9d:
                    06:d3:c6:ac:4d:53:43:10:ab:e8:96:c1:87:82:97:
                    99:8f:20:d3:99:12:37:31:84:e1:8a:ff:29:03:5f:
                    22:90:3e:7f:9b:e0:20:c1:ad:dc:ae:4c:39:1a:31:
                    96:17:02:8c:b2:d9:b4:0d:20:12:9b:7d:86:54:fd:
                    33:fd:c1:2a:62:46:f8:60:96:cf:6e:01:6f:22:df:
                    13:47:e7:97:ec:05:72:23:a3:62:f8:fa:ef:ac:9c:
                    72:f0:37:cb:2f:37:cf:90:a8:27:51:86:c6:d7:78:
                    08:8f:7e:25:a2:15:70:a2:fb:1c:b6:15:5e:a0:97:
                    8b:81:4c:09:28:8a:27:3b:94:bc:71:db:5b:71:37:
                    9a:2b:16:e0:6f:b5:c9:f5:4b:4f:20:ba:65:cf:af:
                    ad:ad
                Exponent: 65537 (0x10001)
        X509v3 extensions:
            X509v3 Key Usage: 
                Digital Signature, Key Encipherment
            X509v3 Basic Constraints: 
                CA:FALSE
            Netscape Cert Type: 
                SSL Server
            Netscape Comment: 
                OpenSSL Generated Server Certificate
            X509v3 Subject Key Identifier: 
                E5:25:6D:3E:AF:0D:DD:3F:4C:F2:45:19:39:D5:14:DB:7E:9C:C0:AD
            X509v3 Authority Key Identifier: 
                keyid:F4:A7:C0:CC:91:46:AF:64:F3:91:F2:27:F8:C8:B2:6F:8A:87:32:73
                DirName:/C=DE/ST=Hessen/O=privacyidea/CN=CA001
                serial:FB:C8:EB:AC:83:CD:12:07

            X509v3 Extended Key Usage: 
                TLS Web Server Authentication
    Signature Algorithm: sha256WithRSAEncryption
         43:82:47:77:f4:b0:c2:fb:45:85:1d:49:78:6a:16:d1:ef:5b:
         7f:a9:cf:32:94:72:31:f6:a9:8a:27:20:53:4c:7c:07:a9:3d:
         e9:78:e1:ee:ea:86:0b:8d:33:a0:91:25:ed:aa:28:c8:ab:1a:
         d2:11:1b:60:1f:a4:2f:a2:4f:7a:f1:93:32:ae:cf:c3:94:da:
         6a:7d:ce:44:00:27:23:67:80:fe:19:9b:1b:c4:c9:bf:72:91:
         5f:58:61:34:eb:87:1f:cd:92:d4:36:b8:25:00:5a:5d:84:06:
         b8:78:5c:cb:e4:98:f9:8c:a7:18:1f:36:87:8c:19:f9:66:5b:
         39:7f:dc:fb:87:c3:9b:4d:93:fe:9c:b2:2d:43:66:36:ce:7e:
         d0:a3:77:12:ff:8c:4b:23:3f:cb:58:da:71:a3:b7:7e:a1:df:
         ee:04:dd:1a:84:74:24:92:d4:15:8f:bf:38:e6:cf:62:2f:7d:
         ca:4a:0f:53:93:60:63:63:fd:f7:c7:d2:e6:3e:4b:52:2f:d2:
         12:21:ae:1a:09:23:60:2f:eb:d1:41:82:8e:4f:97:1d:78:3e:
         88:d1:2a:d2:84:d0:e4:ef:8b:49:41:d7:05:fb:5e:28:e4:6c:
         12:f1:b0:2a:0f:00:01:77:11:c2:6c:af:26:2b:d6:65:d0:bf:
         41:03:ea:06
-----BEGIN CERTIFICATE-----
MIIECTCCAvGgAwIBAgIEEAAA1TANBgkqhkiG9w0BAQsFADBEMQswCQYDVQQGEwJE
RTEPMA0GA1UECAwGSGVzc2VuMRQwEgYDVQQKDAtwcml2YWN5aWRlYTEOMAwGA1UE
AwwFQ0EwMDEwHhcNMTkxMTE3MTAyMDM3WhcNMjExMjA2MTAyMDM3WjA3MRMwEQYD
VQQDDApTdGV2ZSBUZXN0MSAwHgYJKoZIhvcNAQkBFhFzdGV2ZUBvcGVuc3NsLm9y
ZzCCASIwDQYJKoZIhvcNAQEBBQADggEPADCCAQoCggEBANKBiSBRSA9z9BEyJNUf
HP1c9bbmxfBSgdzSr2ZKfJMxYVyv0W0GcANgfHIMiN1JzZ4CbNJa11MP89q+aWS1
DwwA47NQR6Ozm7oTUNZYWkurOeARygonZwN4ImZtkh4bXEmu5mvRjjudBtPGrE1T
QxCr6JbBh4KXmY8g05kSNzGE4Yr/KQNfIpA+f5vgIMGt3K5MORoxlhcCjLLZtA0g
Ept9hlT9M/3BKmJG+GCWz24BbyLfE0fnl+wFciOjYvj676yccvA3yy83z5CoJ1GG
xtd4CI9+JaIVcKL7HLYVXqCXi4FMCSiKJzuUvHHbW3E3misW4G+1yfVLTyC6Zc+v
ra0CAwEAAaOCAQ4wggEKMAsGA1UdDwQEAwIFoDAJBgNVHRMEAjAAMBEGCWCGSAGG
+EIBAQQEAwIGQDAzBglghkgBhvhCAQ0EJhYkT3BlblNTTCBHZW5lcmF0ZWQgU2Vy
dmVyIENlcnRpZmljYXRlMB0GA1UdDgQWBBTlJW0+rw3dP0zyRRk51RTbfpzArTB0
BgNVHSMEbTBrgBT0p8DMkUavZPOR8if4yLJviocyc6FIpEYwRDELMAkGA1UEBhMC
REUxDzANBgNVBAgMBkhlc3NlbjEUMBIGA1UECgwLcHJpdmFjeWlkZWExDjAMBgNV
BAMMBUNBMDAxggkA+8jrrIPNEgcwEwYDVR0lBAwwCgYIKwYBBQUHAwEwDQYJKoZI
hvcNAQELBQADggEBAEOCR3f0sML7RYUdSXhqFtHvW3+pzzKUcjH2qYonIFNMfAep
Pel44e7qhguNM6CRJe2qKMirGtIRG2AfpC+iT3rxkzKuz8OU2mp9zkQAJyNngP4Z
mxvEyb9ykV9YYTTrhx/NktQ2uCUAWl2EBrh4XMvkmPmMpxgfNoeMGflmWzl/3PuH
w5tNk/6csi1DZjbOftCjdxL/jEsjP8tY2nGjt36h3+4E3RqEdCSS1BWPvzjmz2Iv
fcpKD1OTYGNj/ffH0uY+S1Iv0hIhrhoJI2Av69FBgo5Plx14PojRKtKE0OTvi0lB
1wX7XijkbBLxsCoPAAF3EcJsryYr1mXQv0ED6gY=
-----END CERTIFICATE-----
