Certificate:
    Data:
        Version: 3 (0x2)
        Serial Number: 268435698 (0x100000f2)
        Signature Algorithm: sha256WithRSAEncryption
        Issuer: C=DE, ST=Hessen, O=privacyidea, CN=CA001
        Validity
            Not Before: Oct 24 12:55:11 2019 GMT
            Not After : Oct 23 12:55:11 2020 GMT
        Subject: CN=Steve Test/emailAddress=steve@openssl.org
        Subject Public Key Info:
            Public Key Algorithm: rsaEncryption
                RSA Public-Key: (2048 bit)
                Modulus:
                    00:d2:81:89:20:51:48:0f:73:f4:11:32:24:d5:1f:
                    1c:fd:5c:f5:b6:e6:c5:f0:52:81:dc:d2:af:66:4a:
                    7c:93:31:61:5c:af:d1:6d:06:70:03:60:7c:72:0c:
                    88:dd:49:cd:9e:02:6c:d2:5a:d7:53:0f:f3:da:be:
                    69:64:b5:0f:0c:00:e3:b3:50:47:a3:b3:9b:ba:13:
                    50:d6:58:5a:4b:ab:39:e0:11:ca:0a:27:67:03:78:
                    22:66:6d:92:1e:1b:5c:49:ae:e6:6b:d1:8e:3b:9d:
                    06:d3:c6:ac:4d:53:43:10:ab:e8:96:c1:87:82:97:
                    99:8f:20:d3:99:12:37:31:84:e1:8a:ff:29:03:5f:
                    22:90:3e:7f:9b:e0:20:c1:ad:dc:ae:4c:39:1a:31:
                    96:17:02:8c:b2:d9:b4:0d:20:12:9b:7d:86:54:fd:
                    33:fd:c1:2a:62:46:f8:60:96:cf:6e:01:6f:22:df:
                    13:47:e7:97:ec:05:72:23:a3:62:f8:fa:ef:ac:9c:
                    72:f0:37:cb:2f:37:cf:90:a8:27:51:86:c6:d7:78:
                    08:8f:7e:25:a2:15:70:a2:fb:1c:b6:15:5e:a0:97:
                    8b:81:4c:09:28:8a:27:3b:94:bc:71:db:5b:71:37:
                    9a:2b:16:e0:6f:b5:c9:f5:4b:4f:20:ba:65:cf:af:
                    ad:ad
                Exponent: 65537 (0x10001)
        X509v3 extensions:
            X509v3 Key Usage: 
                Digital Signature, Key Encipherment
            X509v3 Basic Constraints: 
                CA:FALSE
            Netscape Cert Type: 
                SSL Server
            Netscape Comment: 
                OpenSSL Generated Server Certificate
            X509v3 Subject Key Identifier: 
                E5:25:6D:3E:AF:0D:DD:3F:4C:F2:45:19:39:D5:14:DB:7E:9C:C0:AD
            X509v3 Authority Key Identifier: 
                keyid:F4:A7:C0:CC:91:46:AF:64:F3:91:F2:27:F8:C8:B2:6F:8A:87:32:73
                DirName:/C=DE/ST=Hessen/O=privacyidea/CN=CA001
                serial:FB:C8:EB:AC:83:CD:12:07

            X509v3 Extended Key Usage: 
                TLS Web Server Authentication
    Signature Algorithm: sha256WithRSAEncryption
         6b:d5:b4:2e:f9:00:c2:41:6e:01:ba:86:80:e1:ea:be:ce:93:
         be:57:b8:3b:8f:af:9c:7f:f3:37:65:8e:4d:26:37:72:a1:c0:
         c5:12:cf:66:cc:84:97:9e:eb:d6:1d:00:32:8b:34:21:5c:1e:
         f1:18:75:30:f6:f6:eb:4c:5e:59:ef:19:da:61:b1:de:c9:d1:
         0d:b6:e0:76:1d:83:18:be:4b:be:b2:66:df:70:e2:be:50:03:
         39:ee:28:a7:96:0e:49:5a:f3:83:e5:30:a4:0b:b1:2c:24:89:
         8c:4d:15:b8:3d:c6:49:ad:c2:72:1c:25:7c:34:e5:20:cd:ae:
         9a:2d:20:4f:2f:68:c1:21:44:61:9e:b4:0e:c1:f2:bc:c4:45:
         11:2c:db:2b:1c:75:ff:5c:d4:aa:ac:f9:a3:80:23:98:95:d0:
         6a:5d:dd:79:2d:cd:89:f5:bd:b6:6c:5d:bb:e8:8b:00:84:5c:
         1a:7c:c3:91:4f:c6:97:8a:71:ae:63:b8:e0:0d:60:be:10:2f:
         a8:f3:06:a1:03:bc:13:f4:60:e6:dc:f2:da:80:38:78:a8:54:
         5b:48:eb:5a:3f:07:df:5e:84:fe:02:03:dd:39:c0:61:29:6f:
         99:2d:2f:f0:33:56:21:96:cb:95:97:f8:58:e1:0e:f5:5a:d0:
         95:b3:4a:5b
-----BEGIN CERTIFICATE-----
MIIECTCCAvGgAwIBAgIEEAAA8jANBgkqhkiG9w0BAQsFADBEMQswCQYDVQQGEwJE
RTEPMA0GA1UECAwGSGVzc2VuMRQwEgYDVQQKDAtwcml2YWN5aWRlYTEOMAwGA1UE
AwwFQ0EwMDEwHhcNMTkxMDI0MTI1NTExWhcNMjAxMDIzMTI1NTExWjA3MRMwEQYD
VQQDDApTdGV2ZSBUZXN0MSAwHgYJKoZIhvcNAQkBFhFzdGV2ZUBvcGVuc3NsLm9y
ZzCCASIwDQYJKoZIhvcNAQEBBQADggEPADCCAQoCggEBANKBiSBRSA9z9BEyJNUf
HP1c9bbmxfBSgdzSr2ZKfJMxYVyv0W0GcANgfHIMiN1JzZ4CbNJa11MP89q+aWS1
DwwA47NQR6Ozm7oTUNZYWkurOeARygonZwN4ImZtkh4bXEmu5mvRjjudBtPGrE1T
QxCr6JbBh4KXmY8g05kSNzGE4Yr/KQNfIpA+f5vgIMGt3K5MORoxlhcCjLLZtA0g
Ept9hlT9M/3BKmJG+GCWz24BbyLfE0fnl+wFciOjYvj676yccvA3yy83z5CoJ1GG
xtd4CI9+JaIVcKL7HLYVXqCXi4FMCSiKJzuUvHHbW3E3misW4G+1yfVLTyC6Zc+v
ra0CAwEAAaOCAQ4wggEKMAsGA1UdDwQEAwIFoDAJBgNVHRMEAjAAMBEGCWCGSAGG
+EIBAQQEAwIGQDAzBglghkgBhvhCAQ0EJhYkT3BlblNTTCBHZW5lcmF0ZWQgU2Vy
dmVyIENlcnRpZmljYXRlMB0GA1UdDgQWBBTlJW0+rw3dP0zyRRk51RTbfpzArTB0
BgNVHSMEbTBrgBT0p8DMkUavZPOR8if4yLJviocyc6FIpEYwRDELMAkGA1UEBhMC
REUxDzANBgNVBAgMBkhlc3NlbjEUMBIGA1UECgwLcHJpdmFjeWlkZWExDjAMBgNV
BAMMBUNBMDAxggkA+8jrrIPNEgcwEwYDVR0lBAwwCgYIKwYBBQUHAwEwDQYJKoZI
hvcNAQELBQADggEBAGvVtC75AMJBbgG6hoDh6r7Ok75XuDuPr5x/8zdljk0mN3Kh
wMUSz2bMhJee69YdADKLNCFcHvEYdTD29utMXlnvGdphsd7J0Q224HYdgxi+S76y
Zt9w4r5QAznuKKeWDkla84PlMKQLsSwkiYxNFbg9xkmtwnIcJXw05SDNrpotIE8v
aMEhRGGetA7B8rzERREs2yscdf9c1Kqs+aOAI5iV0Gpd3XktzYn1vbZsXbvoiwCE
XBp8w5FPxpeKca5juOANYL4QL6jzBqEDvBP0YObc8tqAOHioVFtI61o/B99ehP4C
A905wGEpb5ktL/AzViGWy5WX+FjhDvVa0JWzSls=
-----END CERTIFICATE-----
