Certificate:
    Data:
        Version: 3 (0x2)
        Serial Number: 268435646 (0x100000be)
    Signature Algorithm: sha1WithRSAEncryption
        Issuer: C=DE, ST=Hessen, O=privacyidea, CN=CA001
        Validity
            Not Before: Dec 12 18:20:42 2015 GMT
            Not After : Dec 11 18:20:42 2016 GMT
        Subject: C=DE, ST=Hessen, O=privacyidea, CN=usercert
        Subject Public Key Info:
            Public Key Algorithm: rsaEncryption
                Public-Key: (2048 bit)
                Modulus:
                    00:dc:2f:d1:5f:29:97:d4:7c:c3:53:c8:30:bd:4b:
                    67:70:2c:24:6b:b8:5e:eb:21:7a:48:12:56:7c:81:
                    5c:48:75:b6:68:eb:f6:f2:98:4e:50:51:d1:7f:6c:
                    73:f3:0a:a7:ae:be:48:5e:e5:d6:e1:d9:2a:7c:32:
                    6e:4e:fd:08:f6:5a:54:49:23:73:c3:b9:07:18:d1:
                    ef:b3:ac:f8:8a:dc:94:96:a4:90:3a:8e:74:df:e6:
                    0d:37:1b:bd:5b:b7:25:1a:56:39:da:6f:91:aa:5e:
                    1c:74:f3:f9:7c:14:01:83:12:65:76:c7:bb:fe:36:
                    5b:95:e9:72:65:83:ed:3e:98:30:71:fa:87:dd:a3:
                    36:5a:30:03:2e:26:e0:61:d1:bf:02:3f:b6:06:1f:
                    4a:89:28:1c:5c:a2:ff:4e:be:94:e6:8c:e0:da:82:
                    f1:9d:29:32:48:30:73:b4:04:f6:42:1e:be:f7:e2:
                    32:32:27:3c:9d:89:2f:70:3e:85:9a:6f:5c:c5:09:
                    c0:8c:32:2f:72:22:c9:d2:95:1f:b6:ac:72:60:72:
                    b7:82:4d:6b:ce:5b:e3:00:d0:d2:2f:58:c6:e0:10:
                    e5:51:ca:4d:3b:2e:e6:7e:ab:84:d6:56:f1:93:35:
                    a0:93:64:26:81:75:2f:91:b5:16:06:38:0b:db:cc:
                    2d:07
                Exponent: 65537 (0x10001)
        X509v3 extensions:
            X509v3 Key Usage: 
                Digital Signature, Key Encipherment
            X509v3 Basic Constraints: 
                CA:FALSE
            Netscape Cert Type: 
                SSL Server
            Netscape Comment: 
                OpenSSL Generated Server Certificate
            X509v3 Subject Key Identifier: 
                FC:14:D1:F0:4B:8D:00:90:F2:F5:B8:71:9E:4E:97:C3:92:54:AD:0B
            X509v3 Authority Key Identifier: 
                keyid:F4:A7:C0:CC:91:46:AF:64:F3:91:F2:27:F8:C8:B2:6F:8A:87:32:73
                DirName:/C=DE/ST=Hessen/O=privacyidea/CN=CA001
                serial:FB:C8:EB:AC:83:CD:12:07

            X509v3 Extended Key Usage: 
                TLS Web Server Authentication
    Signature Algorithm: sha1WithRSAEncryption
         4b:bc:7a:69:3d:07:76:1b:ee:36:de:68:d7:d5:0b:d6:0f:e3:
         3a:12:19:5b:b0:7b:6e:e5:5f:17:c7:73:f4:d2:ec:aa:ab:0d:
         87:f8:4a:64:7f:d5:63:98:bc:1f:02:39:fd:8f:e0:86:92:d1:
         6d:18:d7:ff:08:b4:ea:ff:4f:b6:9e:5f:d6:30:32:a1:b3:aa:
         35:02:49:43:84:08:8b:3c:04:ed:8f:5c:88:ff:7b:8d:82:be:
         cd:2e:a3:d1:61:ad:21:cf:57:50:80:57:b4:f1:ce:45:5b:f1:
         77:42:b6:aa:bf:97:94:dc:84:53:28:25:68:cd:2f:c2:26:22:
         13:42:65:8b:bb:45:30:92:7a:0e:9d:a0:e0:3a:70:e4:38:89:
         0e:13:10:6d:d5:3f:5a:9c:57:35:c1:a4:01:d1:b8:31:7b:d3:
         69:ea:5c:f3:9c:3f:f5:3b:25:74:a2:3f:80:85:64:a2:5c:bb:
         52:52:00:2b:a6:42:0b:fb:e6:b5:4c:bc:5b:db:88:c9:63:a8:
         96:d7:e2:59:76:49:17:99:b6:7b:bf:58:71:4f:57:a0:d6:84:
         da:1d:d6:20:03:b6:75:34:6f:8d:42:a0:d7:b4:60:82:98:3f:
         51:ff:5e:7d:a6:79:92:90:2b:8e:38:07:a8:a9:c0:51:73:e6:
         5e:d4:17:d8
-----BEGIN CERTIFICATE-----
MIIEGTCCAwGgAwIBAgIEEAAAvjANBgkqhkiG9w0BAQUFADBEMQswCQYDVQQGEwJE
RTEPMA0GA1UECAwGSGVzc2VuMRQwEgYDVQQKDAtwcml2YWN5aWRlYTEOMAwGA1UE
AwwFQ0EwMDEwHhcNMTUxMjEyMTgyMDQyWhcNMTYxMjExMTgyMDQyWjBHMQswCQYD
VQQGEwJERTEPMA0GA1UECAwGSGVzc2VuMRQwEgYDVQQKDAtwcml2YWN5aWRlYTER
MA8GA1UEAwwIdXNlcmNlcnQwggEiMA0GCSqGSIb3DQEBAQUAA4IBDwAwggEKAoIB
AQDcL9FfKZfUfMNTyDC9S2dwLCRruF7rIXpIElZ8gVxIdbZo6/bymE5QUdF/bHPz
Cqeuvkhe5dbh2Sp8Mm5O/Qj2WlRJI3PDuQcY0e+zrPiK3JSWpJA6jnTf5g03G71b
tyUaVjnab5GqXhx08/l8FAGDEmV2x7v+NluV6XJlg+0+mDBx+ofdozZaMAMuJuBh
0b8CP7YGH0qJKBxcov9OvpTmjODagvGdKTJIMHO0BPZCHr734jIyJzydiS9wPoWa
b1zFCcCMMi9yIsnSlR+2rHJgcreCTWvOW+MA0NIvWMbgEOVRyk07LuZ+q4TWVvGT
NaCTZCaBdS+RtRYGOAvbzC0HAgMBAAGjggEOMIIBCjALBgNVHQ8EBAMCBaAwCQYD
VR0TBAIwADARBglghkgBhvhCAQEEBAMCBkAwMwYJYIZIAYb4QgENBCYWJE9wZW5T
U0wgR2VuZXJhdGVkIFNlcnZlciBDZXJ0aWZpY2F0ZTAdBgNVHQ4EFgQU/BTR8EuN
AJDy9bhxnk6Xw5JUrQswdAYDVR0jBG0wa4AU9KfAzJFGr2TzkfIn+Miyb4qHMnOh
SKRGMEQxCzAJBgNVBAYTAkRFMQ8wDQYDVQQIDAZIZXNzZW4xFDASBgNVBAoMC3By
aXZhY3lpZGVhMQ4wDAYDVQQDDAVDQTAwMYIJAPvI66yDzRIHMBMGA1UdJQQMMAoG
CCsGAQUFBwMBMA0GCSqGSIb3DQEBBQUAA4IBAQBLvHppPQd2G+423mjX1QvWD+M6
EhlbsHtu5V8Xx3P00uyqqw2H+Epkf9VjmLwfAjn9j+CGktFtGNf/CLTq/0+2nl/W
MDKhs6o1AklDhAiLPATtj1yI/3uNgr7NLqPRYa0hz1dQgFe08c5FW/F3Qraqv5eU
3IRTKCVozS/CJiITQmWLu0UwknoOnaDgOnDkOIkOExBt1T9anFc1waQB0bgxe9Np
6lzznD/1OyV0oj+AhWSiXLtSUgArpkIL++a1TLxb24jJY6iW1+JZdkkXmbZ7v1hx
T1eg1oTaHdYgA7Z1NG+NQqDXtGCCmD9R/159pnmSkCuOOAeoqcBRc+Ze1BfY
-----END CERTIFICATE-----
