Certificate:
    Data:
        Version: 3 (0x2)
        Serial Number: 268435624 (0x100000a8)
    Signature Algorithm: sha1WithRSAEncryption
        Issuer: C=DE, ST=Hessen, O=privacyidea, CN=CA001
        Validity
            Not Before: Sep 12 08:33:52 2015 GMT
            Not After : Sep 11 08:33:52 2016 GMT
        Subject: CN=selfservice,CN=user,O=realm1/emailAddress=meine
        Subject Public Key Info:
            Public Key Algorithm: rsaEncryption
                Public-Key: (2048 bit)
                Modulus:
                    00:cf:3c:d4:33:0e:12:c4:e6:da:cd:b6:56:a1:1c:
                    26:bb:26:1c:8a:4a:73:a8:58:8a:b6:1e:b3:8b:99:
                    d2:1d:07:c2:92:89:79:c0:69:d8:c8:df:28:61:98:
                    1e:b3:fe:ae:2b:bd:78:a9:f7:6e:47:dc:a3:a0:16:
                    8c:85:02:c1:4e:92:fd:72:6e:f0:c8:03:29:9b:b8:
                    00:6e:c0:83:95:c8:34:20:36:9c:b3:e5:e4:e6:76:
                    73:a3:1a:ad:40:96:e0:53:54:00:ec:76:79:9a:c6:
                    0d:7e:b6:bd:29:ec:83:f3:cb:89:a4:cb:6c:00:ba:
                    0c:c5:78:0f:ff:69:b8:94:f4:04:70:43:3f:d8:9e:
                    d7:a7:fb:5d:ce:75:8e:da:e7:c4:07:b1:9d:de:6f:
                    88:4b:b6:4d:9a:cf:f9:bc:fa:9f:cd:32:6d:f6:3a:
                    0b:0d:23:42:78:ec:97:42:bf:0e:4d:60:56:e1:d3:
                    02:f2:19:cb:84:57:90:e5:70:a1:a2:83:35:86:e2:
                    da:86:9f:f9:8a:c4:79:b3:52:28:da:cb:bb:34:ca:
                    d3:da:91:4a:cf:8d:76:a2:b2:6b:9b:f9:96:fd:09:
                    2a:da:11:23:4d:f0:cb:d6:b2:b1:0e:12:6c:9a:19:
                    65:98:87:ca:e4:ee:24:ce:44:ac:90:8f:9d:1b:c5:
                    2a:9d
                Exponent: 65537 (0x10001)
        X509v3 extensions:
            X509v3 Key Usage: 
                Digital Signature, Key Encipherment
            X509v3 Basic Constraints: 
                CA:FALSE
            Netscape Cert Type: 
                SSL Server
            Netscape Comment: 
                OpenSSL Generated Server Certificate
            X509v3 Subject Key Identifier: 
                4D:07:90:AD:FF:1D:0D:E7:1A:DD:D6:2E:FA:BA:34:CB:AA:1F:24:C6
            X509v3 Authority Key Identifier: 
                keyid:F4:A7:C0:CC:91:46:AF:64:F3:91:F2:27:F8:C8:B2:6F:8A:87:32:73
                DirName:/C=DE/ST=Hessen/O=privacyidea/CN=CA001
                serial:FB:C8:EB:AC:83:CD:12:07

            X509v3 Extended Key Usage: 
                TLS Web Server Authentication
    Signature Algorithm: sha1WithRSAEncryption
         1a:58:03:72:fe:8d:e6:bf:e1:b8:87:21:95:90:e4:6a:1d:b7:
         f9:54:94:4a:c6:df:20:63:95:69:b1:87:e4:c7:ae:68:a1:95:
         b9:6b:ca:c2:b4:11:59:3f:26:76:83:50:93:5a:b1:8a:2e:95:
         21:93:50:f8:94:7d:96:4c:b5:33:4e:3e:47:1a:0b:4f:e4:14:
         5e:cf:b5:8f:a3:3a:59:d5:d8:c4:aa:f4:10:97:ee:9f:c6:08:
         8d:e9:c6:2c:dd:61:a8:4e:5e:f9:24:dd:77:32:cf:c4:36:7a:
         47:5b:84:b8:02:7d:f8:67:53:46:fa:ec:fb:23:b7:25:f0:51:
         5c:c4:06:43:37:57:3e:fa:8e:17:fd:be:1d:4a:f5:5d:7d:e8:
         e0:df:61:b9:3f:fd:bf:cc:5b:45:b8:2d:95:a8:87:9e:1c:6c:
         57:10:35:36:11:2d:e1:65:89:39:25:db:7e:d2:0c:3d:d0:8f:
         5d:83:19:9d:23:64:7a:05:dc:98:c0:c8:a4:32:30:1e:70:62:
         aa:57:bc:e2:0c:b9:34:c2:ff:a7:d7:64:49:93:79:33:ca:d3:
         d5:5e:ae:86:0d:02:5c:7b:ec:ac:ee:a1:21:85:26:a1:65:76:
         4c:60:d2:43:88:2f:14:9b:96:41:72:37:8a:5e:56:f2:b3:52:
         f5:b3:52:b1
-----BEGIN CERTIFICATE-----
MIIEDzCCAvegAwIBAgIEEAAAqDANBgkqhkiG9w0BAQUFADBEMQswCQYDVQQGEwJE
RTEPMA0GA1UECAwGSGVzc2VuMRQwEgYDVQQKDAtwcml2YWN5aWRlYTEOMAwGA1UE
AwwFQ0EwMDEwHhcNMTUwOTEyMDgzMzUyWhcNMTYwOTExMDgzMzUyWjA9MSUwIwYD
VQQDExxzZWxmc2VydmljZSxDTj11c2VyLE89cmVhbG0xMRQwEgYJKoZIhvcNAQkB
FgVtZWluZTCCASIwDQYJKoZIhvcNAQEBBQADggEPADCCAQoCggEBAM881DMOEsTm
2s22VqEcJrsmHIpKc6hYirYes4uZ0h0HwpKJecBp2MjfKGGYHrP+riu9eKn3bkfc
o6AWjIUCwU6S/XJu8MgDKZu4AG7Ag5XINCA2nLPl5OZ2c6MarUCW4FNUAOx2eZrG
DX62vSnsg/PLiaTLbAC6DMV4D/9puJT0BHBDP9ie16f7Xc51jtrnxAexnd5viEu2
TZrP+bz6n80ybfY6Cw0jQnjsl0K/Dk1gVuHTAvIZy4RXkOVwoaKDNYbi2oaf+YrE
ebNSKNrLuzTK09qRSs+NdqKya5v5lv0JKtoRI03wy9aysQ4SbJoZZZiHyuTuJM5E
rJCPnRvFKp0CAwEAAaOCAQ4wggEKMAsGA1UdDwQEAwIFoDAJBgNVHRMEAjAAMBEG
CWCGSAGG+EIBAQQEAwIGQDAzBglghkgBhvhCAQ0EJhYkT3BlblNTTCBHZW5lcmF0
ZWQgU2VydmVyIENlcnRpZmljYXRlMB0GA1UdDgQWBBRNB5Ct/x0N5xrd1i76ujTL
qh8kxjB0BgNVHSMEbTBrgBT0p8DMkUavZPOR8if4yLJviocyc6FIpEYwRDELMAkG
A1UEBhMCREUxDzANBgNVBAgMBkhlc3NlbjEUMBIGA1UECgwLcHJpdmFjeWlkZWEx
DjAMBgNVBAMMBUNBMDAxggkA+8jrrIPNEgcwEwYDVR0lBAwwCgYIKwYBBQUHAwEw
DQYJKoZIhvcNAQEFBQADggEBABpYA3L+jea/4biHIZWQ5Godt/lUlErG3yBjlWmx
h+THrmihlblrysK0EVk/JnaDUJNasYoulSGTUPiUfZZMtTNOPkcaC0/kFF7PtY+j
OlnV2MSq9BCX7p/GCI3pxizdYahOXvkk3Xcyz8Q2ekdbhLgCffhnU0b67PsjtyXw
UVzEBkM3Vz76jhf9vh1K9V196ODfYbk//b/MW0W4LZWoh54cbFcQNTYRLeFliTkl
237SDD3Qj12DGZ0jZHoF3JjAyKQyMB5wYqpXvOIMuTTC/6fXZEmTeTPK09VeroYN
Alx77KzuoSGFJqFldkxg0kOILxSblkFyN4peVvKzUvWzUrE=
-----END CERTIFICATE-----
