Certificate:
    Data:
        Version: 3 (0x2)
        Serial Number: 268435738 (0x1000011a)
    Signature Algorithm: sha256WithRSAEncryption
        Issuer: C=DE, ST=Hessen, O=privacyidea, CN=CA001
        Validity
            Not Before: Jan  9 23:55:42 2019 GMT
            Not After : Jan 28 23:55:42 2021 GMT
        Subject: CN=Steve Test/emailAddress=steve@openssl.org
        Subject Public Key Info:
            Public Key Algorithm: rsaEncryption
                Public-Key: (2048 bit)
                Modulus:
                    00:d2:81:89:20:51:48:0f:73:f4:11:32:24:d5:1f:
                    1c:fd:5c:f5:b6:e6:c5:f0:52:81:dc:d2:af:66:4a:
                    7c:93:31:61:5c:af:d1:6d:06:70:03:60:7c:72:0c:
                    88:dd:49:cd:9e:02:6c:d2:5a:d7:53:0f:f3:da:be:
                    69:64:b5:0f:0c:00:e3:b3:50:47:a3:b3:9b:ba:13:
                    50:d6:58:5a:4b:ab:39:e0:11:ca:0a:27:67:03:78:
                    22:66:6d:92:1e:1b:5c:49:ae:e6:6b:d1:8e:3b:9d:
                    06:d3:c6:ac:4d:53:43:10:ab:e8:96:c1:87:82:97:
                    99:8f:20:d3:99:12:37:31:84:e1:8a:ff:29:03:5f:
                    22:90:3e:7f:9b:e0:20:c1:ad:dc:ae:4c:39:1a:31:
                    96:17:02:8c:b2:d9:b4:0d:20:12:9b:7d:86:54:fd:
                    33:fd:c1:2a:62:46:f8:60:96:cf:6e:01:6f:22:df:
                    13:47:e7:97:ec:05:72:23:a3:62:f8:fa:ef:ac:9c:
                    72:f0:37:cb:2f:37:cf:90:a8:27:51:86:c6:d7:78:
                    08:8f:7e:25:a2:15:70:a2:fb:1c:b6:15:5e:a0:97:
                    8b:81:4c:09:28:8a:27:3b:94:bc:71:db:5b:71:37:
                    9a:2b:16:e0:6f:b5:c9:f5:4b:4f:20:ba:65:cf:af:
                    ad:ad
                Exponent: 65537 (0x10001)
        X509v3 extensions:
            X509v3 Key Usage: 
                Digital Signature, Key Encipherment
            X509v3 Basic Constraints: 
                CA:FALSE
            Netscape Cert Type: 
                SSL Server
            Netscape Comment: 
                OpenSSL Generated Server Certificate
            X509v3 Subject Key Identifier: 
                E5:25:6D:3E:AF:0D:DD:3F:4C:F2:45:19:39:D5:14:DB:7E:9C:C0:AD
            X509v3 Authority Key Identifier: 
                keyid:F4:A7:C0:CC:91:46:AF:64:F3:91:F2:27:F8:C8:B2:6F:8A:87:32:73
                DirName:/C=DE/ST=Hessen/O=privacyidea/CN=CA001
                serial:FB:C8:EB:AC:83:CD:12:07

            X509v3 Extended Key Usage: 
                TLS Web Server Authentication
    Signature Algorithm: sha256WithRSAEncryption
         0c:39:e0:73:39:34:f1:57:68:70:f2:3b:04:20:9b:b6:bb:6d:
         b7:e4:d1:d2:88:53:1a:ab:f1:db:51:25:88:88:40:e8:94:d3:
         5b:ff:8e:35:2f:9c:5b:40:af:78:d4:54:02:19:74:e9:ec:cb:
         78:99:0b:c5:64:d2:8c:03:e7:8f:6b:05:e7:de:f4:8f:09:f5:
         93:bf:fb:c3:19:6e:69:29:26:9f:44:67:28:10:92:b6:1c:d2:
         fd:4c:4e:09:73:30:66:a1:17:07:ac:1d:45:88:d0:af:6d:80:
         08:0d:91:4c:c6:6a:3d:3b:be:80:92:51:6c:b0:96:21:ff:30:
         ea:da:0a:c7:38:fe:3d:60:b1:85:5b:a8:86:f1:c9:a6:c1:25:
         b4:78:ae:05:37:63:25:24:25:92:72:1a:74:04:02:eb:e7:56:
         73:6f:da:21:e0:ff:87:fa:2a:eb:95:12:0f:6e:c0:32:45:77:
         51:9a:99:4d:7a:70:78:85:84:7a:68:4b:cd:f4:f7:06:92:fc:
         de:42:a1:19:49:93:36:58:3b:c0:a7:97:b8:50:a8:20:8e:08:
         83:aa:6f:ac:48:f5:a5:2a:e1:75:aa:2c:89:f7:a7:5a:ed:18:
         7f:94:36:5e:d5:9c:2e:6a:33:c0:3d:06:b8:b1:77:77:6d:72:
         51:ae:34:c2
-----BEGIN CERTIFICATE-----
MIIECTCCAvGgAwIBAgIEEAABGjANBgkqhkiG9w0BAQsFADBEMQswCQYDVQQGEwJE
RTEPMA0GA1UECAwGSGVzc2VuMRQwEgYDVQQKDAtwcml2YWN5aWRlYTEOMAwGA1UE
AwwFQ0EwMDEwHhcNMTkwMTA5MjM1NTQyWhcNMjEwMTI4MjM1NTQyWjA3MRMwEQYD
VQQDDApTdGV2ZSBUZXN0MSAwHgYJKoZIhvcNAQkBFhFzdGV2ZUBvcGVuc3NsLm9y
ZzCCASIwDQYJKoZIhvcNAQEBBQADggEPADCCAQoCggEBANKBiSBRSA9z9BEyJNUf
HP1c9bbmxfBSgdzSr2ZKfJMxYVyv0W0GcANgfHIMiN1JzZ4CbNJa11MP89q+aWS1
DwwA47NQR6Ozm7oTUNZYWkurOeARygonZwN4ImZtkh4bXEmu5mvRjjudBtPGrE1T
QxCr6JbBh4KXmY8g05kSNzGE4Yr/KQNfIpA+f5vgIMGt3K5MORoxlhcCjLLZtA0g
Ept9hlT9M/3BKmJG+GCWz24BbyLfE0fnl+wFciOjYvj676yccvA3yy83z5CoJ1GG
xtd4CI9+JaIVcKL7HLYVXqCXi4FMCSiKJzuUvHHbW3E3misW4G+1yfVLTyC6Zc+v
ra0CAwEAAaOCAQ4wggEKMAsGA1UdDwQEAwIFoDAJBgNVHRMEAjAAMBEGCWCGSAGG
+EIBAQQEAwIGQDAzBglghkgBhvhCAQ0EJhYkT3BlblNTTCBHZW5lcmF0ZWQgU2Vy
dmVyIENlcnRpZmljYXRlMB0GA1UdDgQWBBTlJW0+rw3dP0zyRRk51RTbfpzArTB0
BgNVHSMEbTBrgBT0p8DMkUavZPOR8if4yLJviocyc6FIpEYwRDELMAkGA1UEBhMC
REUxDzANBgNVBAgMBkhlc3NlbjEUMBIGA1UECgwLcHJpdmFjeWlkZWExDjAMBgNV
BAMMBUNBMDAxggkA+8jrrIPNEgcwEwYDVR0lBAwwCgYIKwYBBQUHAwEwDQYJKoZI
hvcNAQELBQADggEBAAw54HM5NPFXaHDyOwQgm7a7bbfk0dKIUxqr8dtRJYiIQOiU
01v/jjUvnFtAr3jUVAIZdOnsy3iZC8Vk0owD549rBefe9I8J9ZO/+8MZbmkpJp9E
ZygQkrYc0v1MTglzMGahFwesHUWI0K9tgAgNkUzGaj07voCSUWywliH/MOraCsc4
/j1gsYVbqIbxyabBJbR4rgU3YyUkJZJyGnQEAuvnVnNv2iHg/4f6KuuVEg9uwDJF
d1GamU16cHiFhHpoS8309waS/N5CoRlJkzZYO8Cnl7hQqCCOCIOqb6xI9aUq4XWq
LIn3p1rtGH+UNl7VnC5qM8A9Brixd3dtclGuNMI=
-----END CERTIFICATE-----
