Certificate:
    Data:
        Version: 3 (0x2)
        Serial Number: 268435664 (0x100000d0)
        Signature Algorithm: sha256WithRSAEncryption
        Issuer: C=DE, ST=Hessen, O=privacyidea, CN=CA001
        Validity
            Not Before: Nov 17 10:19:05 2019 GMT
            Not After : Nov 16 10:19:05 2020 GMT
        Subject: C=DE, ST=Hessen, O=privacyidea, CN=requester.localdomain
        Subject Public Key Info:
            Public Key Algorithm: rsaEncryption
                RSA Public-Key: (2048 bit)
                Modulus:
                    00:cd:be:14:4f:fa:ce:01:3f:42:22:1b:1d:9c:af:
                    dd:92:d2:7f:db:6c:b7:3e:39:43:43:6b:13:03:f1:
                    05:f4:07:74:bc:76:69:28:0b:af:19:8e:d7:fc:e3:
                    cd:c6:58:f2:ca:7f:08:6d:53:fc:07:02:44:24:c6:
                    b4:34:4c:8c:04:fe:33:0e:40:e2:20:ba:02:73:5a:
                    f7:f5:4f:63:6e:cc:c6:b6:df:54:1d:37:39:7d:51:
                    36:26:5f:bd:dc:3f:a8:8b:6b:a2:ae:b6:9d:d6:21:
                    e7:df:41:b8:7a:28:2a:68:48:ca:a8:2d:ed:e1:e9:
                    46:5e:5a:72:6d:b4:84:38:87:91:fd:94:11:0b:28:
                    84:c6:c2:2f:2a:fb:01:f9:36:7a:09:75:d1:33:88:
                    3c:73:41:5b:c8:bf:94:89:70:a1:f0:c0:b9:2e:50:
                    53:1e:b1:17:64:69:f4:2d:81:e0:a9:0d:0e:32:e9:
                    ba:55:8a:85:f1:1b:6f:49:79:b4:7f:88:c3:0d:3e:
                    54:88:9b:3d:1f:38:8c:04:f3:ee:6a:63:2b:f5:c6:
                    db:b4:83:aa:c4:78:41:3a:7d:4b:e1:c8:3e:71:ca:
                    1b:61:59:ea:c6:c4:ca:32:5e:c9:e9:bf:12:29:e6:
                    c6:c3:63:fe:a0:55:da:7a:f1:60:98:4d:26:ed:fa:
                    70:2d
                Exponent: 65537 (0x10001)
        X509v3 extensions:
            X509v3 Key Usage: 
                Digital Signature, Key Encipherment
            X509v3 Basic Constraints: 
                CA:FALSE
            Netscape Cert Type: 
                SSL Server
            Netscape Comment: 
                OpenSSL Generated Server Certificate
            X509v3 Subject Key Identifier: 
                53:3F:ED:5D:09:07:B3:65:7B:AB:45:C9:24:5B:09:77:80:0A:96:ED
            X509v3 Authority Key Identifier: 
                keyid:F4:A7:C0:CC:91:46:AF:64:F3:91:F2:27:F8:C8:B2:6F:8A:87:32:73
                DirName:/C=DE/ST=Hessen/O=privacyidea/CN=CA001
                serial:FB:C8:EB:AC:83:CD:12:07

            X509v3 Extended Key Usage: 
                TLS Web Server Authentication
    Signature Algorithm: sha256WithRSAEncryption
         93:7d:fd:f7:6d:c6:c0:64:10:56:2a:c7:ab:f2:f3:b1:f4:52:
         ee:c2:c1:95:b9:f4:d1:2c:c5:2d:c2:57:f3:1d:24:4c:0e:21:
         e3:37:e3:1c:e7:5c:b6:54:05:7b:a5:2b:b7:1b:43:48:c9:eb:
         c6:9b:3a:d3:ba:80:0e:bf:42:76:37:e5:b9:7a:d2:86:57:2f:
         4a:18:5a:43:23:65:a2:85:19:7b:dd:fe:c0:1d:62:38:a1:06:
         d9:d1:98:b6:04:c4:f1:7e:6c:7a:4b:c3:81:18:c1:b0:09:2f:
         96:17:6a:aa:36:25:0b:f5:6a:e7:8c:8b:09:b2:a0:29:8c:69:
         0b:d9:03:9a:2e:f9:fe:f9:ff:da:d4:19:ee:85:95:b7:7a:06:
         7d:2e:f7:fc:5e:1a:93:af:b3:99:d1:47:23:82:7a:ac:04:81:
         c7:00:db:15:4f:14:90:41:27:5a:38:ef:a3:f6:ea:1b:72:6b:
         2f:0e:84:b0:e3:07:11:87:b8:89:56:9b:dc:e7:fc:47:04:f1:
         2f:35:9e:10:fe:e9:3b:84:1b:a1:c1:f6:dc:7d:91:7f:c5:87:
         f3:e8:55:0f:cf:69:56:38:4e:ce:61:8e:90:e8:74:1a:a9:1c:
         75:ce:ac:9c:a9:98:a6:d0:85:43:46:8a:df:ad:e1:83:fb:e5:
         37:d3:c8:26
-----BEGIN CERTIFICATE-----
MIIEJjCCAw6gAwIBAgIEEAAA0DANBgkqhkiG9w0BAQsFADBEMQswCQYDVQQGEwJE
RTEPMA0GA1UECAwGSGVzc2VuMRQwEgYDVQQKDAtwcml2YWN5aWRlYTEOMAwGA1UE
AwwFQ0EwMDEwHhcNMTkxMTE3MTAxOTA1WhcNMjAxMTE2MTAxOTA1WjBUMQswCQYD
VQQGEwJERTEPMA0GA1UECAwGSGVzc2VuMRQwEgYDVQQKDAtwcml2YWN5aWRlYTEe
MBwGA1UEAwwVcmVxdWVzdGVyLmxvY2FsZG9tYWluMIIBIjANBgkqhkiG9w0BAQEF
AAOCAQ8AMIIBCgKCAQEAzb4UT/rOAT9CIhsdnK/dktJ/22y3PjlDQ2sTA/EF9Ad0
vHZpKAuvGY7X/OPNxljyyn8IbVP8BwJEJMa0NEyMBP4zDkDiILoCc1r39U9jbszG
tt9UHTc5fVE2Jl+93D+oi2uirrad1iHn30G4eigqaEjKqC3t4elGXlpybbSEOIeR
/ZQRCyiExsIvKvsB+TZ6CXXRM4g8c0FbyL+UiXCh8MC5LlBTHrEXZGn0LYHgqQ0O
Mum6VYqF8RtvSXm0f4jDDT5UiJs9HziMBPPuamMr9cbbtIOqxHhBOn1L4cg+ccob
YVnqxsTKMl7J6b8SKebGw2P+oFXaevFgmE0m7fpwLQIDAQABo4IBDjCCAQowCwYD
VR0PBAQDAgWgMAkGA1UdEwQCMAAwEQYJYIZIAYb4QgEBBAQDAgZAMDMGCWCGSAGG
+EIBDQQmFiRPcGVuU1NMIEdlbmVyYXRlZCBTZXJ2ZXIgQ2VydGlmaWNhdGUwHQYD
VR0OBBYEFFM/7V0JB7Nle6tFySRbCXeACpbtMHQGA1UdIwRtMGuAFPSnwMyRRq9k
85HyJ/jIsm+KhzJzoUikRjBEMQswCQYDVQQGEwJERTEPMA0GA1UECAwGSGVzc2Vu
MRQwEgYDVQQKDAtwcml2YWN5aWRlYTEOMAwGA1UEAwwFQ0EwMDGCCQD7yOusg80S
BzATBgNVHSUEDDAKBggrBgEFBQcDATANBgkqhkiG9w0BAQsFAAOCAQEAk339923G
wGQQVirHq/LzsfRS7sLBlbn00SzFLcJX8x0kTA4h4zfjHOdctlQFe6UrtxtDSMnr
xps607qADr9CdjfluXrShlcvShhaQyNlooUZe93+wB1iOKEG2dGYtgTE8X5sekvD
gRjBsAkvlhdqqjYlC/Vq54yLCbKgKYxpC9kDmi75/vn/2tQZ7oWVt3oGfS73/F4a
k6+zmdFHI4J6rASBxwDbFU8UkEEnWjjvo/bqG3JrLw6EsOMHEYe4iVab3Of8RwTx
LzWeEP7pO4QbocH23H2Rf8WH8+hVD89pVjhOzmGOkOh0Gqkcdc6snKmYptCFQ0aK
363hg/vlN9PIJg==
-----END CERTIFICATE-----
