Certificate:
    Data:
        Version: 3 (0x2)
        Serial Number: 268435675 (0x100000db)
        Signature Algorithm: sha256WithRSAEncryption
        Issuer: C=DE, ST=Hessen, O=privacyidea, CN=CA001
        Validity
            Not Before: Nov 15 18:52:00 2019 GMT
            Not After : Dec  4 18:52:00 2021 GMT
        Subject: CN=Steve Test/emailAddress=steve@openssl.org
        Subject Public Key Info:
            Public Key Algorithm: rsaEncryption
                RSA Public-Key: (2048 bit)
                Modulus:
                    00:d2:81:89:20:51:48:0f:73:f4:11:32:24:d5:1f:
                    1c:fd:5c:f5:b6:e6:c5:f0:52:81:dc:d2:af:66:4a:
                    7c:93:31:61:5c:af:d1:6d:06:70:03:60:7c:72:0c:
                    88:dd:49:cd:9e:02:6c:d2:5a:d7:53:0f:f3:da:be:
                    69:64:b5:0f:0c:00:e3:b3:50:47:a3:b3:9b:ba:13:
                    50:d6:58:5a:4b:ab:39:e0:11:ca:0a:27:67:03:78:
                    22:66:6d:92:1e:1b:5c:49:ae:e6:6b:d1:8e:3b:9d:
                    06:d3:c6:ac:4d:53:43:10:ab:e8:96:c1:87:82:97:
                    99:8f:20:d3:99:12:37:31:84:e1:8a:ff:29:03:5f:
                    22:90:3e:7f:9b:e0:20:c1:ad:dc:ae:4c:39:1a:31:
                    96:17:02:8c:b2:d9:b4:0d:20:12:9b:7d:86:54:fd:
                    33:fd:c1:2a:62:46:f8:60:96:cf:6e:01:6f:22:df:
                    13:47:e7:97:ec:05:72:23:a3:62:f8:fa:ef:ac:9c:
                    72:f0:37:cb:2f:37:cf:90:a8:27:51:86:c6:d7:78:
                    08:8f:7e:25:a2:15:70:a2:fb:1c:b6:15:5e:a0:97:
                    8b:81:4c:09:28:8a:27:3b:94:bc:71:db:5b:71:37:
                    9a:2b:16:e0:6f:b5:c9:f5:4b:4f:20:ba:65:cf:af:
                    ad:ad
                Exponent: 65537 (0x10001)
        X509v3 extensions:
            X509v3 Key Usage: 
                Digital Signature, Key Encipherment
            X509v3 Basic Constraints: 
                CA:FALSE
            Netscape Cert Type: 
                SSL Server
            Netscape Comment: 
                OpenSSL Generated Server Certificate
            X509v3 Subject Key Identifier: 
                E5:25:6D:3E:AF:0D:DD:3F:4C:F2:45:19:39:D5:14:DB:7E:9C:C0:AD
            X509v3 Authority Key Identifier: 
                keyid:F4:A7:C0:CC:91:46:AF:64:F3:91:F2:27:F8:C8:B2:6F:8A:87:32:73
                DirName:/C=DE/ST=Hessen/O=privacyidea/CN=CA001
                serial:FB:C8:EB:AC:83:CD:12:07

            X509v3 Extended Key Usage: 
                TLS Web Server Authentication
    Signature Algorithm: sha256WithRSAEncryption
         08:62:c6:91:21:af:6b:5a:3e:18:41:0a:aa:e0:4a:56:80:ff:
         08:87:11:a7:ae:67:bb:43:19:ac:62:d1:e6:0b:ad:17:bd:65:
         c6:0f:7a:e0:52:75:c5:2f:74:0c:34:97:c6:25:60:28:a7:4d:
         eb:5a:d9:be:41:da:db:48:18:4e:8f:f8:3f:0c:5b:74:0c:18:
         c6:77:ac:b8:14:33:7a:60:59:c7:86:df:32:f7:3d:51:3a:30:
         0d:96:b8:2e:0b:9f:49:39:80:0e:cc:35:93:ce:dc:0a:e3:8d:
         d6:69:0e:58:b9:79:77:18:52:44:fd:de:5c:6b:67:83:9f:67:
         fa:1d:c2:42:1b:e3:65:72:f9:b1:47:d8:d1:75:05:0b:a0:2d:
         44:8c:6d:99:da:ac:b1:8a:f4:92:a5:ba:ca:8a:6b:ce:c8:45:
         64:91:0f:31:49:f7:68:94:e7:52:2b:7f:c8:ae:6f:c2:23:62:
         c0:cb:a3:52:53:f8:51:23:e8:63:19:d5:be:80:4b:88:99:4e:
         20:41:bb:8f:39:04:61:0f:a2:91:aa:ff:c0:c1:da:6f:67:9f:
         f7:27:bd:97:f1:15:d1:cb:82:fb:b3:5f:5d:3a:be:4b:cc:4a:
         66:8b:98:61:1d:83:01:b8:9e:07:2d:de:03:66:37:35:63:54:
         f0:db:53:84
-----BEGIN CERTIFICATE-----
MIIECTCCAvGgAwIBAgIEEAAA2zANBgkqhkiG9w0BAQsFADBEMQswCQYDVQQGEwJE
RTEPMA0GA1UECAwGSGVzc2VuMRQwEgYDVQQKDAtwcml2YWN5aWRlYTEOMAwGA1UE
AwwFQ0EwMDEwHhcNMTkxMTE1MTg1MjAwWhcNMjExMjA0MTg1MjAwWjA3MRMwEQYD
VQQDDApTdGV2ZSBUZXN0MSAwHgYJKoZIhvcNAQkBFhFzdGV2ZUBvcGVuc3NsLm9y
ZzCCASIwDQYJKoZIhvcNAQEBBQADggEPADCCAQoCggEBANKBiSBRSA9z9BEyJNUf
HP1c9bbmxfBSgdzSr2ZKfJMxYVyv0W0GcANgfHIMiN1JzZ4CbNJa11MP89q+aWS1
DwwA47NQR6Ozm7oTUNZYWkurOeARygonZwN4ImZtkh4bXEmu5mvRjjudBtPGrE1T
QxCr6JbBh4KXmY8g05kSNzGE4Yr/KQNfIpA+f5vgIMGt3K5MORoxlhcCjLLZtA0g
Ept9hlT9M/3BKmJG+GCWz24BbyLfE0fnl+wFciOjYvj676yccvA3yy83z5CoJ1GG
xtd4CI9+JaIVcKL7HLYVXqCXi4FMCSiKJzuUvHHbW3E3misW4G+1yfVLTyC6Zc+v
ra0CAwEAAaOCAQ4wggEKMAsGA1UdDwQEAwIFoDAJBgNVHRMEAjAAMBEGCWCGSAGG
+EIBAQQEAwIGQDAzBglghkgBhvhCAQ0EJhYkT3BlblNTTCBHZW5lcmF0ZWQgU2Vy
dmVyIENlcnRpZmljYXRlMB0GA1UdDgQWBBTlJW0+rw3dP0zyRRk51RTbfpzArTB0
BgNVHSMEbTBrgBT0p8DMkUavZPOR8if4yLJviocyc6FIpEYwRDELMAkGA1UEBhMC
REUxDzANBgNVBAgMBkhlc3NlbjEUMBIGA1UECgwLcHJpdmFjeWlkZWExDjAMBgNV
BAMMBUNBMDAxggkA+8jrrIPNEgcwEwYDVR0lBAwwCgYIKwYBBQUHAwEwDQYJKoZI
hvcNAQELBQADggEBAAhixpEhr2taPhhBCqrgSlaA/wiHEaeuZ7tDGaxi0eYLrRe9
ZcYPeuBSdcUvdAw0l8YlYCinTeta2b5B2ttIGE6P+D8MW3QMGMZ3rLgUM3pgWceG
3zL3PVE6MA2WuC4Ln0k5gA7MNZPO3ArjjdZpDli5eXcYUkT93lxrZ4OfZ/odwkIb
42Vy+bFH2NF1BQugLUSMbZnarLGK9JKlusqKa87IRWSRDzFJ92iU51Irf8iub8Ij
YsDLo1JT+FEj6GMZ1b6AS4iZTiBBu485BGEPopGq/8DB2m9nn/cnvZfxFdHLgvuz
X106vkvMSmaLmGEdgwG4ngct3gNmNzVjVPDbU4Q=
-----END CERTIFICATE-----
