Certificate:
    Data:
        Version: 3 (0x2)
        Serial Number: 268435704 (0x100000f8)
        Signature Algorithm: sha256WithRSAEncryption
        Issuer: C=DE, ST=Hessen, O=privacyidea, CN=CA001
        Validity
            Not Before: Aug 14 21:26:00 2019 GMT
            Not After : Aug 13 21:26:00 2020 GMT
        Subject: OU=realm1, CN=cornelius/emailAddress=user@localhost.localdomain
        Subject Public Key Info:
            Public Key Algorithm: rsaEncryption
                RSA Public-Key: (2048 bit)
                Modulus:
                    00:d6:d1:bb:a2:01:f9:ea:6c:99:01:74:dd:f4:5b:
                    ef:44:3f:92:28:52:25:5b:ae:57:21:9d:a5:e9:fb:
                    89:b1:26:5c:2f:c3:8b:38:a1:bb:f9:6e:75:a6:b7:
                    12:8d:27:11:6b:88:0c:8c:e7:bc:ce:09:62:c1:44:
                    cb:3c:7d:c9:89:f2:9d:b6:31:a9:34:1c:17:ab:fb:
                    51:26:47:b7:e7:59:9d:3d:08:67:1c:af:78:fa:45:
                    0a:1d:ed:a0:53:10:26:a3:9c:ff:c9:2a:c0:ec:a2:
                    45:e8:13:e6:59:1e:6e:95:be:c4:88:68:30:07:5d:
                    40:bd:f9:d3:77:5f:8c:19:3a:58:0d:ba:d8:6e:38:
                    b3:af:e4:ad:5a:ac:e8:04:e9:5c:4b:1c:c7:0d:c8:
                    6f:10:7b:38:5e:55:c2:74:a4:53:d7:f4:8f:b5:14:
                    e6:21:38:bd:09:3b:50:eb:88:24:aa:96:33:d2:71:
                    f2:df:de:d0:1a:85:84:b7:23:8e:69:ae:be:46:14:
                    e7:fb:71:77:6c:64:cc:2a:67:11:2c:34:be:52:8d:
                    6c:3d:c3:27:85:8e:46:f3:ea:6b:7d:f3:b2:4b:e4:
                    8e:27:ca:e2:31:13:b3:86:b0:43:eb:f7:30:3c:09:
                    f4:85:bb:ba:e0:bf:34:e0:0f:f0:53:10:ff:01:44:
                    79:a3
                Exponent: 65537 (0x10001)
        X509v3 extensions:
            X509v3 Key Usage: 
                Digital Signature, Key Encipherment
            X509v3 Basic Constraints: 
                CA:FALSE
            Netscape Cert Type: 
                SSL Server
            Netscape Comment: 
                OpenSSL Generated Server Certificate
            X509v3 Subject Key Identifier: 
                72:E7:D1:06:BC:D0:30:E0:CC:20:28:44:03:DB:6D:A7:1A:F2:16:B0
            X509v3 Authority Key Identifier: 
                keyid:F4:A7:C0:CC:91:46:AF:64:F3:91:F2:27:F8:C8:B2:6F:8A:87:32:73
                DirName:/C=DE/ST=Hessen/O=privacyidea/CN=CA001
                serial:FB:C8:EB:AC:83:CD:12:07

            X509v3 Extended Key Usage: 
                TLS Web Server Authentication
    Signature Algorithm: sha256WithRSAEncryption
         64:42:cc:47:8c:c5:50:2f:a1:e8:4d:33:56:3b:16:ad:44:30:
         82:b7:08:26:ed:e7:f6:5f:53:79:9e:a1:95:1c:f7:ce:6f:39:
         9b:9c:04:00:60:dc:14:43:eb:9f:58:a6:0e:3a:83:54:b2:17:
         77:3c:73:34:22:2e:cf:a9:25:3e:31:4b:12:b0:ae:b6:52:51:
         a8:b6:df:a1:63:c8:31:97:82:4c:42:ae:ba:8d:53:8a:c8:05:
         ac:02:89:89:20:ed:f4:93:df:31:f8:7d:93:ee:34:cc:68:56:
         cf:0a:37:33:b6:27:b8:27:e3:9c:00:0e:90:0b:f8:0f:ac:ac:
         79:21:ec:de:70:07:57:b0:8f:00:bf:bb:db:7b:aa:a5:dd:a2:
         43:dd:e1:ea:ce:c5:48:fd:b0:41:e6:f1:9b:78:39:dd:8f:44:
         66:82:2f:99:f7:1e:89:81:e6:5e:3d:e4:0f:f7:92:54:0b:b2:
         5d:c2:1a:7e:06:04:aa:ce:2d:fc:83:b6:64:f3:5a:62:46:3b:
         69:6a:d9:31:34:39:3e:88:b2:20:4c:56:a9:ac:d8:15:0f:a9:
         c4:5a:a9:f2:9e:c1:d6:66:e4:de:4f:d8:06:ad:53:d2:19:e3:
         51:4e:ae:14:50:32:c3:77:7c:05:59:dd:2d:64:5a:b3:99:e9:
         c1:84:8f:a7
-----BEGIN CERTIFICATE-----
MIIEIjCCAwqgAwIBAgIEEAAA+DANBgkqhkiG9w0BAQsFADBEMQswCQYDVQQGEwJE
RTEPMA0GA1UECAwGSGVzc2VuMRQwEgYDVQQKDAtwcml2YWN5aWRlYTEOMAwGA1UE
AwwFQ0EwMDEwHhcNMTkwODE0MjEyNjAwWhcNMjAwODEzMjEyNjAwWjBQMQ8wDQYD
VQQLDAZyZWFsbTExEjAQBgNVBAMMCWNvcm5lbGl1czEpMCcGCSqGSIb3DQEJARYa
dXNlckBsb2NhbGhvc3QubG9jYWxkb21haW4wggEiMA0GCSqGSIb3DQEBAQUAA4IB
DwAwggEKAoIBAQDW0buiAfnqbJkBdN30W+9EP5IoUiVbrlchnaXp+4mxJlwvw4s4
obv5bnWmtxKNJxFriAyM57zOCWLBRMs8fcmJ8p22Mak0HBer+1EmR7fnWZ09CGcc
r3j6RQod7aBTECajnP/JKsDsokXoE+ZZHm6VvsSIaDAHXUC9+dN3X4wZOlgNuthu
OLOv5K1arOgE6VxLHMcNyG8QezheVcJ0pFPX9I+1FOYhOL0JO1DriCSqljPScfLf
3tAahYS3I45prr5GFOf7cXdsZMwqZxEsNL5SjWw9wyeFjkbz6mt987JL5I4nyuIx
E7OGsEPr9zA8CfSFu7rgvzTgD/BTEP8BRHmjAgMBAAGjggEOMIIBCjALBgNVHQ8E
BAMCBaAwCQYDVR0TBAIwADARBglghkgBhvhCAQEEBAMCBkAwMwYJYIZIAYb4QgEN
BCYWJE9wZW5TU0wgR2VuZXJhdGVkIFNlcnZlciBDZXJ0aWZpY2F0ZTAdBgNVHQ4E
FgQUcufRBrzQMODMIChEA9ttpxryFrAwdAYDVR0jBG0wa4AU9KfAzJFGr2TzkfIn
+Miyb4qHMnOhSKRGMEQxCzAJBgNVBAYTAkRFMQ8wDQYDVQQIDAZIZXNzZW4xFDAS
BgNVBAoMC3ByaXZhY3lpZGVhMQ4wDAYDVQQDDAVDQTAwMYIJAPvI66yDzRIHMBMG
A1UdJQQMMAoGCCsGAQUFBwMBMA0GCSqGSIb3DQEBCwUAA4IBAQBkQsxHjMVQL6Ho
TTNWOxatRDCCtwgm7ef2X1N5nqGVHPfObzmbnAQAYNwUQ+ufWKYOOoNUshd3PHM0
Ii7PqSU+MUsSsK62UlGott+hY8gxl4JMQq66jVOKyAWsAomJIO30k98x+H2T7jTM
aFbPCjcztie4J+OcAA6QC/gPrKx5IezecAdXsI8Av7vbe6ql3aJD3eHqzsVI/bBB
5vGbeDndj0Rmgi+Z9x6JgeZePeQP95JUC7Jdwhp+BgSqzi38g7Zk81piRjtpatkx
NDk+iLIgTFaprNgVD6nEWqnynsHWZuTeT9gGrVPSGeNRTq4UUDLDd3wFWd0tZFqz
menBhI+n
-----END CERTIFICATE-----
