Certificate:
    Data:
        Version: 3 (0x2)
        Serial Number: 268435686 (0x100000e6)
        Signature Algorithm: sha256WithRSAEncryption
        Issuer: C=DE, ST=Hessen, O=privacyidea, CN=CA001
        Validity
            Not Before: Oct 24 12:30:22 2019 GMT
            Not After : Oct 23 12:30:22 2020 GMT
        Subject: OU=realm1, CN=cornelius/emailAddress=user@localhost.localdomain
        Subject Public Key Info:
            Public Key Algorithm: rsaEncryption
                RSA Public-Key: (2048 bit)
                Modulus:
                    00:ad:78:ca:1b:24:a5:f6:f7:cc:1a:17:e7:af:b4:
                    0d:88:00:b1:ca:fd:da:7c:e1:57:b4:49:57:d0:8c:
                    4b:b5:b9:08:33:94:e9:39:d1:b4:7e:b6:0d:f2:e7:
                    05:98:3f:4f:19:a5:1d:bc:2a:27:0d:d9:e4:4b:1f:
                    d5:1c:50:49:25:80:c5:cc:e6:45:fa:84:a0:cc:95:
                    19:0c:2a:68:8f:e2:7d:b5:e2:6f:87:b1:27:4b:7a:
                    18:3f:9c:fc:c0:81:c0:5b:a7:c7:d1:12:4e:0e:d5:
                    7a:ac:90:e7:2c:c1:da:e6:81:7e:4d:3a:38:ad:a3:
                    77:3e:d8:bc:4a:36:a9:c0:ce:7e:08:4e:47:13:b6:
                    7e:a6:cb:e6:7c:07:ac:92:c0:3c:58:54:d1:9a:39:
                    be:c8:7c:1f:1c:c7:16:b2:1a:40:6a:ca:44:e5:08:
                    01:c0:9f:cf:22:5f:64:22:bf:c6:8f:31:22:68:fb:
                    e2:6e:b4:6a:7f:ca:49:5d:d2:86:27:6a:1f:41:b0:
                    27:8d:e6:a0:10:1a:92:39:28:f8:42:4f:83:97:0c:
                    12:24:f1:f5:aa:6c:ae:10:95:97:7e:d9:5f:1a:7f:
                    07:74:f8:27:50:f5:96:48:65:4b:d7:4c:8a:04:f0:
                    33:b5:fb:c6:73:2d:ff:f4:34:31:ac:94:17:15:96:
                    9d:19
                Exponent: 65537 (0x10001)
        X509v3 extensions:
            X509v3 Key Usage: 
                Digital Signature, Key Encipherment
            X509v3 Basic Constraints: 
                CA:FALSE
            Netscape Cert Type: 
                SSL Server
            Netscape Comment: 
                OpenSSL Generated Server Certificate
            X509v3 Subject Key Identifier: 
                A5:C4:FB:C6:5B:73:65:ED:C2:8C:52:11:8B:1C:51:06:BA:4B:54:50
            X509v3 Authority Key Identifier: 
                keyid:F4:A7:C0:CC:91:46:AF:64:F3:91:F2:27:F8:C8:B2:6F:8A:87:32:73
                DirName:/C=DE/ST=Hessen/O=privacyidea/CN=CA001
                serial:FB:C8:EB:AC:83:CD:12:07

            X509v3 Extended Key Usage: 
                TLS Web Server Authentication
    Signature Algorithm: sha256WithRSAEncryption
         be:8f:c0:2c:4b:11:f4:06:1e:70:d3:09:2a:b2:98:ba:b1:fb:
         4a:6c:a9:46:b6:3d:06:6f:70:26:ae:b9:52:8b:88:4d:59:74:
         a5:f7:16:1a:fc:7a:37:ff:b1:97:14:b8:da:d4:b8:c2:b6:2e:
         4c:3f:cf:36:ae:94:df:26:45:2c:93:ca:38:40:72:2c:68:9f:
         90:71:da:9a:a8:65:97:bb:0e:ea:45:2e:28:43:4d:0f:cf:e6:
         b7:0a:10:9d:c3:d1:f1:57:1f:19:30:0a:b4:dc:a6:b7:a1:9f:
         6b:c8:f3:26:11:94:d9:f8:2c:98:b7:19:6c:a4:c9:ee:3b:4a:
         86:8e:1d:d1:78:30:79:7e:5c:c0:0f:44:88:3a:e5:b2:b5:2e:
         13:8f:82:9a:85:24:07:77:0c:76:62:67:8d:05:de:7b:ee:f0:
         db:3e:90:14:49:70:08:3a:e0:a2:32:51:fe:8e:c1:c5:1e:28:
         46:0b:60:e5:c8:5d:06:27:96:c0:c2:75:49:da:a5:6e:88:9f:
         d7:c9:c9:da:a8:8c:ff:31:a4:a0:61:04:96:af:72:b6:28:52:
         82:79:59:d5:e8:9c:98:71:18:32:e3:f7:a0:0f:2e:d8:85:dc:
         d1:91:e3:a2:4a:66:4e:fc:10:38:89:cb:7f:8a:a3:28:c5:ed:
         c0:47:94:33
-----BEGIN CERTIFICATE-----
MIIEIjCCAwqgAwIBAgIEEAAA5jANBgkqhkiG9w0BAQsFADBEMQswCQYDVQQGEwJE
RTEPMA0GA1UECAwGSGVzc2VuMRQwEgYDVQQKDAtwcml2YWN5aWRlYTEOMAwGA1UE
AwwFQ0EwMDEwHhcNMTkxMDI0MTIzMDIyWhcNMjAxMDIzMTIzMDIyWjBQMQ8wDQYD
VQQLDAZyZWFsbTExEjAQBgNVBAMMCWNvcm5lbGl1czEpMCcGCSqGSIb3DQEJARYa
dXNlckBsb2NhbGhvc3QubG9jYWxkb21haW4wggEiMA0GCSqGSIb3DQEBAQUAA4IB
DwAwggEKAoIBAQCteMobJKX298waF+evtA2IALHK/dp84Ve0SVfQjEu1uQgzlOk5
0bR+tg3y5wWYP08ZpR28KicN2eRLH9UcUEklgMXM5kX6hKDMlRkMKmiP4n214m+H
sSdLehg/nPzAgcBbp8fREk4O1XqskOcswdrmgX5NOjito3c+2LxKNqnAzn4ITkcT
tn6my+Z8B6ySwDxYVNGaOb7IfB8cxxayGkBqykTlCAHAn88iX2Qiv8aPMSJo++Ju
tGp/ykld0oYnah9BsCeN5qAQGpI5KPhCT4OXDBIk8fWqbK4QlZd+2V8afwd0+CdQ
9ZZIZUvXTIoE8DO1+8ZzLf/0NDGslBcVlp0ZAgMBAAGjggEOMIIBCjALBgNVHQ8E
BAMCBaAwCQYDVR0TBAIwADARBglghkgBhvhCAQEEBAMCBkAwMwYJYIZIAYb4QgEN
BCYWJE9wZW5TU0wgR2VuZXJhdGVkIFNlcnZlciBDZXJ0aWZpY2F0ZTAdBgNVHQ4E
FgQUpcT7xltzZe3CjFIRixxRBrpLVFAwdAYDVR0jBG0wa4AU9KfAzJFGr2TzkfIn
+Miyb4qHMnOhSKRGMEQxCzAJBgNVBAYTAkRFMQ8wDQYDVQQIDAZIZXNzZW4xFDAS
BgNVBAoMC3ByaXZhY3lpZGVhMQ4wDAYDVQQDDAVDQTAwMYIJAPvI66yDzRIHMBMG
A1UdJQQMMAoGCCsGAQUFBwMBMA0GCSqGSIb3DQEBCwUAA4IBAQC+j8AsSxH0Bh5w
0wkqspi6sftKbKlGtj0Gb3AmrrlSi4hNWXSl9xYa/Ho3/7GXFLja1LjCti5MP882
rpTfJkUsk8o4QHIsaJ+QcdqaqGWXuw7qRS4oQ00Pz+a3ChCdw9HxVx8ZMAq03Ka3
oZ9ryPMmEZTZ+CyYtxlspMnuO0qGjh3ReDB5flzAD0SIOuWytS4Tj4KahSQHdwx2
YmeNBd577vDbPpAUSXAIOuCiMlH+jsHFHihGC2DlyF0GJ5bAwnVJ2qVuiJ/Xycna
qIz/MaSgYQSWr3K2KFKCeVnV6JyYcRgy4/egDy7YhdzRkeOiSmZO/BA4ict/iqMo
xe3AR5Qz
-----END CERTIFICATE-----
