Certificate:
    Data:
        Version: 3 (0x2)
        Serial Number: 268435715 (0x10000103)
    Signature Algorithm: sha256WithRSAEncryption
        Issuer: C=DE, ST=Hessen, O=privacyidea, CN=CA001
        Validity
            Not Before: Jan  9 21:19:03 2019 GMT
            Not After : Jan  9 21:19:03 2020 GMT
        Subject: OU=realm1, CN=cornelius/emailAddress=user@localhost.localdomain
        Subject Public Key Info:
            Public Key Algorithm: rsaEncryption
                Public-Key: (2048 bit)
                Modulus:
                    00:ec:b5:6d:61:1b:06:4c:14:39:ac:c1:43:4e:5f:
                    91:78:20:3f:85:db:67:d2:7f:dd:a4:4b:b9:d7:fd:
                    bb:e6:73:98:58:d4:67:f1:65:ed:6b:a7:67:fa:1d:
                    65:11:bc:1e:62:f7:a7:f8:1d:37:4b:6a:70:a9:ea:
                    ce:29:93:3e:ba:1b:68:0e:14:e3:af:34:cc:39:02:
                    54:9f:9b:30:be:e4:ec:d0:41:43:1b:76:36:7f:59:
                    85:98:b6:f2:1a:05:c6:fc:a1:8b:f5:9f:d1:84:e7:
                    70:ac:76:2c:6d:f0:74:f4:93:1e:6f:bf:13:3e:a7:
                    4d:d8:55:6d:41:ec:bf:67:b9:4c:ac:4a:c5:c9:b5:
                    0e:ef:7a:e5:1e:8d:b6:52:42:82:4e:ba:d9:6a:87:
                    be:f3:b0:af:43:a5:01:93:44:ea:9c:ad:b1:33:c8:
                    ae:7b:ee:7e:06:e4:11:ec:ba:8e:89:5f:f2:8b:3d:
                    15:ea:b4:93:f4:cc:75:d8:92:5b:ea:05:dd:07:6a:
                    ce:3e:db:63:6e:cc:a1:9f:5c:b8:bf:7b:9a:d7:09:
                    d9:99:44:9a:b7:3a:82:bc:14:12:4e:0f:c6:4e:19:
                    c4:59:82:78:85:b4:0c:d9:8e:40:ff:6d:f9:7c:05:
                    48:9b:ad:a2:09:e1:fa:ea:24:d3:91:9d:98:e1:ed:
                    d6:19
                Exponent: 65537 (0x10001)
        X509v3 extensions:
            X509v3 Key Usage: 
                Digital Signature, Key Encipherment
            X509v3 Basic Constraints: 
                CA:FALSE
            Netscape Cert Type: 
                SSL Server
            Netscape Comment: 
                OpenSSL Generated Server Certificate
            X509v3 Subject Key Identifier: 
                B3:CA:8C:D9:48:EC:88:35:B3:14:1A:F1:36:07:2D:2B:F3:69:79:B6
            X509v3 Authority Key Identifier: 
                keyid:F4:A7:C0:CC:91:46:AF:64:F3:91:F2:27:F8:C8:B2:6F:8A:87:32:73
                DirName:/C=DE/ST=Hessen/O=privacyidea/CN=CA001
                serial:FB:C8:EB:AC:83:CD:12:07

            X509v3 Extended Key Usage: 
                TLS Web Server Authentication
    Signature Algorithm: sha256WithRSAEncryption
         76:27:8b:cb:9c:9a:64:92:d8:33:fb:10:d8:96:e3:8a:c1:86:
         09:38:05:de:64:1a:bb:82:cd:7b:56:38:39:32:3b:50:ab:c9:
         a7:12:77:64:3e:63:c7:9c:05:5d:a1:33:cf:7f:6e:15:c6:a4:
         00:9d:dd:01:a1:46:71:1e:be:7a:59:00:9e:72:48:72:e2:9b:
         26:d5:52:35:e9:01:19:c5:52:ad:60:9d:88:e8:97:99:da:29:
         0e:17:28:1c:04:5d:78:cd:2d:47:fa:65:ae:8b:df:b2:82:d7:
         5e:48:5e:2b:41:d5:eb:17:c9:0e:a2:09:d9:32:40:0b:a9:7b:
         b0:a6:1b:76:57:71:83:a3:f1:f3:06:01:4d:cc:be:b6:d1:06:
         34:f4:9b:d1:de:b5:bc:f9:4b:2a:2c:40:9b:4e:b9:28:45:32:
         84:9f:fd:f1:1a:c0:8e:29:25:7a:d8:b3:4f:43:e1:31:e5:ad:
         d5:bd:ef:64:4b:89:c2:44:82:71:a3:db:aa:f1:ce:bb:f9:32:
         df:c7:ca:99:22:67:2e:21:d1:9f:41:56:5d:fc:93:0c:c2:2d:
         d0:3f:1a:ca:74:e7:68:72:8f:10:53:a2:e5:67:d7:5c:b4:dc:
         2e:2d:aa:84:6e:4f:f2:14:bc:dc:e2:3c:b8:6f:06:88:a7:6c:
         7e:4d:09:46
-----BEGIN CERTIFICATE-----
MIIEIjCCAwqgAwIBAgIEEAABAzANBgkqhkiG9w0BAQsFADBEMQswCQYDVQQGEwJE
RTEPMA0GA1UECAwGSGVzc2VuMRQwEgYDVQQKDAtwcml2YWN5aWRlYTEOMAwGA1UE
AwwFQ0EwMDEwHhcNMTkwMTA5MjExOTAzWhcNMjAwMTA5MjExOTAzWjBQMQ8wDQYD
VQQLDAZyZWFsbTExEjAQBgNVBAMMCWNvcm5lbGl1czEpMCcGCSqGSIb3DQEJARYa
dXNlckBsb2NhbGhvc3QubG9jYWxkb21haW4wggEiMA0GCSqGSIb3DQEBAQUAA4IB
DwAwggEKAoIBAQDstW1hGwZMFDmswUNOX5F4ID+F22fSf92kS7nX/bvmc5hY1Gfx
Ze1rp2f6HWURvB5i96f4HTdLanCp6s4pkz66G2gOFOOvNMw5AlSfmzC+5OzQQUMb
djZ/WYWYtvIaBcb8oYv1n9GE53Csdixt8HT0kx5vvxM+p03YVW1B7L9nuUysSsXJ
tQ7veuUejbZSQoJOutlqh77zsK9DpQGTROqcrbEzyK577n4G5BHsuo6JX/KLPRXq
tJP0zHXYklvqBd0Has4+22NuzKGfXLi/e5rXCdmZRJq3OoK8FBJOD8ZOGcRZgniF
tAzZjkD/bfl8BUibraIJ4frqJNORnZjh7dYZAgMBAAGjggEOMIIBCjALBgNVHQ8E
BAMCBaAwCQYDVR0TBAIwADARBglghkgBhvhCAQEEBAMCBkAwMwYJYIZIAYb4QgEN
BCYWJE9wZW5TU0wgR2VuZXJhdGVkIFNlcnZlciBDZXJ0aWZpY2F0ZTAdBgNVHQ4E
FgQUs8qM2UjsiDWzFBrxNgctK/NpebYwdAYDVR0jBG0wa4AU9KfAzJFGr2TzkfIn
+Miyb4qHMnOhSKRGMEQxCzAJBgNVBAYTAkRFMQ8wDQYDVQQIDAZIZXNzZW4xFDAS
BgNVBAoMC3ByaXZhY3lpZGVhMQ4wDAYDVQQDDAVDQTAwMYIJAPvI66yDzRIHMBMG
A1UdJQQMMAoGCCsGAQUFBwMBMA0GCSqGSIb3DQEBCwUAA4IBAQB2J4vLnJpkktgz
+xDYluOKwYYJOAXeZBq7gs17Vjg5MjtQq8mnEndkPmPHnAVdoTPPf24VxqQAnd0B
oUZxHr56WQCeckhy4psm1VI16QEZxVKtYJ2I6JeZ2ikOFygcBF14zS1H+mWui9+y
gtdeSF4rQdXrF8kOognZMkALqXuwpht2V3GDo/HzBgFNzL620QY09JvR3rW8+Usq
LECbTrkoRTKEn/3xGsCOKSV62LNPQ+Ex5a3Vve9kS4nCRIJxo9uq8c67+TLfx8qZ
ImcuIdGfQVZd/JMMwi3QPxrKdOdoco8QU6LlZ9dctNwuLaqEbk/yFLzc4jy4bwaI
p2x+TQlG
-----END CERTIFICATE-----
