Certificate:
    Data:
        Version: 3 (0x2)
        Serial Number: 268435656 (0x100000c8)
    Signature Algorithm: sha1WithRSAEncryption
        Issuer: C=DE, ST=Hessen, O=privacyidea, CN=CA001
        Validity
            Not Before: May  4 05:52:50 2016 GMT
            Not After : May  4 05:52:50 2017 GMT
        Subject: CN=selfservice,CN=user,O=realm1/emailAddress=meine
        Subject Public Key Info:
            Public Key Algorithm: rsaEncryption
                Public-Key: (2048 bit)
                Modulus:
                    00:cf:3c:d4:33:0e:12:c4:e6:da:cd:b6:56:a1:1c:
                    26:bb:26:1c:8a:4a:73:a8:58:8a:b6:1e:b3:8b:99:
                    d2:1d:07:c2:92:89:79:c0:69:d8:c8:df:28:61:98:
                    1e:b3:fe:ae:2b:bd:78:a9:f7:6e:47:dc:a3:a0:16:
                    8c:85:02:c1:4e:92:fd:72:6e:f0:c8:03:29:9b:b8:
                    00:6e:c0:83:95:c8:34:20:36:9c:b3:e5:e4:e6:76:
                    73:a3:1a:ad:40:96:e0:53:54:00:ec:76:79:9a:c6:
                    0d:7e:b6:bd:29:ec:83:f3:cb:89:a4:cb:6c:00:ba:
                    0c:c5:78:0f:ff:69:b8:94:f4:04:70:43:3f:d8:9e:
                    d7:a7:fb:5d:ce:75:8e:da:e7:c4:07:b1:9d:de:6f:
                    88:4b:b6:4d:9a:cf:f9:bc:fa:9f:cd:32:6d:f6:3a:
                    0b:0d:23:42:78:ec:97:42:bf:0e:4d:60:56:e1:d3:
                    02:f2:19:cb:84:57:90:e5:70:a1:a2:83:35:86:e2:
                    da:86:9f:f9:8a:c4:79:b3:52:28:da:cb:bb:34:ca:
                    d3:da:91:4a:cf:8d:76:a2:b2:6b:9b:f9:96:fd:09:
                    2a:da:11:23:4d:f0:cb:d6:b2:b1:0e:12:6c:9a:19:
                    65:98:87:ca:e4:ee:24:ce:44:ac:90:8f:9d:1b:c5:
                    2a:9d
                Exponent: 65537 (0x10001)
        X509v3 extensions:
            X509v3 Key Usage: 
                Digital Signature, Key Encipherment
            X509v3 Basic Constraints: 
                CA:FALSE
            Netscape Cert Type: 
                SSL Server
            Netscape Comment: 
                OpenSSL Generated Server Certificate
            X509v3 Subject Key Identifier: 
                4D:07:90:AD:FF:1D:0D:E7:1A:DD:D6:2E:FA:BA:34:CB:AA:1F:24:C6
            X509v3 Authority Key Identifier: 
                keyid:F4:A7:C0:CC:91:46:AF:64:F3:91:F2:27:F8:C8:B2:6F:8A:87:32:73
                DirName:/C=DE/ST=Hessen/O=privacyidea/CN=CA001
                serial:FB:C8:EB:AC:83:CD:12:07

            X509v3 Extended Key Usage: 
                TLS Web Server Authentication
    Signature Algorithm: sha1WithRSAEncryption
         2c:69:38:83:17:67:13:40:f4:bb:d2:42:e7:e4:62:bf:d3:db:
         f6:4c:4f:cd:03:fb:5c:14:0e:f8:68:b8:b2:d6:ae:8c:47:58:
         ba:7a:d0:9d:aa:69:d0:77:4c:de:f1:e4:11:43:9b:e6:8c:55:
         59:10:14:32:58:5d:4d:79:12:65:23:5f:29:7e:4c:6e:0d:20:
         3b:b3:9b:07:81:18:bb:08:1b:6e:30:3e:d8:0f:6c:21:06:be:
         f8:32:82:a9:92:27:c0:fa:68:5b:6e:b7:be:e8:bc:81:d9:13:
         81:11:62:0b:7d:00:fb:55:4d:dc:53:83:84:83:9e:df:ee:ef:
         ed:ea:16:d6:b5:c5:e4:c1:8a:39:ea:6a:2b:4e:a7:40:cd:b7:
         e6:c4:aa:30:28:cd:11:b9:3e:21:e0:a5:cd:64:96:db:f8:d5:
         63:bb:a0:30:a4:75:52:42:e5:b6:f1:d8:01:64:76:0a:d8:be:
         5d:d3:ab:1c:25:4a:b1:19:b5:3e:3b:3b:9d:48:db:4e:f6:d8:
         f4:df:5b:23:42:38:b6:05:69:df:e8:f8:f5:8d:7f:79:95:7e:
         0f:67:7c:5f:d1:bb:b9:af:e0:f4:44:35:fa:26:c2:90:a9:37:
         da:61:b8:65:72:7e:17:4c:af:0d:1a:83:4e:e5:ca:d2:11:c7:
         4a:b2:6d:37
-----BEGIN CERTIFICATE-----
MIIEDzCCAvegAwIBAgIEEAAAyDANBgkqhkiG9w0BAQUFADBEMQswCQYDVQQGEwJE
RTEPMA0GA1UECAwGSGVzc2VuMRQwEgYDVQQKDAtwcml2YWN5aWRlYTEOMAwGA1UE
AwwFQ0EwMDEwHhcNMTYwNTA0MDU1MjUwWhcNMTcwNTA0MDU1MjUwWjA9MSUwIwYD
VQQDExxzZWxmc2VydmljZSxDTj11c2VyLE89cmVhbG0xMRQwEgYJKoZIhvcNAQkB
FgVtZWluZTCCASIwDQYJKoZIhvcNAQEBBQADggEPADCCAQoCggEBAM881DMOEsTm
2s22VqEcJrsmHIpKc6hYirYes4uZ0h0HwpKJecBp2MjfKGGYHrP+riu9eKn3bkfc
o6AWjIUCwU6S/XJu8MgDKZu4AG7Ag5XINCA2nLPl5OZ2c6MarUCW4FNUAOx2eZrG
DX62vSnsg/PLiaTLbAC6DMV4D/9puJT0BHBDP9ie16f7Xc51jtrnxAexnd5viEu2
TZrP+bz6n80ybfY6Cw0jQnjsl0K/Dk1gVuHTAvIZy4RXkOVwoaKDNYbi2oaf+YrE
ebNSKNrLuzTK09qRSs+NdqKya5v5lv0JKtoRI03wy9aysQ4SbJoZZZiHyuTuJM5E
rJCPnRvFKp0CAwEAAaOCAQ4wggEKMAsGA1UdDwQEAwIFoDAJBgNVHRMEAjAAMBEG
CWCGSAGG+EIBAQQEAwIGQDAzBglghkgBhvhCAQ0EJhYkT3BlblNTTCBHZW5lcmF0
ZWQgU2VydmVyIENlcnRpZmljYXRlMB0GA1UdDgQWBBRNB5Ct/x0N5xrd1i76ujTL
qh8kxjB0BgNVHSMEbTBrgBT0p8DMkUavZPOR8if4yLJviocyc6FIpEYwRDELMAkG
A1UEBhMCREUxDzANBgNVBAgMBkhlc3NlbjEUMBIGA1UECgwLcHJpdmFjeWlkZWEx
DjAMBgNVBAMMBUNBMDAxggkA+8jrrIPNEgcwEwYDVR0lBAwwCgYIKwYBBQUHAwEw
DQYJKoZIhvcNAQEFBQADggEBACxpOIMXZxNA9LvSQufkYr/T2/ZMT80D+1wUDvho
uLLWroxHWLp60J2qadB3TN7x5BFDm+aMVVkQFDJYXU15EmUjXyl+TG4NIDuzmweB
GLsIG24wPtgPbCEGvvgygqmSJ8D6aFtut77ovIHZE4ERYgt9APtVTdxTg4SDnt/u
7+3qFta1xeTBijnqaitOp0DNt+bEqjAozRG5PiHgpc1kltv41WO7oDCkdVJC5bbx
2AFkdgrYvl3TqxwlSrEZtT47O51I20722PTfWyNCOLYFad/o+PWNf3mVfg9nfF/R
u7mv4PRENfomwpCpN9phuGVyfhdMrw0ag07lytIRx0qybTc=
-----END CERTIFICATE-----
