Certificate:
    Data:
        Version: 3 (0x2)
        Serial Number: 268435701 (0x100000f5)
        Signature Algorithm: sha256WithRSAEncryption
        Issuer: C=DE, ST=Hessen, O=privacyidea, CN=CA001
        Validity
            Not Before: Aug 14 21:23:19 2019 GMT
            Not After : Aug 13 21:23:19 2020 GMT
        Subject: CN=Steve Test/emailAddress=steve@openssl.org
        Subject Public Key Info:
            Public Key Algorithm: rsaEncryption
                RSA Public-Key: (2048 bit)
                Modulus:
                    00:d2:81:89:20:51:48:0f:73:f4:11:32:24:d5:1f:
                    1c:fd:5c:f5:b6:e6:c5:f0:52:81:dc:d2:af:66:4a:
                    7c:93:31:61:5c:af:d1:6d:06:70:03:60:7c:72:0c:
                    88:dd:49:cd:9e:02:6c:d2:5a:d7:53:0f:f3:da:be:
                    69:64:b5:0f:0c:00:e3:b3:50:47:a3:b3:9b:ba:13:
                    50:d6:58:5a:4b:ab:39:e0:11:ca:0a:27:67:03:78:
                    22:66:6d:92:1e:1b:5c:49:ae:e6:6b:d1:8e:3b:9d:
                    06:d3:c6:ac:4d:53:43:10:ab:e8:96:c1:87:82:97:
                    99:8f:20:d3:99:12:37:31:84:e1:8a:ff:29:03:5f:
                    22:90:3e:7f:9b:e0:20:c1:ad:dc:ae:4c:39:1a:31:
                    96:17:02:8c:b2:d9:b4:0d:20:12:9b:7d:86:54:fd:
                    33:fd:c1:2a:62:46:f8:60:96:cf:6e:01:6f:22:df:
                    13:47:e7:97:ec:05:72:23:a3:62:f8:fa:ef:ac:9c:
                    72:f0:37:cb:2f:37:cf:90:a8:27:51:86:c6:d7:78:
                    08:8f:7e:25:a2:15:70:a2:fb:1c:b6:15:5e:a0:97:
                    8b:81:4c:09:28:8a:27:3b:94:bc:71:db:5b:71:37:
                    9a:2b:16:e0:6f:b5:c9:f5:4b:4f:20:ba:65:cf:af:
                    ad:ad
                Exponent: 65537 (0x10001)
        X509v3 extensions:
            X509v3 Key Usage: 
                Digital Signature, Key Encipherment
            X509v3 Basic Constraints: 
                CA:FALSE
            Netscape Cert Type: 
                SSL Server
            Netscape Comment: 
                OpenSSL Generated Server Certificate
            X509v3 Subject Key Identifier: 
                E5:25:6D:3E:AF:0D:DD:3F:4C:F2:45:19:39:D5:14:DB:7E:9C:C0:AD
            X509v3 Authority Key Identifier: 
                keyid:F4:A7:C0:CC:91:46:AF:64:F3:91:F2:27:F8:C8:B2:6F:8A:87:32:73
                DirName:/C=DE/ST=Hessen/O=privacyidea/CN=CA001
                serial:FB:C8:EB:AC:83:CD:12:07

            X509v3 Extended Key Usage: 
                TLS Web Server Authentication
    Signature Algorithm: sha256WithRSAEncryption
         2c:f7:71:94:14:95:75:25:21:29:44:96:c5:95:6d:17:10:ce:
         7b:c2:94:09:fa:52:ee:8c:f8:b4:c8:d1:c0:eb:83:35:df:ee:
         5a:0d:6a:c5:57:c2:de:4c:34:73:fe:87:23:94:d4:9b:0e:ea:
         52:c4:78:71:47:b8:40:12:da:1f:1e:02:f0:09:7c:16:95:ef:
         37:cf:9e:07:47:8c:10:f7:13:f1:06:76:b9:6c:00:45:76:fc:
         7c:8c:0f:93:f1:6a:34:72:3a:4e:66:d7:1d:72:7b:4e:f5:35:
         a8:ea:5f:a3:10:74:9e:ec:1b:62:3a:ca:3d:8e:cb:97:0b:bd:
         fb:dc:1b:36:19:a9:28:5f:08:d9:eb:50:ae:71:77:c6:30:85:
         a3:98:d3:06:7f:41:e5:8f:8b:de:af:21:a2:2c:e3:04:1f:e2:
         e3:3a:21:bf:55:c5:6c:7c:0b:26:f5:4b:00:bd:a2:6b:3d:88:
         18:6f:c9:16:ea:2a:1b:9b:df:96:8a:eb:84:06:65:41:18:51:
         51:73:d9:d3:c6:67:9f:20:cd:46:df:75:9f:d9:02:a0:f1:6f:
         31:9f:82:d8:4c:85:57:9c:7e:b3:e9:72:95:ff:ed:27:58:9a:
         90:55:73:80:14:6c:30:c6:cf:91:0f:fa:59:f9:49:77:57:e1:
         ec:3d:9a:1c
-----BEGIN CERTIFICATE-----
MIIECTCCAvGgAwIBAgIEEAAA9TANBgkqhkiG9w0BAQsFADBEMQswCQYDVQQGEwJE
RTEPMA0GA1UECAwGSGVzc2VuMRQwEgYDVQQKDAtwcml2YWN5aWRlYTEOMAwGA1UE
AwwFQ0EwMDEwHhcNMTkwODE0MjEyMzE5WhcNMjAwODEzMjEyMzE5WjA3MRMwEQYD
VQQDDApTdGV2ZSBUZXN0MSAwHgYJKoZIhvcNAQkBFhFzdGV2ZUBvcGVuc3NsLm9y
ZzCCASIwDQYJKoZIhvcNAQEBBQADggEPADCCAQoCggEBANKBiSBRSA9z9BEyJNUf
HP1c9bbmxfBSgdzSr2ZKfJMxYVyv0W0GcANgfHIMiN1JzZ4CbNJa11MP89q+aWS1
DwwA47NQR6Ozm7oTUNZYWkurOeARygonZwN4ImZtkh4bXEmu5mvRjjudBtPGrE1T
QxCr6JbBh4KXmY8g05kSNzGE4Yr/KQNfIpA+f5vgIMGt3K5MORoxlhcCjLLZtA0g
Ept9hlT9M/3BKmJG+GCWz24BbyLfE0fnl+wFciOjYvj676yccvA3yy83z5CoJ1GG
xtd4CI9+JaIVcKL7HLYVXqCXi4FMCSiKJzuUvHHbW3E3misW4G+1yfVLTyC6Zc+v
ra0CAwEAAaOCAQ4wggEKMAsGA1UdDwQEAwIFoDAJBgNVHRMEAjAAMBEGCWCGSAGG
+EIBAQQEAwIGQDAzBglghkgBhvhCAQ0EJhYkT3BlblNTTCBHZW5lcmF0ZWQgU2Vy
dmVyIENlcnRpZmljYXRlMB0GA1UdDgQWBBTlJW0+rw3dP0zyRRk51RTbfpzArTB0
BgNVHSMEbTBrgBT0p8DMkUavZPOR8if4yLJviocyc6FIpEYwRDELMAkGA1UEBhMC
REUxDzANBgNVBAgMBkhlc3NlbjEUMBIGA1UECgwLcHJpdmFjeWlkZWExDjAMBgNV
BAMMBUNBMDAxggkA+8jrrIPNEgcwEwYDVR0lBAwwCgYIKwYBBQUHAwEwDQYJKoZI
hvcNAQELBQADggEBACz3cZQUlXUlISlElsWVbRcQznvClAn6Uu6M+LTI0cDrgzXf
7loNasVXwt5MNHP+hyOU1JsO6lLEeHFHuEAS2h8eAvAJfBaV7zfPngdHjBD3E/EG
drlsAEV2/HyMD5PxajRyOk5m1x1ye071NajqX6MQdJ7sG2I6yj2Oy5cLvfvcGzYZ
qShfCNnrUK5xd8YwhaOY0wZ/QeWPi96vIaIs4wQf4uM6Ib9VxWx8Cyb1SwC9oms9
iBhvyRbqKhub35aK64QGZUEYUVFz2dPGZ58gzUbfdZ/ZAqDxbzGfgthMhVecfrPp
cpX/7SdYmpBVc4AUbDDGz5EP+ln5SXdX4ew9mhw=
-----END CERTIFICATE-----
