Certificate:
    Data:
        Version: 3 (0x2)
        Serial Number: 268435681 (0x100000e1)
        Signature Algorithm: sha256WithRSAEncryption
        Issuer: C=DE, ST=Hessen, O=privacyidea, CN=CA001
        Validity
            Not Before: Oct 24 09:42:16 2019 GMT
            Not After : Nov 12 09:42:16 2021 GMT
        Subject: CN=Steve Test/emailAddress=steve@openssl.org
        Subject Public Key Info:
            Public Key Algorithm: rsaEncryption
                RSA Public-Key: (2048 bit)
                Modulus:
                    00:d2:81:89:20:51:48:0f:73:f4:11:32:24:d5:1f:
                    1c:fd:5c:f5:b6:e6:c5:f0:52:81:dc:d2:af:66:4a:
                    7c:93:31:61:5c:af:d1:6d:06:70:03:60:7c:72:0c:
                    88:dd:49:cd:9e:02:6c:d2:5a:d7:53:0f:f3:da:be:
                    69:64:b5:0f:0c:00:e3:b3:50:47:a3:b3:9b:ba:13:
                    50:d6:58:5a:4b:ab:39:e0:11:ca:0a:27:67:03:78:
                    22:66:6d:92:1e:1b:5c:49:ae:e6:6b:d1:8e:3b:9d:
                    06:d3:c6:ac:4d:53:43:10:ab:e8:96:c1:87:82:97:
                    99:8f:20:d3:99:12:37:31:84:e1:8a:ff:29:03:5f:
                    22:90:3e:7f:9b:e0:20:c1:ad:dc:ae:4c:39:1a:31:
                    96:17:02:8c:b2:d9:b4:0d:20:12:9b:7d:86:54:fd:
                    33:fd:c1:2a:62:46:f8:60:96:cf:6e:01:6f:22:df:
                    13:47:e7:97:ec:05:72:23:a3:62:f8:fa:ef:ac:9c:
                    72:f0:37:cb:2f:37:cf:90:a8:27:51:86:c6:d7:78:
                    08:8f:7e:25:a2:15:70:a2:fb:1c:b6:15:5e:a0:97:
                    8b:81:4c:09:28:8a:27:3b:94:bc:71:db:5b:71:37:
                    9a:2b:16:e0:6f:b5:c9:f5:4b:4f:20:ba:65:cf:af:
                    ad:ad
                Exponent: 65537 (0x10001)
        X509v3 extensions:
            X509v3 Key Usage: 
                Digital Signature, Key Encipherment
            X509v3 Basic Constraints: 
                CA:FALSE
            Netscape Cert Type: 
                SSL Server
            Netscape Comment: 
                OpenSSL Generated Server Certificate
            X509v3 Subject Key Identifier: 
                E5:25:6D:3E:AF:0D:DD:3F:4C:F2:45:19:39:D5:14:DB:7E:9C:C0:AD
            X509v3 Authority Key Identifier: 
                keyid:F4:A7:C0:CC:91:46:AF:64:F3:91:F2:27:F8:C8:B2:6F:8A:87:32:73
                DirName:/C=DE/ST=Hessen/O=privacyidea/CN=CA001
                serial:FB:C8:EB:AC:83:CD:12:07

            X509v3 Extended Key Usage: 
                TLS Web Server Authentication
    Signature Algorithm: sha256WithRSAEncryption
         47:b3:c6:0c:b8:f8:16:91:dd:03:b3:ef:ce:69:e0:cc:c1:c9:
         7c:3f:4d:e8:d6:39:f7:32:75:7d:b1:4c:57:e9:dd:d7:99:c2:
         39:25:7f:54:bf:d8:eb:6d:24:6e:cc:c9:0d:b9:28:3c:c7:f2:
         41:0d:09:95:bd:b3:04:b7:a3:46:a2:f3:da:ca:1a:d1:10:9e:
         32:4b:55:b1:ce:dd:0d:b3:ea:bb:d7:3a:87:94:06:aa:91:4c:
         c7:a0:27:e8:5a:68:00:3e:ea:75:01:5a:11:23:8f:b5:1f:cd:
         55:8f:bf:67:2e:99:35:43:c7:fa:5e:87:20:8f:09:40:97:64:
         12:43:84:fe:59:07:3a:62:d1:0a:5f:83:c2:5d:bd:55:dc:76:
         34:1b:15:6b:23:b7:2e:3e:d4:c7:19:77:31:eb:36:4c:42:ea:
         bf:fa:b9:af:de:b9:d2:b3:60:16:6d:63:e9:fd:d0:24:d9:6e:
         cc:8a:25:a2:e2:08:44:bc:36:fe:55:77:f6:d6:3b:99:58:7e:
         7e:5f:b7:22:c7:0b:05:46:cc:16:ee:1b:7d:66:5f:99:bc:7c:
         92:5c:d4:84:ef:99:63:29:7e:ca:20:90:4e:b7:8b:b3:2a:ba:
         19:a5:7e:72:a8:17:8c:a4:39:53:53:f4:53:eb:90:ab:77:d1:
         6f:6b:5f:7e
-----BEGIN CERTIFICATE-----
MIIECTCCAvGgAwIBAgIEEAAA4TANBgkqhkiG9w0BAQsFADBEMQswCQYDVQQGEwJE
RTEPMA0GA1UECAwGSGVzc2VuMRQwEgYDVQQKDAtwcml2YWN5aWRlYTEOMAwGA1UE
AwwFQ0EwMDEwHhcNMTkxMDI0MDk0MjE2WhcNMjExMTEyMDk0MjE2WjA3MRMwEQYD
VQQDDApTdGV2ZSBUZXN0MSAwHgYJKoZIhvcNAQkBFhFzdGV2ZUBvcGVuc3NsLm9y
ZzCCASIwDQYJKoZIhvcNAQEBBQADggEPADCCAQoCggEBANKBiSBRSA9z9BEyJNUf
HP1c9bbmxfBSgdzSr2ZKfJMxYVyv0W0GcANgfHIMiN1JzZ4CbNJa11MP89q+aWS1
DwwA47NQR6Ozm7oTUNZYWkurOeARygonZwN4ImZtkh4bXEmu5mvRjjudBtPGrE1T
QxCr6JbBh4KXmY8g05kSNzGE4Yr/KQNfIpA+f5vgIMGt3K5MORoxlhcCjLLZtA0g
Ept9hlT9M/3BKmJG+GCWz24BbyLfE0fnl+wFciOjYvj676yccvA3yy83z5CoJ1GG
xtd4CI9+JaIVcKL7HLYVXqCXi4FMCSiKJzuUvHHbW3E3misW4G+1yfVLTyC6Zc+v
ra0CAwEAAaOCAQ4wggEKMAsGA1UdDwQEAwIFoDAJBgNVHRMEAjAAMBEGCWCGSAGG
+EIBAQQEAwIGQDAzBglghkgBhvhCAQ0EJhYkT3BlblNTTCBHZW5lcmF0ZWQgU2Vy
dmVyIENlcnRpZmljYXRlMB0GA1UdDgQWBBTlJW0+rw3dP0zyRRk51RTbfpzArTB0
BgNVHSMEbTBrgBT0p8DMkUavZPOR8if4yLJviocyc6FIpEYwRDELMAkGA1UEBhMC
REUxDzANBgNVBAgMBkhlc3NlbjEUMBIGA1UECgwLcHJpdmFjeWlkZWExDjAMBgNV
BAMMBUNBMDAxggkA+8jrrIPNEgcwEwYDVR0lBAwwCgYIKwYBBQUHAwEwDQYJKoZI
hvcNAQELBQADggEBAEezxgy4+BaR3QOz785p4MzByXw/TejWOfcydX2xTFfp3deZ
wjklf1S/2OttJG7MyQ25KDzH8kENCZW9swS3o0ai89rKGtEQnjJLVbHO3Q2z6rvX
OoeUBqqRTMegJ+haaAA+6nUBWhEjj7UfzVWPv2cumTVDx/pehyCPCUCXZBJDhP5Z
Bzpi0Qpfg8JdvVXcdjQbFWsjty4+1McZdzHrNkxC6r/6ua/eudKzYBZtY+n90CTZ
bsyKJaLiCES8Nv5Vd/bWO5lYfn5ftyLHCwVGzBbuG31mX5m8fJJc1ITvmWMpfsog
kE63i7MquhmlfnKoF4ykOVNT9FPrkKt30W9rX34=
-----END CERTIFICATE-----
