Certificate:
    Data:
        Version: 3 (0x2)
        Serial Number: 268435705 (0x100000f9)
        Signature Algorithm: sha256WithRSAEncryption
        Issuer: C=DE, ST=Hessen, O=privacyidea, CN=CA001
        Validity
            Not Before: Aug 14 21:27:53 2019 GMT
            Not After : Aug 13 21:27:53 2020 GMT
        Subject: CN=selfservice,CN=user,O=realm1/emailAddress=meine
        Subject Public Key Info:
            Public Key Algorithm: rsaEncryption
                RSA Public-Key: (2048 bit)
                Modulus:
                    00:cf:3c:d4:33:0e:12:c4:e6:da:cd:b6:56:a1:1c:
                    26:bb:26:1c:8a:4a:73:a8:58:8a:b6:1e:b3:8b:99:
                    d2:1d:07:c2:92:89:79:c0:69:d8:c8:df:28:61:98:
                    1e:b3:fe:ae:2b:bd:78:a9:f7:6e:47:dc:a3:a0:16:
                    8c:85:02:c1:4e:92:fd:72:6e:f0:c8:03:29:9b:b8:
                    00:6e:c0:83:95:c8:34:20:36:9c:b3:e5:e4:e6:76:
                    73:a3:1a:ad:40:96:e0:53:54:00:ec:76:79:9a:c6:
                    0d:7e:b6:bd:29:ec:83:f3:cb:89:a4:cb:6c:00:ba:
                    0c:c5:78:0f:ff:69:b8:94:f4:04:70:43:3f:d8:9e:
                    d7:a7:fb:5d:ce:75:8e:da:e7:c4:07:b1:9d:de:6f:
                    88:4b:b6:4d:9a:cf:f9:bc:fa:9f:cd:32:6d:f6:3a:
                    0b:0d:23:42:78:ec:97:42:bf:0e:4d:60:56:e1:d3:
                    02:f2:19:cb:84:57:90:e5:70:a1:a2:83:35:86:e2:
                    da:86:9f:f9:8a:c4:79:b3:52:28:da:cb:bb:34:ca:
                    d3:da:91:4a:cf:8d:76:a2:b2:6b:9b:f9:96:fd:09:
                    2a:da:11:23:4d:f0:cb:d6:b2:b1:0e:12:6c:9a:19:
                    65:98:87:ca:e4:ee:24:ce:44:ac:90:8f:9d:1b:c5:
                    2a:9d
                Exponent: 65537 (0x10001)
        X509v3 extensions:
            X509v3 Key Usage: 
                Digital Signature, Key Encipherment
            X509v3 Basic Constraints: 
                CA:FALSE
            Netscape Cert Type: 
                SSL Server
            Netscape Comment: 
                OpenSSL Generated Server Certificate
            X509v3 Subject Key Identifier: 
                4D:07:90:AD:FF:1D:0D:E7:1A:DD:D6:2E:FA:BA:34:CB:AA:1F:24:C6
            X509v3 Authority Key Identifier: 
                keyid:F4:A7:C0:CC:91:46:AF:64:F3:91:F2:27:F8:C8:B2:6F:8A:87:32:73
                DirName:/C=DE/ST=Hessen/O=privacyidea/CN=CA001
                serial:FB:C8:EB:AC:83:CD:12:07

            X509v3 Extended Key Usage: 
                TLS Web Server Authentication
    Signature Algorithm: sha256WithRSAEncryption
         14:50:4d:5f:b7:cc:25:b6:cd:0b:5d:ee:de:b3:69:d6:d1:53:
         59:94:31:aa:f4:e0:2a:86:2c:58:47:91:38:4d:7e:06:82:9b:
         53:42:5c:eb:7a:de:a8:07:a4:e0:fd:76:05:77:c5:07:7c:fc:
         b6:13:57:fa:2c:7d:dc:c4:95:06:03:a0:09:05:92:61:ee:9f:
         98:26:28:5c:31:09:91:f0:3f:d2:f5:cd:30:84:f6:da:de:07:
         0d:4c:97:7f:7a:ae:23:f3:61:37:56:f6:e0:b4:5b:18:62:8b:
         d9:2b:3b:5e:19:d0:7b:59:d1:40:ac:40:18:40:88:5f:fe:0e:
         f4:0a:8a:d8:ff:bc:b0:a7:8f:59:f8:fe:6f:dc:d9:80:db:eb:
         12:85:f7:55:e1:d9:f4:95:81:83:d7:89:1e:53:cc:7d:57:4a:
         e9:13:52:c9:f6:cb:6e:00:c9:a2:56:26:c0:ae:62:db:0a:27:
         b6:05:a9:0c:0a:c0:3a:ba:70:de:5f:b5:e8:19:16:9a:16:9f:
         a3:47:a2:50:d0:b4:fb:70:cd:45:28:0b:2c:5d:f0:82:d1:01:
         5f:6d:63:38:f9:9a:a4:3c:f9:87:6c:ea:8f:00:85:bc:2f:13:
         48:f0:ac:d8:6e:a1:bb:ec:c9:8b:df:e7:88:f3:f6:90:05:b0:
         ca:76:e5:85
-----BEGIN CERTIFICATE-----
MIIEDzCCAvegAwIBAgIEEAAA+TANBgkqhkiG9w0BAQsFADBEMQswCQYDVQQGEwJE
RTEPMA0GA1UECAwGSGVzc2VuMRQwEgYDVQQKDAtwcml2YWN5aWRlYTEOMAwGA1UE
AwwFQ0EwMDEwHhcNMTkwODE0MjEyNzUzWhcNMjAwODEzMjEyNzUzWjA9MSUwIwYD
VQQDDBxzZWxmc2VydmljZSxDTj11c2VyLE89cmVhbG0xMRQwEgYJKoZIhvcNAQkB
FgVtZWluZTCCASIwDQYJKoZIhvcNAQEBBQADggEPADCCAQoCggEBAM881DMOEsTm
2s22VqEcJrsmHIpKc6hYirYes4uZ0h0HwpKJecBp2MjfKGGYHrP+riu9eKn3bkfc
o6AWjIUCwU6S/XJu8MgDKZu4AG7Ag5XINCA2nLPl5OZ2c6MarUCW4FNUAOx2eZrG
DX62vSnsg/PLiaTLbAC6DMV4D/9puJT0BHBDP9ie16f7Xc51jtrnxAexnd5viEu2
TZrP+bz6n80ybfY6Cw0jQnjsl0K/Dk1gVuHTAvIZy4RXkOVwoaKDNYbi2oaf+YrE
ebNSKNrLuzTK09qRSs+NdqKya5v5lv0JKtoRI03wy9aysQ4SbJoZZZiHyuTuJM5E
rJCPnRvFKp0CAwEAAaOCAQ4wggEKMAsGA1UdDwQEAwIFoDAJBgNVHRMEAjAAMBEG
CWCGSAGG+EIBAQQEAwIGQDAzBglghkgBhvhCAQ0EJhYkT3BlblNTTCBHZW5lcmF0
ZWQgU2VydmVyIENlcnRpZmljYXRlMB0GA1UdDgQWBBRNB5Ct/x0N5xrd1i76ujTL
qh8kxjB0BgNVHSMEbTBrgBT0p8DMkUavZPOR8if4yLJviocyc6FIpEYwRDELMAkG
A1UEBhMCREUxDzANBgNVBAgMBkhlc3NlbjEUMBIGA1UECgwLcHJpdmFjeWlkZWEx
DjAMBgNVBAMMBUNBMDAxggkA+8jrrIPNEgcwEwYDVR0lBAwwCgYIKwYBBQUHAwEw
DQYJKoZIhvcNAQELBQADggEBABRQTV+3zCW2zQtd7t6zadbRU1mUMar04CqGLFhH
kThNfgaCm1NCXOt63qgHpOD9dgV3xQd8/LYTV/osfdzElQYDoAkFkmHun5gmKFwx
CZHwP9L1zTCE9treBw1Ml396riPzYTdW9uC0Wxhii9krO14Z0HtZ0UCsQBhAiF/+
DvQKitj/vLCnj1n4/m/c2YDb6xKF91Xh2fSVgYPXiR5TzH1XSukTUsn2y24AyaJW
JsCuYtsKJ7YFqQwKwDq6cN5ftegZFpoWn6NHolDQtPtwzUUoCyxd8ILRAV9tYzj5
mqQ8+Yds6o8AhbwvE0jwrNhuobvsyYvf54jz9pAFsMp25YU=
-----END CERTIFICATE-----
