Certificate:
    Data:
        Version: 3 (0x2)
        Serial Number: 268435641 (0x100000b9)
    Signature Algorithm: sha1WithRSAEncryption
        Issuer: C=DE, ST=Hessen, O=privacyidea, CN=CA001
        Validity
            Not Before: Nov 26 22:12:27 2015 GMT
            Not After : Nov 25 22:12:27 2016 GMT
        Subject: CN=Steve Test/emailAddress=steve@openssl.org
        Subject Public Key Info:
            Public Key Algorithm: rsaEncryption
                Public-Key: (2048 bit)
                Modulus:
                    00:d2:81:89:20:51:48:0f:73:f4:11:32:24:d5:1f:
                    1c:fd:5c:f5:b6:e6:c5:f0:52:81:dc:d2:af:66:4a:
                    7c:93:31:61:5c:af:d1:6d:06:70:03:60:7c:72:0c:
                    88:dd:49:cd:9e:02:6c:d2:5a:d7:53:0f:f3:da:be:
                    69:64:b5:0f:0c:00:e3:b3:50:47:a3:b3:9b:ba:13:
                    50:d6:58:5a:4b:ab:39:e0:11:ca:0a:27:67:03:78:
                    22:66:6d:92:1e:1b:5c:49:ae:e6:6b:d1:8e:3b:9d:
                    06:d3:c6:ac:4d:53:43:10:ab:e8:96:c1:87:82:97:
                    99:8f:20:d3:99:12:37:31:84:e1:8a:ff:29:03:5f:
                    22:90:3e:7f:9b:e0:20:c1:ad:dc:ae:4c:39:1a:31:
                    96:17:02:8c:b2:d9:b4:0d:20:12:9b:7d:86:54:fd:
                    33:fd:c1:2a:62:46:f8:60:96:cf:6e:01:6f:22:df:
                    13:47:e7:97:ec:05:72:23:a3:62:f8:fa:ef:ac:9c:
                    72:f0:37:cb:2f:37:cf:90:a8:27:51:86:c6:d7:78:
                    08:8f:7e:25:a2:15:70:a2:fb:1c:b6:15:5e:a0:97:
                    8b:81:4c:09:28:8a:27:3b:94:bc:71:db:5b:71:37:
                    9a:2b:16:e0:6f:b5:c9:f5:4b:4f:20:ba:65:cf:af:
                    ad:ad
                Exponent: 65537 (0x10001)
        X509v3 extensions:
            X509v3 Key Usage: 
                Digital Signature, Key Encipherment
            X509v3 Basic Constraints: 
                CA:FALSE
            Netscape Cert Type: 
                SSL Server
            Netscape Comment: 
                OpenSSL Generated Server Certificate
            X509v3 Subject Key Identifier: 
                E5:25:6D:3E:AF:0D:DD:3F:4C:F2:45:19:39:D5:14:DB:7E:9C:C0:AD
            X509v3 Authority Key Identifier: 
                keyid:F4:A7:C0:CC:91:46:AF:64:F3:91:F2:27:F8:C8:B2:6F:8A:87:32:73
                DirName:/C=DE/ST=Hessen/O=privacyidea/CN=CA001
                serial:FB:C8:EB:AC:83:CD:12:07

            X509v3 Extended Key Usage: 
                TLS Web Server Authentication
    Signature Algorithm: sha1WithRSAEncryption
         a3:2f:a6:c5:c8:12:6c:ad:38:5d:59:35:17:1f:3e:dc:8b:06:
         97:4d:35:50:68:d1:ea:58:3c:b7:c6:fa:a2:7d:48:88:57:5d:
         28:16:ce:22:e5:b7:d0:70:3a:c4:a6:26:d7:65:e8:9e:ca:57:
         df:87:33:39:5f:2a:81:87:52:7a:dc:91:a9:6c:72:55:38:d1:
         53:4a:e6:51:04:00:18:85:a0:d1:a6:fb:32:1e:e2:5d:56:71:
         5d:bf:bf:98:09:2e:80:62:2d:f7:f8:2b:d6:0e:9c:20:61:43:
         e5:2d:81:13:ca:de:69:1d:21:96:fe:20:ed:4d:9a:6a:d5:07:
         62:2c:38:a4:5b:6a:af:51:7f:67:d5:07:c0:b4:90:79:ca:3a:
         1a:69:db:05:d0:51:75:34:26:13:6e:00:67:93:d6:5c:c9:ab:
         92:51:1c:c1:bc:6f:ac:1e:86:ea:02:13:7d:f9:a0:39:0a:ed:
         14:3d:fb:d1:61:3c:84:33:26:b8:d8:d2:02:dc:0a:91:b6:ef:
         0d:dd:a8:02:d9:ac:99:f3:2d:51:a0:95:22:31:70:12:93:f5:
         33:d6:55:e8:06:ac:7d:a3:17:be:57:74:14:86:3d:d0:44:89:
         c7:f0:cc:dc:30:31:94:77:7e:eb:ae:dc:ae:1e:d1:23:64:b5:
         40:51:cc:88
-----BEGIN CERTIFICATE-----
MIIECTCCAvGgAwIBAgIEEAAAuTANBgkqhkiG9w0BAQUFADBEMQswCQYDVQQGEwJE
RTEPMA0GA1UECAwGSGVzc2VuMRQwEgYDVQQKDAtwcml2YWN5aWRlYTEOMAwGA1UE
AwwFQ0EwMDEwHhcNMTUxMTI2MjIxMjI3WhcNMTYxMTI1MjIxMjI3WjA3MRMwEQYD
VQQDEwpTdGV2ZSBUZXN0MSAwHgYJKoZIhvcNAQkBFhFzdGV2ZUBvcGVuc3NsLm9y
ZzCCASIwDQYJKoZIhvcNAQEBBQADggEPADCCAQoCggEBANKBiSBRSA9z9BEyJNUf
HP1c9bbmxfBSgdzSr2ZKfJMxYVyv0W0GcANgfHIMiN1JzZ4CbNJa11MP89q+aWS1
DwwA47NQR6Ozm7oTUNZYWkurOeARygonZwN4ImZtkh4bXEmu5mvRjjudBtPGrE1T
QxCr6JbBh4KXmY8g05kSNzGE4Yr/KQNfIpA+f5vgIMGt3K5MORoxlhcCjLLZtA0g
Ept9hlT9M/3BKmJG+GCWz24BbyLfE0fnl+wFciOjYvj676yccvA3yy83z5CoJ1GG
xtd4CI9+JaIVcKL7HLYVXqCXi4FMCSiKJzuUvHHbW3E3misW4G+1yfVLTyC6Zc+v
ra0CAwEAAaOCAQ4wggEKMAsGA1UdDwQEAwIFoDAJBgNVHRMEAjAAMBEGCWCGSAGG
+EIBAQQEAwIGQDAzBglghkgBhvhCAQ0EJhYkT3BlblNTTCBHZW5lcmF0ZWQgU2Vy
dmVyIENlcnRpZmljYXRlMB0GA1UdDgQWBBTlJW0+rw3dP0zyRRk51RTbfpzArTB0
BgNVHSMEbTBrgBT0p8DMkUavZPOR8if4yLJviocyc6FIpEYwRDELMAkGA1UEBhMC
REUxDzANBgNVBAgMBkhlc3NlbjEUMBIGA1UECgwLcHJpdmFjeWlkZWExDjAMBgNV
BAMMBUNBMDAxggkA+8jrrIPNEgcwEwYDVR0lBAwwCgYIKwYBBQUHAwEwDQYJKoZI
hvcNAQEFBQADggEBAKMvpsXIEmytOF1ZNRcfPtyLBpdNNVBo0epYPLfG+qJ9SIhX
XSgWziLlt9BwOsSmJtdl6J7KV9+HMzlfKoGHUnrckalsclU40VNK5lEEABiFoNGm
+zIe4l1WcV2/v5gJLoBiLff4K9YOnCBhQ+UtgRPK3mkdIZb+IO1NmmrVB2IsOKRb
aq9Rf2fVB8C0kHnKOhpp2wXQUXU0JhNuAGeT1lzJq5JRHMG8b6wehuoCE335oDkK
7RQ9+9FhPIQzJrjY0gLcCpG27w3dqALZrJnzLVGglSIxcBKT9TPWVegGrH2jF75X
dBSGPdBEicfwzNwwMZR3fuuu3K4e0SNktUBRzIg=
-----END CERTIFICATE-----
