Certificate:
    Data:
        Version: 3 (0x2)
        Serial Number: 268435635 (0x100000b3)
    Signature Algorithm: sha1WithRSAEncryption
        Issuer: C=DE, ST=Hessen, O=privacyidea, CN=CA001
        Validity
            Not Before: Sep 12 09:42:56 2015 GMT
            Not After : Sep 11 09:42:56 2016 GMT
        Subject: C=DE, ST=Hessen, O=privacyidea, CN=requester.localdomain
        Subject Public Key Info:
            Public Key Algorithm: rsaEncryption
                Public-Key: (2048 bit)
                Modulus:
                    00:cd:be:14:4f:fa:ce:01:3f:42:22:1b:1d:9c:af:
                    dd:92:d2:7f:db:6c:b7:3e:39:43:43:6b:13:03:f1:
                    05:f4:07:74:bc:76:69:28:0b:af:19:8e:d7:fc:e3:
                    cd:c6:58:f2:ca:7f:08:6d:53:fc:07:02:44:24:c6:
                    b4:34:4c:8c:04:fe:33:0e:40:e2:20:ba:02:73:5a:
                    f7:f5:4f:63:6e:cc:c6:b6:df:54:1d:37:39:7d:51:
                    36:26:5f:bd:dc:3f:a8:8b:6b:a2:ae:b6:9d:d6:21:
                    e7:df:41:b8:7a:28:2a:68:48:ca:a8:2d:ed:e1:e9:
                    46:5e:5a:72:6d:b4:84:38:87:91:fd:94:11:0b:28:
                    84:c6:c2:2f:2a:fb:01:f9:36:7a:09:75:d1:33:88:
                    3c:73:41:5b:c8:bf:94:89:70:a1:f0:c0:b9:2e:50:
                    53:1e:b1:17:64:69:f4:2d:81:e0:a9:0d:0e:32:e9:
                    ba:55:8a:85:f1:1b:6f:49:79:b4:7f:88:c3:0d:3e:
                    54:88:9b:3d:1f:38:8c:04:f3:ee:6a:63:2b:f5:c6:
                    db:b4:83:aa:c4:78:41:3a:7d:4b:e1:c8:3e:71:ca:
                    1b:61:59:ea:c6:c4:ca:32:5e:c9:e9:bf:12:29:e6:
                    c6:c3:63:fe:a0:55:da:7a:f1:60:98:4d:26:ed:fa:
                    70:2d
                Exponent: 65537 (0x10001)
        X509v3 extensions:
            X509v3 Key Usage: 
                Digital Signature, Key Encipherment
            X509v3 Basic Constraints: 
                CA:FALSE
            Netscape Cert Type: 
                SSL Server
            Netscape Comment: 
                OpenSSL Generated Server Certificate
            X509v3 Subject Key Identifier: 
                53:3F:ED:5D:09:07:B3:65:7B:AB:45:C9:24:5B:09:77:80:0A:96:ED
            X509v3 Authority Key Identifier: 
                keyid:F4:A7:C0:CC:91:46:AF:64:F3:91:F2:27:F8:C8:B2:6F:8A:87:32:73
                DirName:/C=DE/ST=Hessen/O=privacyidea/CN=CA001
                serial:FB:C8:EB:AC:83:CD:12:07

            X509v3 Extended Key Usage: 
                TLS Web Server Authentication
    Signature Algorithm: sha1WithRSAEncryption
         91:ce:39:a0:a1:f8:23:50:b4:4e:41:40:b1:b5:34:88:75:6a:
         38:1e:8d:08:c3:e5:f4:c6:33:6e:02:58:8c:9e:de:61:af:a5:
         e0:5f:15:89:c1:bd:23:e0:7d:40:2f:4d:c5:0d:e7:03:45:0b:
         eb:da:bc:66:d4:4f:34:44:d4:f6:a2:2d:07:b6:ac:51:f2:07:
         1e:fb:58:23:2d:ee:03:71:12:99:d3:00:ad:6b:e5:99:0e:bc:
         02:ec:48:45:63:01:12:d4:51:3a:b7:91:86:b7:bd:74:2c:4b:
         74:45:1f:e5:70:fd:56:a9:c5:62:e9:28:98:a9:a8:d7:63:b2:
         c3:4b:75:4a:df:be:ad:f9:bd:3c:85:bb:64:96:4d:4d:86:22:
         69:32:16:fd:c3:47:7e:52:06:02:1f:7d:06:6f:7d:2c:93:65:
         bf:d8:31:b7:44:09:c0:e9:bf:b2:ef:f7:ed:5e:35:6e:17:ec:
         ed:f7:b6:7b:6b:95:76:d0:25:86:94:b6:2e:e6:c7:73:fc:d0:
         fb:65:f9:bf:2a:2c:3a:b5:af:94:6f:31:a6:9b:dc:b2:0d:5b:
         41:70:15:2a:0a:4b:33:9f:91:cf:16:a3:c3:ae:12:0e:17:5d:
         49:8c:ab:3b:00:f2:73:90:8a:4a:e9:2d:56:5e:e4:4a:76:8b:
         ac:c9:9d:6b
-----BEGIN CERTIFICATE-----
MIIEJjCCAw6gAwIBAgIEEAAAszANBgkqhkiG9w0BAQUFADBEMQswCQYDVQQGEwJE
RTEPMA0GA1UECAwGSGVzc2VuMRQwEgYDVQQKDAtwcml2YWN5aWRlYTEOMAwGA1UE
AwwFQ0EwMDEwHhcNMTUwOTEyMDk0MjU2WhcNMTYwOTExMDk0MjU2WjBUMQswCQYD
VQQGEwJERTEPMA0GA1UECAwGSGVzc2VuMRQwEgYDVQQKDAtwcml2YWN5aWRlYTEe
MBwGA1UEAwwVcmVxdWVzdGVyLmxvY2FsZG9tYWluMIIBIjANBgkqhkiG9w0BAQEF
AAOCAQ8AMIIBCgKCAQEAzb4UT/rOAT9CIhsdnK/dktJ/22y3PjlDQ2sTA/EF9Ad0
vHZpKAuvGY7X/OPNxljyyn8IbVP8BwJEJMa0NEyMBP4zDkDiILoCc1r39U9jbszG
tt9UHTc5fVE2Jl+93D+oi2uirrad1iHn30G4eigqaEjKqC3t4elGXlpybbSEOIeR
/ZQRCyiExsIvKvsB+TZ6CXXRM4g8c0FbyL+UiXCh8MC5LlBTHrEXZGn0LYHgqQ0O
Mum6VYqF8RtvSXm0f4jDDT5UiJs9HziMBPPuamMr9cbbtIOqxHhBOn1L4cg+ccob
YVnqxsTKMl7J6b8SKebGw2P+oFXaevFgmE0m7fpwLQIDAQABo4IBDjCCAQowCwYD
VR0PBAQDAgWgMAkGA1UdEwQCMAAwEQYJYIZIAYb4QgEBBAQDAgZAMDMGCWCGSAGG
+EIBDQQmFiRPcGVuU1NMIEdlbmVyYXRlZCBTZXJ2ZXIgQ2VydGlmaWNhdGUwHQYD
VR0OBBYEFFM/7V0JB7Nle6tFySRbCXeACpbtMHQGA1UdIwRtMGuAFPSnwMyRRq9k
85HyJ/jIsm+KhzJzoUikRjBEMQswCQYDVQQGEwJERTEPMA0GA1UECAwGSGVzc2Vu
MRQwEgYDVQQKDAtwcml2YWN5aWRlYTEOMAwGA1UEAwwFQ0EwMDGCCQD7yOusg80S
BzATBgNVHSUEDDAKBggrBgEFBQcDATANBgkqhkiG9w0BAQUFAAOCAQEAkc45oKH4
I1C0TkFAsbU0iHVqOB6NCMPl9MYzbgJYjJ7eYa+l4F8VicG9I+B9QC9NxQ3nA0UL
69q8ZtRPNETU9qItB7asUfIHHvtYIy3uA3ESmdMArWvlmQ68AuxIRWMBEtRROreR
hre9dCxLdEUf5XD9VqnFYukomKmo12Oyw0t1St++rfm9PIW7ZJZNTYYiaTIW/cNH
flIGAh99Bm99LJNlv9gxt0QJwOm/su/37V41bhfs7fe2e2uVdtAlhpS2LubHc/zQ
+2X5vyosOrWvlG8xppvcsg1bQXAVKgpLM5+Rzxajw64SDhddSYyrOwDyc5CKSukt
Vl7kSnaLrMmdaw==
-----END CERTIFICATE-----
