Certificate:
    Data:
        Version: 3 (0x2)
        Serial Number: 268435665 (0x100000d1)
        Signature Algorithm: sha256WithRSAEncryption
        Issuer: C=DE, ST=Hessen, O=privacyidea, CN=CA001
        Validity
            Not Before: Nov 17 10:19:05 2019 GMT
            Not After : Nov 16 10:19:05 2020 GMT
        Subject: OU=realm1, CN=cornelius/emailAddress=user@localhost.localdomain
        Subject Public Key Info:
            Public Key Algorithm: rsaEncryption
                RSA Public-Key: (2048 bit)
                Modulus:
                    00:d1:28:ca:72:fa:81:c5:e5:a1:e3:cc:98:18:13:
                    fb:6a:7f:3f:a0:d7:7a:c2:e0:c4:22:81:53:da:05:
                    c6:94:58:23:8d:8c:17:79:92:2a:31:a0:c1:fa:ae:
                    d7:ac:41:b1:5c:db:01:8f:3c:1b:73:36:d6:36:01:
                    e3:55:f7:78:55:68:50:1a:5b:41:71:95:fd:33:e2:
                    37:98:f2:6d:78:86:5b:90:bb:de:dc:83:3a:81:c9:
                    32:75:d2:fb:56:0e:a7:18:d9:98:94:f5:99:98:07:
                    b6:43:55:51:df:a7:dc:10:10:2d:b6:d2:d1:82:8a:
                    71:be:f9:ca:88:e6:b0:94:fe:20:22:15:51:33:73:
                    8c:39:ef:6b:7e:b5:62:6b:28:81:b7:47:f8:5a:bd:
                    cd:8d:e5:47:d0:2c:38:1b:94:8a:01:9d:35:48:af:
                    80:56:47:66:4b:77:d8:63:71:5c:98:e8:71:35:e6:
                    0c:34:b0:87:fa:a3:1a:0c:d9:41:da:35:35:5a:86:
                    14:b3:47:0e:06:6f:6b:da:40:a8:94:4b:b0:43:2b:
                    2f:8c:f3:70:40:68:c1:c5:7f:17:da:a9:23:23:3e:
                    08:88:91:c5:57:3f:c3:bc:a9:ff:cd:26:95:91:8b:
                    1d:ce:63:77:7e:c4:b0:75:76:d2:a7:d1:c3:c8:5c:
                    e5:af
                Exponent: 65537 (0x10001)
        X509v3 extensions:
            X509v3 Key Usage: 
                Digital Signature, Key Encipherment
            X509v3 Basic Constraints: 
                CA:FALSE
            Netscape Cert Type: 
                SSL Server
            Netscape Comment: 
                OpenSSL Generated Server Certificate
            X509v3 Subject Key Identifier: 
                4E:B5:BA:AB:D6:B4:C1:C0:B7:6E:72:FF:B4:6D:D1:54:41:AF:4B:A4
            X509v3 Authority Key Identifier: 
                keyid:F4:A7:C0:CC:91:46:AF:64:F3:91:F2:27:F8:C8:B2:6F:8A:87:32:73
                DirName:/C=DE/ST=Hessen/O=privacyidea/CN=CA001
                serial:FB:C8:EB:AC:83:CD:12:07

            X509v3 Extended Key Usage: 
                TLS Web Server Authentication
    Signature Algorithm: sha256WithRSAEncryption
         ab:bd:94:18:54:93:17:15:d6:1a:6c:d0:56:86:73:f4:1f:01:
         17:3b:de:7d:41:1f:ba:21:42:71:4b:91:3f:09:73:6a:6d:65:
         13:99:5b:d9:fa:76:d8:9e:41:ac:fb:76:a1:24:a9:9c:88:c9:
         ec:3c:e6:04:d6:2d:b0:c4:2f:42:db:a4:6a:3c:ae:58:90:c0:
         6e:1f:76:fe:8e:c2:c8:43:31:7f:b3:f1:b1:df:4f:fb:00:b6:
         98:9d:eb:72:72:e5:48:98:18:0f:37:3b:19:a4:a9:e9:ec:5f:
         a6:c5:65:f8:2c:3a:aa:99:9b:a3:85:7d:a0:c9:9c:ac:17:bc:
         eb:84:dc:d5:3b:e2:c4:f5:1e:c4:2c:ef:32:5d:e7:71:71:ce:
         c9:20:83:27:7e:fa:ca:85:9e:fc:0f:1e:ca:2c:9b:23:0b:8e:
         29:0f:99:11:c4:cb:88:16:31:98:d3:08:a3:15:20:66:fe:f3:
         ea:f7:36:a4:f7:ef:65:77:96:a7:32:5c:75:47:dd:24:65:a9:
         0d:da:48:ef:fe:18:4c:78:14:8f:8e:a2:c6:19:51:36:3a:03:
         9e:3d:f3:c0:92:b3:34:ac:57:50:e8:9a:41:05:63:1d:ec:95:
         3e:92:e0:59:c2:17:7b:f2:59:c0:2b:f4:b4:10:46:fe:fd:97:
         d9:ad:b7:00
-----BEGIN CERTIFICATE-----
MIIEIjCCAwqgAwIBAgIEEAAA0TANBgkqhkiG9w0BAQsFADBEMQswCQYDVQQGEwJE
RTEPMA0GA1UECAwGSGVzc2VuMRQwEgYDVQQKDAtwcml2YWN5aWRlYTEOMAwGA1UE
AwwFQ0EwMDEwHhcNMTkxMTE3MTAxOTA1WhcNMjAxMTE2MTAxOTA1WjBQMQ8wDQYD
VQQLDAZyZWFsbTExEjAQBgNVBAMMCWNvcm5lbGl1czEpMCcGCSqGSIb3DQEJARYa
dXNlckBsb2NhbGhvc3QubG9jYWxkb21haW4wggEiMA0GCSqGSIb3DQEBAQUAA4IB
DwAwggEKAoIBAQDRKMpy+oHF5aHjzJgYE/tqfz+g13rC4MQigVPaBcaUWCONjBd5
kioxoMH6rtesQbFc2wGPPBtzNtY2AeNV93hVaFAaW0Fxlf0z4jeY8m14hluQu97c
gzqByTJ10vtWDqcY2ZiU9ZmYB7ZDVVHfp9wQEC220tGCinG++cqI5rCU/iAiFVEz
c4w572t+tWJrKIG3R/havc2N5UfQLDgblIoBnTVIr4BWR2ZLd9hjcVyY6HE15gw0
sIf6oxoM2UHaNTVahhSzRw4Gb2vaQKiUS7BDKy+M83BAaMHFfxfaqSMjPgiIkcVX
P8O8qf/NJpWRix3OY3d+xLB1dtKn0cPIXOWvAgMBAAGjggEOMIIBCjALBgNVHQ8E
BAMCBaAwCQYDVR0TBAIwADARBglghkgBhvhCAQEEBAMCBkAwMwYJYIZIAYb4QgEN
BCYWJE9wZW5TU0wgR2VuZXJhdGVkIFNlcnZlciBDZXJ0aWZpY2F0ZTAdBgNVHQ4E
FgQUTrW6q9a0wcC3bnL/tG3RVEGvS6QwdAYDVR0jBG0wa4AU9KfAzJFGr2TzkfIn
+Miyb4qHMnOhSKRGMEQxCzAJBgNVBAYTAkRFMQ8wDQYDVQQIDAZIZXNzZW4xFDAS
BgNVBAoMC3ByaXZhY3lpZGVhMQ4wDAYDVQQDDAVDQTAwMYIJAPvI66yDzRIHMBMG
A1UdJQQMMAoGCCsGAQUFBwMBMA0GCSqGSIb3DQEBCwUAA4IBAQCrvZQYVJMXFdYa
bNBWhnP0HwEXO959QR+6IUJxS5E/CXNqbWUTmVvZ+nbYnkGs+3ahJKmciMnsPOYE
1i2wxC9C26RqPK5YkMBuH3b+jsLIQzF/s/Gx30/7ALaYnetycuVImBgPNzsZpKnp
7F+mxWX4LDqqmZujhX2gyZysF7zrhNzVO+LE9R7ELO8yXedxcc7JIIMnfvrKhZ78
Dx7KLJsjC44pD5kRxMuIFjGY0wijFSBm/vPq9zak9+9ld5anMlx1R90kZakN2kjv
/hhMeBSPjqLGGVE2OgOePfPAkrM0rFdQ6JpBBWMd7JU+kuBZwhd78lnAK/S0EEb+
/ZfZrbcA
-----END CERTIFICATE-----
