Certificate:
    Data:
        Version: 3 (0x2)
        Serial Number: 268435747 (0x10000123)
    Signature Algorithm: sha256WithRSAEncryption
        Issuer: C=DE, ST=Hessen, O=privacyidea, CN=CA001
        Validity
            Not Before: Jan 10 06:34:14 2019 GMT
            Not After : Jan 10 06:34:14 2020 GMT
        Subject: C=DE, ST=Hessen, O=privacyidea, CN=requester.localdomain
        Subject Public Key Info:
            Public Key Algorithm: rsaEncryption
                Public-Key: (2048 bit)
                Modulus:
                    00:cd:be:14:4f:fa:ce:01:3f:42:22:1b:1d:9c:af:
                    dd:92:d2:7f:db:6c:b7:3e:39:43:43:6b:13:03:f1:
                    05:f4:07:74:bc:76:69:28:0b:af:19:8e:d7:fc:e3:
                    cd:c6:58:f2:ca:7f:08:6d:53:fc:07:02:44:24:c6:
                    b4:34:4c:8c:04:fe:33:0e:40:e2:20:ba:02:73:5a:
                    f7:f5:4f:63:6e:cc:c6:b6:df:54:1d:37:39:7d:51:
                    36:26:5f:bd:dc:3f:a8:8b:6b:a2:ae:b6:9d:d6:21:
                    e7:df:41:b8:7a:28:2a:68:48:ca:a8:2d:ed:e1:e9:
                    46:5e:5a:72:6d:b4:84:38:87:91:fd:94:11:0b:28:
                    84:c6:c2:2f:2a:fb:01:f9:36:7a:09:75:d1:33:88:
                    3c:73:41:5b:c8:bf:94:89:70:a1:f0:c0:b9:2e:50:
                    53:1e:b1:17:64:69:f4:2d:81:e0:a9:0d:0e:32:e9:
                    ba:55:8a:85:f1:1b:6f:49:79:b4:7f:88:c3:0d:3e:
                    54:88:9b:3d:1f:38:8c:04:f3:ee:6a:63:2b:f5:c6:
                    db:b4:83:aa:c4:78:41:3a:7d:4b:e1:c8:3e:71:ca:
                    1b:61:59:ea:c6:c4:ca:32:5e:c9:e9:bf:12:29:e6:
                    c6:c3:63:fe:a0:55:da:7a:f1:60:98:4d:26:ed:fa:
                    70:2d
                Exponent: 65537 (0x10001)
        X509v3 extensions:
            X509v3 Key Usage: 
                Digital Signature, Key Encipherment
            X509v3 Basic Constraints: 
                CA:FALSE
            Netscape Cert Type: 
                SSL Server
            Netscape Comment: 
                OpenSSL Generated Server Certificate
            X509v3 Subject Key Identifier: 
                53:3F:ED:5D:09:07:B3:65:7B:AB:45:C9:24:5B:09:77:80:0A:96:ED
            X509v3 Authority Key Identifier: 
                keyid:F4:A7:C0:CC:91:46:AF:64:F3:91:F2:27:F8:C8:B2:6F:8A:87:32:73
                DirName:/C=DE/ST=Hessen/O=privacyidea/CN=CA001
                serial:FB:C8:EB:AC:83:CD:12:07

            X509v3 Extended Key Usage: 
                TLS Web Server Authentication
    Signature Algorithm: sha256WithRSAEncryption
         bc:86:77:4f:fc:64:6b:c7:9a:68:9d:a0:26:2b:21:73:ae:4f:
         5d:9a:5d:89:79:22:e9:46:ca:ef:7a:b0:f0:0c:a1:40:b0:3b:
         11:5c:e6:dd:dd:77:23:b4:f5:25:72:ca:31:d8:df:e2:45:82:
         39:64:b1:64:9b:1b:8d:14:bb:c3:09:ab:9a:74:60:ab:75:62:
         62:47:8d:6a:fb:15:6b:cb:d5:2f:63:38:72:7c:06:69:2c:72:
         fb:1c:61:30:de:c5:95:4d:92:cc:ee:e8:18:1b:19:64:df:62:
         c8:34:a3:b5:94:bd:fe:ea:64:e3:63:4f:a5:22:da:b0:03:fb:
         be:b8:16:88:07:9f:bb:b4:c2:97:0c:d6:9f:8e:f1:df:90:1c:
         02:07:76:11:99:cc:9f:e0:7b:bf:f5:01:5e:bd:64:06:13:49:
         f3:f1:e5:8b:20:1d:e7:1d:bb:2d:50:1d:38:41:ca:a9:28:23:
         31:fd:60:da:55:66:47:fd:d3:34:3b:f5:e2:3c:6a:40:01:4c:
         19:ae:a5:e9:6e:38:f3:89:da:5d:ee:fb:f3:5a:5b:e5:29:ee:
         ba:ae:41:38:6b:5a:01:d6:34:30:87:3b:5e:58:11:4b:b8:02:
         d5:1c:aa:47:d7:d8:07:27:e2:c5:85:17:a9:ba:52:c8:0c:7a:
         e1:ab:9e:57
-----BEGIN CERTIFICATE-----
MIIEJjCCAw6gAwIBAgIEEAABIzANBgkqhkiG9w0BAQsFADBEMQswCQYDVQQGEwJE
RTEPMA0GA1UECAwGSGVzc2VuMRQwEgYDVQQKDAtwcml2YWN5aWRlYTEOMAwGA1UE
AwwFQ0EwMDEwHhcNMTkwMTEwMDYzNDE0WhcNMjAwMTEwMDYzNDE0WjBUMQswCQYD
VQQGEwJERTEPMA0GA1UECAwGSGVzc2VuMRQwEgYDVQQKDAtwcml2YWN5aWRlYTEe
MBwGA1UEAwwVcmVxdWVzdGVyLmxvY2FsZG9tYWluMIIBIjANBgkqhkiG9w0BAQEF
AAOCAQ8AMIIBCgKCAQEAzb4UT/rOAT9CIhsdnK/dktJ/22y3PjlDQ2sTA/EF9Ad0
vHZpKAuvGY7X/OPNxljyyn8IbVP8BwJEJMa0NEyMBP4zDkDiILoCc1r39U9jbszG
tt9UHTc5fVE2Jl+93D+oi2uirrad1iHn30G4eigqaEjKqC3t4elGXlpybbSEOIeR
/ZQRCyiExsIvKvsB+TZ6CXXRM4g8c0FbyL+UiXCh8MC5LlBTHrEXZGn0LYHgqQ0O
Mum6VYqF8RtvSXm0f4jDDT5UiJs9HziMBPPuamMr9cbbtIOqxHhBOn1L4cg+ccob
YVnqxsTKMl7J6b8SKebGw2P+oFXaevFgmE0m7fpwLQIDAQABo4IBDjCCAQowCwYD
VR0PBAQDAgWgMAkGA1UdEwQCMAAwEQYJYIZIAYb4QgEBBAQDAgZAMDMGCWCGSAGG
+EIBDQQmFiRPcGVuU1NMIEdlbmVyYXRlZCBTZXJ2ZXIgQ2VydGlmaWNhdGUwHQYD
VR0OBBYEFFM/7V0JB7Nle6tFySRbCXeACpbtMHQGA1UdIwRtMGuAFPSnwMyRRq9k
85HyJ/jIsm+KhzJzoUikRjBEMQswCQYDVQQGEwJERTEPMA0GA1UECAwGSGVzc2Vu
MRQwEgYDVQQKDAtwcml2YWN5aWRlYTEOMAwGA1UEAwwFQ0EwMDGCCQD7yOusg80S
BzATBgNVHSUEDDAKBggrBgEFBQcDATANBgkqhkiG9w0BAQsFAAOCAQEAvIZ3T/xk
a8eaaJ2gJishc65PXZpdiXki6UbK73qw8AyhQLA7EVzm3d13I7T1JXLKMdjf4kWC
OWSxZJsbjRS7wwmrmnRgq3ViYkeNavsVa8vVL2M4cnwGaSxy+xxhMN7FlU2SzO7o
GBsZZN9iyDSjtZS9/upk42NPpSLasAP7vrgWiAefu7TClwzWn47x35AcAgd2EZnM
n+B7v/UBXr1kBhNJ8/HliyAd5x27LVAdOEHKqSgjMf1g2lVmR/3TNDv14jxqQAFM
Ga6l6W4484naXe7781pb5Snuuq5BOGtaAdY0MIc7XlgRS7gC1RyqR9fYByfixYUX
qbpSyAx64aueVw==
-----END CERTIFICATE-----
