Certificate:
    Data:
        Version: 3 (0x2)
        Serial Number: 268435740 (0x1000011c)
    Signature Algorithm: sha256WithRSAEncryption
        Issuer: C=DE, ST=Hessen, O=privacyidea, CN=CA001
        Validity
            Not Before: Jan 10 00:00:06 2019 GMT
            Not After : Jan 10 00:00:06 2020 GMT
        Subject: OU=realm1, CN=cornelius/emailAddress=user@localhost.localdomain
        Subject Public Key Info:
            Public Key Algorithm: rsaEncryption
                Public-Key: (2048 bit)
                Modulus:
                    00:be:f3:6e:2d:6f:52:de:f7:e8:77:c9:b8:79:fe:
                    9d:83:ab:b8:cb:7a:8b:82:df:39:b9:59:94:37:cc:
                    72:bd:79:dd:a0:ed:83:74:6e:86:a7:ac:a9:a8:ea:
                    0c:c4:50:35:57:d4:70:46:27:d1:71:2a:cd:bc:41:
                    51:cf:93:12:d8:aa:c9:bc:05:af:1b:e4:5a:ae:1d:
                    4c:e7:5f:71:08:43:ff:d8:9b:81:17:a8:3b:74:e2:
                    26:42:67:01:6f:69:c2:7b:4e:30:ba:bc:13:44:78:
                    6e:da:93:57:6d:ac:cd:a4:21:b4:8a:9f:ea:a1:ad:
                    ad:19:77:b4:32:58:fd:34:0c:30:cb:2d:d2:3c:7c:
                    4c:73:03:e4:98:cf:6f:7f:04:74:99:61:51:be:1f:
                    98:83:b3:a6:ca:5d:ad:30:73:4d:26:53:7e:dc:af:
                    b0:4a:54:e2:2a:87:d8:56:0a:7e:fc:62:91:39:54:
                    a9:8e:16:95:53:5b:08:ce:1c:6e:48:a9:68:58:d7:
                    ab:be:da:81:a2:73:ee:45:2a:b3:71:52:60:f3:13:
                    90:08:ea:d5:d8:d1:9a:81:90:4f:4a:8f:38:16:dc:
                    a0:cd:49:43:de:a8:98:d5:63:67:07:f0:65:b4:ae:
                    fa:a2:44:ce:2c:44:4d:97:db:fc:4d:e2:08:6a:44:
                    fc:3d
                Exponent: 65537 (0x10001)
        X509v3 extensions:
            X509v3 Key Usage: 
                Digital Signature, Key Encipherment
            X509v3 Basic Constraints: 
                CA:FALSE
            Netscape Cert Type: 
                SSL Server
            Netscape Comment: 
                OpenSSL Generated Server Certificate
            X509v3 Subject Key Identifier: 
                40:65:30:D6:65:90:29:9F:F7:E6:B0:6A:36:70:65:9B:E3:54:9B:1F
            X509v3 Authority Key Identifier: 
                keyid:F4:A7:C0:CC:91:46:AF:64:F3:91:F2:27:F8:C8:B2:6F:8A:87:32:73
                DirName:/C=DE/ST=Hessen/O=privacyidea/CN=CA001
                serial:FB:C8:EB:AC:83:CD:12:07

            X509v3 Extended Key Usage: 
                TLS Web Server Authentication
    Signature Algorithm: sha256WithRSAEncryption
         92:af:30:ca:f1:e0:76:37:fc:5d:64:d3:4b:ff:8e:a7:bf:4e:
         a2:2e:72:82:8c:c3:19:02:ca:11:e7:6c:50:47:c9:9c:77:a1:
         00:2e:ac:fc:64:c7:02:4f:a7:51:2d:fa:0f:82:c4:f2:81:62:
         27:27:e4:cc:bf:76:7d:9f:cd:30:10:c2:b7:e3:67:63:fd:80:
         c1:9a:b2:72:89:63:d4:40:08:3a:89:96:cd:65:0d:30:9b:ef:
         ee:7d:9e:a9:bd:20:8c:53:fb:f9:df:fa:63:d4:ce:04:5b:79:
         3e:4e:2f:6e:4f:3d:51:c9:4a:5f:48:d4:35:f5:b3:91:9d:ee:
         e7:e1:b2:16:8d:b1:c3:ee:f2:be:dd:de:e2:5a:9d:f1:83:57:
         f5:9b:c3:d8:77:12:a7:fb:37:48:2c:e6:e5:2f:25:7f:f4:01:
         ba:62:c7:3a:e5:cf:c6:96:1b:97:2f:06:33:3c:40:40:96:61:
         cf:2f:a0:d9:36:e6:8b:58:c7:7e:45:75:2c:ca:13:6c:3d:02:
         bc:bc:23:d5:de:7d:32:03:4f:3f:5c:23:52:e8:c1:e9:5a:01:
         63:75:da:1c:2f:df:ef:90:42:6e:42:72:c9:48:08:81:98:16:
         62:22:0e:de:12:42:cc:e2:18:2d:93:d6:04:e0:a5:a7:89:c9:
         23:20:d4:89
-----BEGIN CERTIFICATE-----
MIIEIjCCAwqgAwIBAgIEEAABHDANBgkqhkiG9w0BAQsFADBEMQswCQYDVQQGEwJE
RTEPMA0GA1UECAwGSGVzc2VuMRQwEgYDVQQKDAtwcml2YWN5aWRlYTEOMAwGA1UE
AwwFQ0EwMDEwHhcNMTkwMTEwMDAwMDA2WhcNMjAwMTEwMDAwMDA2WjBQMQ8wDQYD
VQQLDAZyZWFsbTExEjAQBgNVBAMMCWNvcm5lbGl1czEpMCcGCSqGSIb3DQEJARYa
dXNlckBsb2NhbGhvc3QubG9jYWxkb21haW4wggEiMA0GCSqGSIb3DQEBAQUAA4IB
DwAwggEKAoIBAQC+824tb1Le9+h3ybh5/p2Dq7jLeouC3zm5WZQ3zHK9ed2g7YN0
boanrKmo6gzEUDVX1HBGJ9FxKs28QVHPkxLYqsm8Ba8b5FquHUznX3EIQ//Ym4EX
qDt04iZCZwFvacJ7TjC6vBNEeG7ak1dtrM2kIbSKn+qhra0Zd7QyWP00DDDLLdI8
fExzA+SYz29/BHSZYVG+H5iDs6bKXa0wc00mU37cr7BKVOIqh9hWCn78YpE5VKmO
FpVTWwjOHG5IqWhY16u+2oGic+5FKrNxUmDzE5AI6tXY0ZqBkE9KjzgW3KDNSUPe
qJjVY2cH8GW0rvqiRM4sRE2X2/xN4ghqRPw9AgMBAAGjggEOMIIBCjALBgNVHQ8E
BAMCBaAwCQYDVR0TBAIwADARBglghkgBhvhCAQEEBAMCBkAwMwYJYIZIAYb4QgEN
BCYWJE9wZW5TU0wgR2VuZXJhdGVkIFNlcnZlciBDZXJ0aWZpY2F0ZTAdBgNVHQ4E
FgQUQGUw1mWQKZ/35rBqNnBlm+NUmx8wdAYDVR0jBG0wa4AU9KfAzJFGr2TzkfIn
+Miyb4qHMnOhSKRGMEQxCzAJBgNVBAYTAkRFMQ8wDQYDVQQIDAZIZXNzZW4xFDAS
BgNVBAoMC3ByaXZhY3lpZGVhMQ4wDAYDVQQDDAVDQTAwMYIJAPvI66yDzRIHMBMG
A1UdJQQMMAoGCCsGAQUFBwMBMA0GCSqGSIb3DQEBCwUAA4IBAQCSrzDK8eB2N/xd
ZNNL/46nv06iLnKCjMMZAsoR52xQR8mcd6EALqz8ZMcCT6dRLfoPgsTygWInJ+TM
v3Z9n80wEMK342dj/YDBmrJyiWPUQAg6iZbNZQ0wm+/ufZ6pvSCMU/v53/pj1M4E
W3k+Ti9uTz1RyUpfSNQ19bORne7n4bIWjbHD7vK+3d7iWp3xg1f1m8PYdxKn+zdI
LOblLyV/9AG6Ysc65c/GlhuXLwYzPEBAlmHPL6DZNuaLWMd+RXUsyhNsPQK8vCPV
3n0yA08/XCNS6MHpWgFjddocL9/vkEJuQnLJSAiBmBZiIg7eEkLM4hgtk9YE4KWn
ickjINSJ
-----END CERTIFICATE-----
