Certificate:
    Data:
        Version: 3 (0x2)
        Serial Number: 268435736 (0x10000118)
    Signature Algorithm: sha256WithRSAEncryption
        Issuer: C=DE, ST=Hessen, O=privacyidea, CN=CA001
        Validity
            Not Before: Jan  9 23:55:41 2019 GMT
            Not After : Jan  9 23:55:41 2020 GMT
        Subject: C=DE, ST=Hessen, O=privacyidea, CN=usercert
        Subject Public Key Info:
            Public Key Algorithm: rsaEncryption
                Public-Key: (2048 bit)
                Modulus:
                    00:dc:2f:d1:5f:29:97:d4:7c:c3:53:c8:30:bd:4b:
                    67:70:2c:24:6b:b8:5e:eb:21:7a:48:12:56:7c:81:
                    5c:48:75:b6:68:eb:f6:f2:98:4e:50:51:d1:7f:6c:
                    73:f3:0a:a7:ae:be:48:5e:e5:d6:e1:d9:2a:7c:32:
                    6e:4e:fd:08:f6:5a:54:49:23:73:c3:b9:07:18:d1:
                    ef:b3:ac:f8:8a:dc:94:96:a4:90:3a:8e:74:df:e6:
                    0d:37:1b:bd:5b:b7:25:1a:56:39:da:6f:91:aa:5e:
                    1c:74:f3:f9:7c:14:01:83:12:65:76:c7:bb:fe:36:
                    5b:95:e9:72:65:83:ed:3e:98:30:71:fa:87:dd:a3:
                    36:5a:30:03:2e:26:e0:61:d1:bf:02:3f:b6:06:1f:
                    4a:89:28:1c:5c:a2:ff:4e:be:94:e6:8c:e0:da:82:
                    f1:9d:29:32:48:30:73:b4:04:f6:42:1e:be:f7:e2:
                    32:32:27:3c:9d:89:2f:70:3e:85:9a:6f:5c:c5:09:
                    c0:8c:32:2f:72:22:c9:d2:95:1f:b6:ac:72:60:72:
                    b7:82:4d:6b:ce:5b:e3:00:d0:d2:2f:58:c6:e0:10:
                    e5:51:ca:4d:3b:2e:e6:7e:ab:84:d6:56:f1:93:35:
                    a0:93:64:26:81:75:2f:91:b5:16:06:38:0b:db:cc:
                    2d:07
                Exponent: 65537 (0x10001)
        X509v3 extensions:
            X509v3 Key Usage: 
                Digital Signature, Key Encipherment
            X509v3 Basic Constraints: 
                CA:FALSE
            Netscape Cert Type: 
                SSL Server
            Netscape Comment: 
                OpenSSL Generated Server Certificate
            X509v3 Subject Key Identifier: 
                FC:14:D1:F0:4B:8D:00:90:F2:F5:B8:71:9E:4E:97:C3:92:54:AD:0B
            X509v3 Authority Key Identifier: 
                keyid:F4:A7:C0:CC:91:46:AF:64:F3:91:F2:27:F8:C8:B2:6F:8A:87:32:73
                DirName:/C=DE/ST=Hessen/O=privacyidea/CN=CA001
                serial:FB:C8:EB:AC:83:CD:12:07

            X509v3 Extended Key Usage: 
                TLS Web Server Authentication
    Signature Algorithm: sha256WithRSAEncryption
         41:d0:a6:96:63:b3:cb:95:f7:5c:86:36:df:34:fd:94:e9:02:
         89:a8:ab:4d:6f:e9:e9:c7:90:0a:62:07:92:6d:39:b1:80:59:
         0d:7f:88:f3:3a:51:ba:aa:b3:f3:c7:00:91:13:34:0d:7b:2c:
         8c:09:d9:36:ad:c9:ba:bf:57:16:6f:8b:a3:18:5e:2f:4a:94:
         0e:ce:b9:8c:05:97:b1:35:24:d3:80:e2:48:db:1b:14:28:c1:
         8a:f4:1a:18:16:31:24:5f:f5:bd:0c:23:b5:8c:ad:f6:a8:db:
         c9:ab:49:2c:8d:04:7a:9d:38:c6:bc:fb:57:cc:e3:38:f8:c4:
         de:d3:b1:33:f6:47:00:ef:a1:cc:50:a5:fa:1b:47:32:6f:37:
         fd:40:c1:17:8d:d7:cb:62:31:8f:ce:a9:5b:b5:af:d8:0e:90:
         e8:16:a8:ce:46:ab:3c:e9:fd:b3:7c:18:11:43:af:e2:67:60:
         f2:c6:fa:f8:d7:67:12:e5:8d:24:c3:bb:38:61:44:6a:6b:4a:
         32:53:02:85:21:7e:c8:83:c5:19:aa:06:04:ad:de:19:1e:ce:
         e3:ee:31:09:21:ce:52:d8:8e:bf:d3:00:6a:44:c1:9e:69:9c:
         6c:00:9e:6a:59:c8:4b:de:dd:44:54:5d:a3:c0:b6:98:c3:bc:
         c1:e0:50:ae
-----BEGIN CERTIFICATE-----
MIIEGTCCAwGgAwIBAgIEEAABGDANBgkqhkiG9w0BAQsFADBEMQswCQYDVQQGEwJE
RTEPMA0GA1UECAwGSGVzc2VuMRQwEgYDVQQKDAtwcml2YWN5aWRlYTEOMAwGA1UE
AwwFQ0EwMDEwHhcNMTkwMTA5MjM1NTQxWhcNMjAwMTA5MjM1NTQxWjBHMQswCQYD
VQQGEwJERTEPMA0GA1UECAwGSGVzc2VuMRQwEgYDVQQKDAtwcml2YWN5aWRlYTER
MA8GA1UEAwwIdXNlcmNlcnQwggEiMA0GCSqGSIb3DQEBAQUAA4IBDwAwggEKAoIB
AQDcL9FfKZfUfMNTyDC9S2dwLCRruF7rIXpIElZ8gVxIdbZo6/bymE5QUdF/bHPz
Cqeuvkhe5dbh2Sp8Mm5O/Qj2WlRJI3PDuQcY0e+zrPiK3JSWpJA6jnTf5g03G71b
tyUaVjnab5GqXhx08/l8FAGDEmV2x7v+NluV6XJlg+0+mDBx+ofdozZaMAMuJuBh
0b8CP7YGH0qJKBxcov9OvpTmjODagvGdKTJIMHO0BPZCHr734jIyJzydiS9wPoWa
b1zFCcCMMi9yIsnSlR+2rHJgcreCTWvOW+MA0NIvWMbgEOVRyk07LuZ+q4TWVvGT
NaCTZCaBdS+RtRYGOAvbzC0HAgMBAAGjggEOMIIBCjALBgNVHQ8EBAMCBaAwCQYD
VR0TBAIwADARBglghkgBhvhCAQEEBAMCBkAwMwYJYIZIAYb4QgENBCYWJE9wZW5T
U0wgR2VuZXJhdGVkIFNlcnZlciBDZXJ0aWZpY2F0ZTAdBgNVHQ4EFgQU/BTR8EuN
AJDy9bhxnk6Xw5JUrQswdAYDVR0jBG0wa4AU9KfAzJFGr2TzkfIn+Miyb4qHMnOh
SKRGMEQxCzAJBgNVBAYTAkRFMQ8wDQYDVQQIDAZIZXNzZW4xFDASBgNVBAoMC3By
aXZhY3lpZGVhMQ4wDAYDVQQDDAVDQTAwMYIJAPvI66yDzRIHMBMGA1UdJQQMMAoG
CCsGAQUFBwMBMA0GCSqGSIb3DQEBCwUAA4IBAQBB0KaWY7PLlfdchjbfNP2U6QKJ
qKtNb+npx5AKYgeSbTmxgFkNf4jzOlG6qrPzxwCREzQNeyyMCdk2rcm6v1cWb4uj
GF4vSpQOzrmMBZexNSTTgOJI2xsUKMGK9BoYFjEkX/W9DCO1jK32qNvJq0ksjQR6
nTjGvPtXzOM4+MTe07Ez9kcA76HMUKX6G0cybzf9QMEXjdfLYjGPzqlbta/YDpDo
FqjORqs86f2zfBgRQ6/iZ2Dyxvr412cS5Y0kw7s4YURqa0oyUwKFIX7Ig8UZqgYE
rd4ZHs7j7jEJIc5S2I6/0wBqRMGeaZxsAJ5qWchL3t1EVF2jwLaYw7zB4FCu
-----END CERTIFICATE-----
