Certificate:
    Data:
        Version: 3 (0x2)
        Serial Number: 268435610 (0x1000009a)
    Signature Algorithm: sha1WithRSAEncryption
        Issuer: C=DE, ST=Hessen, O=privacyidea, CN=CA001
        Validity
            Not Before: Sep 27 07:48:16 2015 GMT
            Not After : Sep 26 07:48:16 2016 GMT
        Subject: CN=Steve Test/emailAddress=steve@openssl.org
        Subject Public Key Info:
            Public Key Algorithm: rsaEncryption
                Public-Key: (2048 bit)
                Modulus:
                    00:d2:81:89:20:51:48:0f:73:f4:11:32:24:d5:1f:
                    1c:fd:5c:f5:b6:e6:c5:f0:52:81:dc:d2:af:66:4a:
                    7c:93:31:61:5c:af:d1:6d:06:70:03:60:7c:72:0c:
                    88:dd:49:cd:9e:02:6c:d2:5a:d7:53:0f:f3:da:be:
                    69:64:b5:0f:0c:00:e3:b3:50:47:a3:b3:9b:ba:13:
                    50:d6:58:5a:4b:ab:39:e0:11:ca:0a:27:67:03:78:
                    22:66:6d:92:1e:1b:5c:49:ae:e6:6b:d1:8e:3b:9d:
                    06:d3:c6:ac:4d:53:43:10:ab:e8:96:c1:87:82:97:
                    99:8f:20:d3:99:12:37:31:84:e1:8a:ff:29:03:5f:
                    22:90:3e:7f:9b:e0:20:c1:ad:dc:ae:4c:39:1a:31:
                    96:17:02:8c:b2:d9:b4:0d:20:12:9b:7d:86:54:fd:
                    33:fd:c1:2a:62:46:f8:60:96:cf:6e:01:6f:22:df:
                    13:47:e7:97:ec:05:72:23:a3:62:f8:fa:ef:ac:9c:
                    72:f0:37:cb:2f:37:cf:90:a8:27:51:86:c6:d7:78:
                    08:8f:7e:25:a2:15:70:a2:fb:1c:b6:15:5e:a0:97:
                    8b:81:4c:09:28:8a:27:3b:94:bc:71:db:5b:71:37:
                    9a:2b:16:e0:6f:b5:c9:f5:4b:4f:20:ba:65:cf:af:
                    ad:ad
                Exponent: 65537 (0x10001)
        X509v3 extensions:
            X509v3 Key Usage: 
                Digital Signature, Key Encipherment
            X509v3 Basic Constraints: 
                CA:FALSE
            Netscape Cert Type: 
                SSL Server
            Netscape Comment: 
                OpenSSL Generated Server Certificate
            X509v3 Subject Key Identifier: 
                E5:25:6D:3E:AF:0D:DD:3F:4C:F2:45:19:39:D5:14:DB:7E:9C:C0:AD
            X509v3 Authority Key Identifier: 
                keyid:F4:A7:C0:CC:91:46:AF:64:F3:91:F2:27:F8:C8:B2:6F:8A:87:32:73
                DirName:/C=DE/ST=Hessen/O=privacyidea/CN=CA001
                serial:FB:C8:EB:AC:83:CD:12:07

            X509v3 Extended Key Usage: 
                TLS Web Server Authentication
    Signature Algorithm: sha1WithRSAEncryption
         bb:c2:4b:1b:d0:64:5f:a8:48:f4:10:56:bb:87:bc:93:95:03:
         12:a6:e8:8c:22:7a:fe:76:51:01:77:60:3d:16:3d:fa:0b:a7:
         35:bd:dc:c6:7b:26:86:0b:e1:39:4a:0d:38:a5:b7:35:5e:9a:
         f4:c5:83:fd:82:06:1d:d5:57:7e:a0:ea:2e:81:be:22:6c:1a:
         d4:87:4d:3d:69:b2:c2:19:3c:b6:a1:1a:ab:18:bd:9f:73:5d:
         19:7b:32:34:e6:83:0b:3e:61:e3:7f:74:8b:41:39:d9:54:09:
         1e:be:d0:b0:4f:ad:f9:89:92:8e:9f:67:07:54:91:d3:eb:c2:
         57:b2:0f:5a:16:ef:98:f2:9b:27:3e:6a:97:4d:0e:79:33:23:
         7b:0b:2d:11:c0:a8:d6:f5:fd:fa:d1:07:f3:df:3f:d3:3f:40:
         0a:be:31:93:33:b4:a1:6a:d9:22:76:c6:5b:73:cf:16:1f:70:
         e1:43:93:ef:e4:33:4a:3e:72:91:02:d9:cd:9f:b0:91:53:db:
         c9:f8:c5:b6:a1:ac:34:2e:58:7f:73:ca:77:2e:d8:30:c9:c2:
         02:c9:49:2a:88:a0:4e:4c:a0:d1:46:00:3f:8a:5a:8f:80:ac:
         4c:15:2f:b5:b8:d2:52:11:e7:75:45:10:cd:ca:29:8f:17:00:
         89:47:7d:f7
-----BEGIN CERTIFICATE-----
MIIECTCCAvGgAwIBAgIEEAAAmjANBgkqhkiG9w0BAQUFADBEMQswCQYDVQQGEwJE
RTEPMA0GA1UECAwGSGVzc2VuMRQwEgYDVQQKDAtwcml2YWN5aWRlYTEOMAwGA1UE
AwwFQ0EwMDEwHhcNMTUwOTI3MDc0ODE2WhcNMTYwOTI2MDc0ODE2WjA3MRMwEQYD
VQQDEwpTdGV2ZSBUZXN0MSAwHgYJKoZIhvcNAQkBFhFzdGV2ZUBvcGVuc3NsLm9y
ZzCCASIwDQYJKoZIhvcNAQEBBQADggEPADCCAQoCggEBANKBiSBRSA9z9BEyJNUf
HP1c9bbmxfBSgdzSr2ZKfJMxYVyv0W0GcANgfHIMiN1JzZ4CbNJa11MP89q+aWS1
DwwA47NQR6Ozm7oTUNZYWkurOeARygonZwN4ImZtkh4bXEmu5mvRjjudBtPGrE1T
QxCr6JbBh4KXmY8g05kSNzGE4Yr/KQNfIpA+f5vgIMGt3K5MORoxlhcCjLLZtA0g
Ept9hlT9M/3BKmJG+GCWz24BbyLfE0fnl+wFciOjYvj676yccvA3yy83z5CoJ1GG
xtd4CI9+JaIVcKL7HLYVXqCXi4FMCSiKJzuUvHHbW3E3misW4G+1yfVLTyC6Zc+v
ra0CAwEAAaOCAQ4wggEKMAsGA1UdDwQEAwIFoDAJBgNVHRMEAjAAMBEGCWCGSAGG
+EIBAQQEAwIGQDAzBglghkgBhvhCAQ0EJhYkT3BlblNTTCBHZW5lcmF0ZWQgU2Vy
dmVyIENlcnRpZmljYXRlMB0GA1UdDgQWBBTlJW0+rw3dP0zyRRk51RTbfpzArTB0
BgNVHSMEbTBrgBT0p8DMkUavZPOR8if4yLJviocyc6FIpEYwRDELMAkGA1UEBhMC
REUxDzANBgNVBAgMBkhlc3NlbjEUMBIGA1UECgwLcHJpdmFjeWlkZWExDjAMBgNV
BAMMBUNBMDAxggkA+8jrrIPNEgcwEwYDVR0lBAwwCgYIKwYBBQUHAwEwDQYJKoZI
hvcNAQEFBQADggEBALvCSxvQZF+oSPQQVruHvJOVAxKm6Iwiev52UQF3YD0WPfoL
pzW93MZ7JoYL4TlKDTiltzVemvTFg/2CBh3VV36g6i6BviJsGtSHTT1pssIZPLah
GqsYvZ9zXRl7MjTmgws+YeN/dItBOdlUCR6+0LBPrfmJko6fZwdUkdPrwleyD1oW
75jymyc+apdNDnkzI3sLLRHAqNb1/frRB/PfP9M/QAq+MZMztKFq2SJ2xltzzxYf
cOFDk+/kM0o+cpEC2c2fsJFT28n4xbahrDQuWH9zyncu2DDJwgLJSSqIoE5MoNFG
AD+KWo+ArEwVL7W40lIR53VFEM3KKY8XAIlHffc=
-----END CERTIFICATE-----
