Certificate:
    Data:
        Version: 3 (0x2)
        Serial Number: 268435737 (0x10000119)
    Signature Algorithm: sha256WithRSAEncryption
        Issuer: C=DE, ST=Hessen, O=privacyidea, CN=CA001
        Validity
            Not Before: Jan  9 23:55:42 2019 GMT
            Not After : Jan  9 23:55:42 2020 GMT
        Subject: CN=Steve Test/emailAddress=steve@openssl.org
        Subject Public Key Info:
            Public Key Algorithm: rsaEncryption
                Public-Key: (2048 bit)
                Modulus:
                    00:d2:81:89:20:51:48:0f:73:f4:11:32:24:d5:1f:
                    1c:fd:5c:f5:b6:e6:c5:f0:52:81:dc:d2:af:66:4a:
                    7c:93:31:61:5c:af:d1:6d:06:70:03:60:7c:72:0c:
                    88:dd:49:cd:9e:02:6c:d2:5a:d7:53:0f:f3:da:be:
                    69:64:b5:0f:0c:00:e3:b3:50:47:a3:b3:9b:ba:13:
                    50:d6:58:5a:4b:ab:39:e0:11:ca:0a:27:67:03:78:
                    22:66:6d:92:1e:1b:5c:49:ae:e6:6b:d1:8e:3b:9d:
                    06:d3:c6:ac:4d:53:43:10:ab:e8:96:c1:87:82:97:
                    99:8f:20:d3:99:12:37:31:84:e1:8a:ff:29:03:5f:
                    22:90:3e:7f:9b:e0:20:c1:ad:dc:ae:4c:39:1a:31:
                    96:17:02:8c:b2:d9:b4:0d:20:12:9b:7d:86:54:fd:
                    33:fd:c1:2a:62:46:f8:60:96:cf:6e:01:6f:22:df:
                    13:47:e7:97:ec:05:72:23:a3:62:f8:fa:ef:ac:9c:
                    72:f0:37:cb:2f:37:cf:90:a8:27:51:86:c6:d7:78:
                    08:8f:7e:25:a2:15:70:a2:fb:1c:b6:15:5e:a0:97:
                    8b:81:4c:09:28:8a:27:3b:94:bc:71:db:5b:71:37:
                    9a:2b:16:e0:6f:b5:c9:f5:4b:4f:20:ba:65:cf:af:
                    ad:ad
                Exponent: 65537 (0x10001)
        X509v3 extensions:
            X509v3 Key Usage: 
                Digital Signature, Key Encipherment
            X509v3 Basic Constraints: 
                CA:FALSE
            Netscape Cert Type: 
                SSL Server
            Netscape Comment: 
                OpenSSL Generated Server Certificate
            X509v3 Subject Key Identifier: 
                E5:25:6D:3E:AF:0D:DD:3F:4C:F2:45:19:39:D5:14:DB:7E:9C:C0:AD
            X509v3 Authority Key Identifier: 
                keyid:F4:A7:C0:CC:91:46:AF:64:F3:91:F2:27:F8:C8:B2:6F:8A:87:32:73
                DirName:/C=DE/ST=Hessen/O=privacyidea/CN=CA001
                serial:FB:C8:EB:AC:83:CD:12:07

            X509v3 Extended Key Usage: 
                TLS Web Server Authentication
    Signature Algorithm: sha256WithRSAEncryption
         1a:4c:56:69:c4:b1:d9:c3:05:62:6a:2d:5b:44:ed:d8:df:ca:
         d2:8a:0e:3f:0e:9c:9b:a5:d6:9a:b9:15:5f:83:49:21:d6:c0:
         62:86:90:25:c1:42:a1:93:4e:7e:61:67:da:10:f3:2a:8c:cf:
         6f:2b:d3:fa:f7:d8:48:43:18:96:16:32:78:bc:ce:c7:97:cd:
         5a:6d:03:7e:4b:2f:25:14:ef:3b:40:66:79:4c:46:0e:6d:b3:
         9b:cf:39:73:b6:4e:52:02:e3:da:d3:e4:7f:1f:68:39:3e:28:
         10:c0:a6:8a:56:2d:f1:ff:20:92:39:db:cf:04:6c:60:0f:93:
         d3:7c:0b:dd:5d:d8:0b:fe:51:2b:4c:2c:a0:0e:92:94:e7:f2:
         d9:62:23:84:37:a8:de:64:10:89:b7:d8:51:aa:55:49:ad:ae:
         6d:fd:d2:51:c0:9c:0a:80:c0:b0:93:4f:6f:09:1e:da:9b:18:
         87:8d:63:fa:8d:46:aa:90:be:34:22:6c:1d:65:45:77:06:2c:
         ba:5c:3a:ba:7a:f6:8a:d8:f4:d0:82:c8:ff:75:ea:d9:a1:22:
         d7:21:f8:62:9c:ba:e7:9d:93:39:fd:82:ad:7e:6b:de:84:48:
         29:53:fa:99:ce:df:bc:94:e7:25:fd:fa:c7:7b:fd:f9:3d:c4:
         45:e0:30:04
-----BEGIN CERTIFICATE-----
MIIECTCCAvGgAwIBAgIEEAABGTANBgkqhkiG9w0BAQsFADBEMQswCQYDVQQGEwJE
RTEPMA0GA1UECAwGSGVzc2VuMRQwEgYDVQQKDAtwcml2YWN5aWRlYTEOMAwGA1UE
AwwFQ0EwMDEwHhcNMTkwMTA5MjM1NTQyWhcNMjAwMTA5MjM1NTQyWjA3MRMwEQYD
VQQDDApTdGV2ZSBUZXN0MSAwHgYJKoZIhvcNAQkBFhFzdGV2ZUBvcGVuc3NsLm9y
ZzCCASIwDQYJKoZIhvcNAQEBBQADggEPADCCAQoCggEBANKBiSBRSA9z9BEyJNUf
HP1c9bbmxfBSgdzSr2ZKfJMxYVyv0W0GcANgfHIMiN1JzZ4CbNJa11MP89q+aWS1
DwwA47NQR6Ozm7oTUNZYWkurOeARygonZwN4ImZtkh4bXEmu5mvRjjudBtPGrE1T
QxCr6JbBh4KXmY8g05kSNzGE4Yr/KQNfIpA+f5vgIMGt3K5MORoxlhcCjLLZtA0g
Ept9hlT9M/3BKmJG+GCWz24BbyLfE0fnl+wFciOjYvj676yccvA3yy83z5CoJ1GG
xtd4CI9+JaIVcKL7HLYVXqCXi4FMCSiKJzuUvHHbW3E3misW4G+1yfVLTyC6Zc+v
ra0CAwEAAaOCAQ4wggEKMAsGA1UdDwQEAwIFoDAJBgNVHRMEAjAAMBEGCWCGSAGG
+EIBAQQEAwIGQDAzBglghkgBhvhCAQ0EJhYkT3BlblNTTCBHZW5lcmF0ZWQgU2Vy
dmVyIENlcnRpZmljYXRlMB0GA1UdDgQWBBTlJW0+rw3dP0zyRRk51RTbfpzArTB0
BgNVHSMEbTBrgBT0p8DMkUavZPOR8if4yLJviocyc6FIpEYwRDELMAkGA1UEBhMC
REUxDzANBgNVBAgMBkhlc3NlbjEUMBIGA1UECgwLcHJpdmFjeWlkZWExDjAMBgNV
BAMMBUNBMDAxggkA+8jrrIPNEgcwEwYDVR0lBAwwCgYIKwYBBQUHAwEwDQYJKoZI
hvcNAQELBQADggEBABpMVmnEsdnDBWJqLVtE7djfytKKDj8OnJul1pq5FV+DSSHW
wGKGkCXBQqGTTn5hZ9oQ8yqMz28r0/r32EhDGJYWMni8zseXzVptA35LLyUU7ztA
ZnlMRg5ts5vPOXO2TlIC49rT5H8faDk+KBDApopWLfH/IJI5288EbGAPk9N8C91d
2Av+UStMLKAOkpTn8tliI4Q3qN5kEIm32FGqVUmtrm390lHAnAqAwLCTT28JHtqb
GIeNY/qNRqqQvjQibB1lRXcGLLpcOrp69orY9NCCyP916tmhItch+GKcuuedkzn9
gq1+a96ESClT+pnO37yU5yX9+sd7/fk9xEXgMAQ=
-----END CERTIFICATE-----
