Certificate:
    Data:
        Version: 3 (0x2)
        Serial Number: 268435636 (0x100000b4)
    Signature Algorithm: sha1WithRSAEncryption
        Issuer: C=DE, ST=Hessen, O=privacyidea, CN=CA001
        Validity
            Not Before: Sep 12 09:43:53 2015 GMT
            Not After : Sep 11 09:43:53 2016 GMT
        Subject: CN=selfservice,CN=user,O=realm1/emailAddress=meine
        Subject Public Key Info:
            Public Key Algorithm: rsaEncryption
                Public-Key: (2048 bit)
                Modulus:
                    00:cf:3c:d4:33:0e:12:c4:e6:da:cd:b6:56:a1:1c:
                    26:bb:26:1c:8a:4a:73:a8:58:8a:b6:1e:b3:8b:99:
                    d2:1d:07:c2:92:89:79:c0:69:d8:c8:df:28:61:98:
                    1e:b3:fe:ae:2b:bd:78:a9:f7:6e:47:dc:a3:a0:16:
                    8c:85:02:c1:4e:92:fd:72:6e:f0:c8:03:29:9b:b8:
                    00:6e:c0:83:95:c8:34:20:36:9c:b3:e5:e4:e6:76:
                    73:a3:1a:ad:40:96:e0:53:54:00:ec:76:79:9a:c6:
                    0d:7e:b6:bd:29:ec:83:f3:cb:89:a4:cb:6c:00:ba:
                    0c:c5:78:0f:ff:69:b8:94:f4:04:70:43:3f:d8:9e:
                    d7:a7:fb:5d:ce:75:8e:da:e7:c4:07:b1:9d:de:6f:
                    88:4b:b6:4d:9a:cf:f9:bc:fa:9f:cd:32:6d:f6:3a:
                    0b:0d:23:42:78:ec:97:42:bf:0e:4d:60:56:e1:d3:
                    02:f2:19:cb:84:57:90:e5:70:a1:a2:83:35:86:e2:
                    da:86:9f:f9:8a:c4:79:b3:52:28:da:cb:bb:34:ca:
                    d3:da:91:4a:cf:8d:76:a2:b2:6b:9b:f9:96:fd:09:
                    2a:da:11:23:4d:f0:cb:d6:b2:b1:0e:12:6c:9a:19:
                    65:98:87:ca:e4:ee:24:ce:44:ac:90:8f:9d:1b:c5:
                    2a:9d
                Exponent: 65537 (0x10001)
        X509v3 extensions:
            X509v3 Key Usage: 
                Digital Signature, Key Encipherment
            X509v3 Basic Constraints: 
                CA:FALSE
            Netscape Cert Type: 
                SSL Server
            Netscape Comment: 
                OpenSSL Generated Server Certificate
            X509v3 Subject Key Identifier: 
                4D:07:90:AD:FF:1D:0D:E7:1A:DD:D6:2E:FA:BA:34:CB:AA:1F:24:C6
            X509v3 Authority Key Identifier: 
                keyid:F4:A7:C0:CC:91:46:AF:64:F3:91:F2:27:F8:C8:B2:6F:8A:87:32:73
                DirName:/C=DE/ST=Hessen/O=privacyidea/CN=CA001
                serial:FB:C8:EB:AC:83:CD:12:07

            X509v3 Extended Key Usage: 
                TLS Web Server Authentication
    Signature Algorithm: sha1WithRSAEncryption
         98:34:78:29:03:0e:c9:a0:cc:4f:c2:9f:cd:96:a5:49:ca:5f:
         10:70:82:cc:44:fc:c0:12:5c:e2:27:1f:12:45:b5:01:da:44:
         7d:e0:21:7e:e6:f6:50:33:6b:f4:eb:7a:f1:86:d3:4d:f1:2a:
         28:31:12:ca:9b:aa:8c:09:91:24:c1:3b:98:c9:87:03:a0:27:
         3f:23:fc:8a:92:4f:84:bc:bd:7a:ec:2d:9c:a0:47:40:74:a7:
         e4:3a:38:fc:dd:6b:8c:f6:97:06:37:18:5b:f2:74:4d:8e:1f:
         22:4b:0d:1c:f7:9c:22:4c:91:bb:ea:74:6a:67:42:e8:39:3c:
         41:5d:fb:af:82:d8:e1:ff:f3:33:c8:3f:44:db:97:37:db:78:
         a5:ed:30:36:4b:eb:da:33:06:f5:29:c3:1c:8c:c5:f4:a5:45:
         35:5f:d8:99:83:fc:c7:93:70:1f:75:b9:29:29:d1:d2:34:a5:
         95:51:f7:e1:10:75:70:33:07:f0:6e:f6:77:36:17:6b:58:6c:
         7e:9d:3f:84:22:eb:45:24:ce:f4:20:15:b7:5a:5a:90:b8:7a:
         82:6d:87:22:45:5e:7a:e4:80:55:d3:9a:26:d0:ab:ff:0f:31:
         84:58:79:8b:42:87:26:ac:ed:b1:2a:b4:51:48:69:01:9f:3b:
         8f:31:a6:30
-----BEGIN CERTIFICATE-----
MIIEDzCCAvegAwIBAgIEEAAAtDANBgkqhkiG9w0BAQUFADBEMQswCQYDVQQGEwJE
RTEPMA0GA1UECAwGSGVzc2VuMRQwEgYDVQQKDAtwcml2YWN5aWRlYTEOMAwGA1UE
AwwFQ0EwMDEwHhcNMTUwOTEyMDk0MzUzWhcNMTYwOTExMDk0MzUzWjA9MSUwIwYD
VQQDExxzZWxmc2VydmljZSxDTj11c2VyLE89cmVhbG0xMRQwEgYJKoZIhvcNAQkB
FgVtZWluZTCCASIwDQYJKoZIhvcNAQEBBQADggEPADCCAQoCggEBAM881DMOEsTm
2s22VqEcJrsmHIpKc6hYirYes4uZ0h0HwpKJecBp2MjfKGGYHrP+riu9eKn3bkfc
o6AWjIUCwU6S/XJu8MgDKZu4AG7Ag5XINCA2nLPl5OZ2c6MarUCW4FNUAOx2eZrG
DX62vSnsg/PLiaTLbAC6DMV4D/9puJT0BHBDP9ie16f7Xc51jtrnxAexnd5viEu2
TZrP+bz6n80ybfY6Cw0jQnjsl0K/Dk1gVuHTAvIZy4RXkOVwoaKDNYbi2oaf+YrE
ebNSKNrLuzTK09qRSs+NdqKya5v5lv0JKtoRI03wy9aysQ4SbJoZZZiHyuTuJM5E
rJCPnRvFKp0CAwEAAaOCAQ4wggEKMAsGA1UdDwQEAwIFoDAJBgNVHRMEAjAAMBEG
CWCGSAGG+EIBAQQEAwIGQDAzBglghkgBhvhCAQ0EJhYkT3BlblNTTCBHZW5lcmF0
ZWQgU2VydmVyIENlcnRpZmljYXRlMB0GA1UdDgQWBBRNB5Ct/x0N5xrd1i76ujTL
qh8kxjB0BgNVHSMEbTBrgBT0p8DMkUavZPOR8if4yLJviocyc6FIpEYwRDELMAkG
A1UEBhMCREUxDzANBgNVBAgMBkhlc3NlbjEUMBIGA1UECgwLcHJpdmFjeWlkZWEx
DjAMBgNVBAMMBUNBMDAxggkA+8jrrIPNEgcwEwYDVR0lBAwwCgYIKwYBBQUHAwEw
DQYJKoZIhvcNAQEFBQADggEBAJg0eCkDDsmgzE/Cn82WpUnKXxBwgsxE/MASXOIn
HxJFtQHaRH3gIX7m9lAza/TrevGG003xKigxEsqbqowJkSTBO5jJhwOgJz8j/IqS
T4S8vXrsLZygR0B0p+Q6OPzda4z2lwY3GFvydE2OHyJLDRz3nCJMkbvqdGpnQug5
PEFd+6+C2OH/8zPIP0TblzfbeKXtMDZL69ozBvUpwxyMxfSlRTVf2JmD/MeTcB91
uSkp0dI0pZVR9+EQdXAzB/Bu9nc2F2tYbH6dP4Qi60UkzvQgFbdaWpC4eoJthyJF
XnrkgFXTmibQq/8PMYRYeYtChyas7bEqtFFIaQGfO48xpjA=
-----END CERTIFICATE-----
