Certificate:
    Data:
        Version: 3 (0x2)
        Serial Number: 268435680 (0x100000e0)
        Signature Algorithm: sha256WithRSAEncryption
        Issuer: C=DE, ST=Hessen, O=privacyidea, CN=CA001
        Validity
            Not Before: Oct 24 09:42:16 2019 GMT
            Not After : Oct 23 09:42:16 2020 GMT
        Subject: CN=Steve Test/emailAddress=steve@openssl.org
        Subject Public Key Info:
            Public Key Algorithm: rsaEncryption
                RSA Public-Key: (2048 bit)
                Modulus:
                    00:d2:81:89:20:51:48:0f:73:f4:11:32:24:d5:1f:
                    1c:fd:5c:f5:b6:e6:c5:f0:52:81:dc:d2:af:66:4a:
                    7c:93:31:61:5c:af:d1:6d:06:70:03:60:7c:72:0c:
                    88:dd:49:cd:9e:02:6c:d2:5a:d7:53:0f:f3:da:be:
                    69:64:b5:0f:0c:00:e3:b3:50:47:a3:b3:9b:ba:13:
                    50:d6:58:5a:4b:ab:39:e0:11:ca:0a:27:67:03:78:
                    22:66:6d:92:1e:1b:5c:49:ae:e6:6b:d1:8e:3b:9d:
                    06:d3:c6:ac:4d:53:43:10:ab:e8:96:c1:87:82:97:
                    99:8f:20:d3:99:12:37:31:84:e1:8a:ff:29:03:5f:
                    22:90:3e:7f:9b:e0:20:c1:ad:dc:ae:4c:39:1a:31:
                    96:17:02:8c:b2:d9:b4:0d:20:12:9b:7d:86:54:fd:
                    33:fd:c1:2a:62:46:f8:60:96:cf:6e:01:6f:22:df:
                    13:47:e7:97:ec:05:72:23:a3:62:f8:fa:ef:ac:9c:
                    72:f0:37:cb:2f:37:cf:90:a8:27:51:86:c6:d7:78:
                    08:8f:7e:25:a2:15:70:a2:fb:1c:b6:15:5e:a0:97:
                    8b:81:4c:09:28:8a:27:3b:94:bc:71:db:5b:71:37:
                    9a:2b:16:e0:6f:b5:c9:f5:4b:4f:20:ba:65:cf:af:
                    ad:ad
                Exponent: 65537 (0x10001)
        X509v3 extensions:
            X509v3 Key Usage: 
                Digital Signature, Key Encipherment
            X509v3 Basic Constraints: 
                CA:FALSE
            Netscape Cert Type: 
                SSL Server
            Netscape Comment: 
                OpenSSL Generated Server Certificate
            X509v3 Subject Key Identifier: 
                E5:25:6D:3E:AF:0D:DD:3F:4C:F2:45:19:39:D5:14:DB:7E:9C:C0:AD
            X509v3 Authority Key Identifier: 
                keyid:F4:A7:C0:CC:91:46:AF:64:F3:91:F2:27:F8:C8:B2:6F:8A:87:32:73
                DirName:/C=DE/ST=Hessen/O=privacyidea/CN=CA001
                serial:FB:C8:EB:AC:83:CD:12:07

            X509v3 Extended Key Usage: 
                TLS Web Server Authentication
    Signature Algorithm: sha256WithRSAEncryption
         76:da:1b:18:da:8d:02:64:e7:ce:9e:d2:48:38:74:ef:90:1a:
         51:1a:d2:89:f4:40:55:c8:42:35:31:89:17:f0:fa:1f:8b:6c:
         ad:1b:fa:eb:0a:69:b6:96:ce:7d:63:af:f9:12:3e:89:f0:1b:
         1d:85:f8:29:a2:0d:af:05:49:db:bc:5b:09:ec:e9:c0:d4:7b:
         0e:2c:b5:9c:a4:39:e9:6e:70:50:c5:8d:e8:9d:5c:4c:b2:ef:
         99:2d:d5:3b:3f:b3:29:5b:ee:f3:eb:56:b7:ac:2c:55:c3:ef:
         56:22:3b:ac:6d:c3:95:47:10:54:ae:a2:e1:1f:e6:ed:cc:99:
         5d:1f:6c:3c:2c:b3:64:a3:21:84:1a:b9:3a:74:04:92:9f:0e:
         f5:e7:74:1c:f9:12:cc:31:2b:84:76:96:a8:ec:e1:f1:8d:35:
         9f:ef:ef:66:35:fe:ff:82:a3:69:39:2b:dd:28:86:7c:c3:a4:
         65:e7:da:1e:57:1c:35:47:e8:56:30:e8:53:be:62:35:b1:00:
         e8:f2:cd:ad:12:d8:af:bb:2b:5a:02:c6:66:60:1c:d8:16:fc:
         93:02:b7:10:7c:48:8e:a6:8c:10:ce:95:44:db:4c:4e:71:b2:
         1c:96:bf:24:48:4c:aa:36:3b:d7:86:a8:e9:09:cc:cf:2d:e1:
         f7:06:aa:39
-----BEGIN CERTIFICATE-----
MIIECTCCAvGgAwIBAgIEEAAA4DANBgkqhkiG9w0BAQsFADBEMQswCQYDVQQGEwJE
RTEPMA0GA1UECAwGSGVzc2VuMRQwEgYDVQQKDAtwcml2YWN5aWRlYTEOMAwGA1UE
AwwFQ0EwMDEwHhcNMTkxMDI0MDk0MjE2WhcNMjAxMDIzMDk0MjE2WjA3MRMwEQYD
VQQDDApTdGV2ZSBUZXN0MSAwHgYJKoZIhvcNAQkBFhFzdGV2ZUBvcGVuc3NsLm9y
ZzCCASIwDQYJKoZIhvcNAQEBBQADggEPADCCAQoCggEBANKBiSBRSA9z9BEyJNUf
HP1c9bbmxfBSgdzSr2ZKfJMxYVyv0W0GcANgfHIMiN1JzZ4CbNJa11MP89q+aWS1
DwwA47NQR6Ozm7oTUNZYWkurOeARygonZwN4ImZtkh4bXEmu5mvRjjudBtPGrE1T
QxCr6JbBh4KXmY8g05kSNzGE4Yr/KQNfIpA+f5vgIMGt3K5MORoxlhcCjLLZtA0g
Ept9hlT9M/3BKmJG+GCWz24BbyLfE0fnl+wFciOjYvj676yccvA3yy83z5CoJ1GG
xtd4CI9+JaIVcKL7HLYVXqCXi4FMCSiKJzuUvHHbW3E3misW4G+1yfVLTyC6Zc+v
ra0CAwEAAaOCAQ4wggEKMAsGA1UdDwQEAwIFoDAJBgNVHRMEAjAAMBEGCWCGSAGG
+EIBAQQEAwIGQDAzBglghkgBhvhCAQ0EJhYkT3BlblNTTCBHZW5lcmF0ZWQgU2Vy
dmVyIENlcnRpZmljYXRlMB0GA1UdDgQWBBTlJW0+rw3dP0zyRRk51RTbfpzArTB0
BgNVHSMEbTBrgBT0p8DMkUavZPOR8if4yLJviocyc6FIpEYwRDELMAkGA1UEBhMC
REUxDzANBgNVBAgMBkhlc3NlbjEUMBIGA1UECgwLcHJpdmFjeWlkZWExDjAMBgNV
BAMMBUNBMDAxggkA+8jrrIPNEgcwEwYDVR0lBAwwCgYIKwYBBQUHAwEwDQYJKoZI
hvcNAQELBQADggEBAHbaGxjajQJk586e0kg4dO+QGlEa0on0QFXIQjUxiRfw+h+L
bK0b+usKabaWzn1jr/kSPonwGx2F+CmiDa8FSdu8Wwns6cDUew4stZykOelucFDF
jeidXEyy75kt1Ts/sylb7vPrVresLFXD71YiO6xtw5VHEFSuouEf5u3MmV0fbDws
s2SjIYQauTp0BJKfDvXndBz5EswxK4R2lqjs4fGNNZ/v72Y1/v+Co2k5K90ohnzD
pGXn2h5XHDVH6FYw6FO+YjWxAOjyza0S2K+7K1oCxmZgHNgW/JMCtxB8SI6mjBDO
lUTbTE5xshyWvyRITKo2O9eGqOkJzM8t4fcGqjk=
-----END CERTIFICATE-----
