Certificate:
    Data:
        Version: 3 (0x2)
        Serial Number: 268435702 (0x100000f6)
        Signature Algorithm: sha256WithRSAEncryption
        Issuer: C=DE, ST=Hessen, O=privacyidea, CN=CA001
        Validity
            Not Before: Aug 14 21:23:19 2019 GMT
            Not After : Sep  2 21:23:19 2021 GMT
        Subject: CN=Steve Test/emailAddress=steve@openssl.org
        Subject Public Key Info:
            Public Key Algorithm: rsaEncryption
                RSA Public-Key: (2048 bit)
                Modulus:
                    00:d2:81:89:20:51:48:0f:73:f4:11:32:24:d5:1f:
                    1c:fd:5c:f5:b6:e6:c5:f0:52:81:dc:d2:af:66:4a:
                    7c:93:31:61:5c:af:d1:6d:06:70:03:60:7c:72:0c:
                    88:dd:49:cd:9e:02:6c:d2:5a:d7:53:0f:f3:da:be:
                    69:64:b5:0f:0c:00:e3:b3:50:47:a3:b3:9b:ba:13:
                    50:d6:58:5a:4b:ab:39:e0:11:ca:0a:27:67:03:78:
                    22:66:6d:92:1e:1b:5c:49:ae:e6:6b:d1:8e:3b:9d:
                    06:d3:c6:ac:4d:53:43:10:ab:e8:96:c1:87:82:97:
                    99:8f:20:d3:99:12:37:31:84:e1:8a:ff:29:03:5f:
                    22:90:3e:7f:9b:e0:20:c1:ad:dc:ae:4c:39:1a:31:
                    96:17:02:8c:b2:d9:b4:0d:20:12:9b:7d:86:54:fd:
                    33:fd:c1:2a:62:46:f8:60:96:cf:6e:01:6f:22:df:
                    13:47:e7:97:ec:05:72:23:a3:62:f8:fa:ef:ac:9c:
                    72:f0:37:cb:2f:37:cf:90:a8:27:51:86:c6:d7:78:
                    08:8f:7e:25:a2:15:70:a2:fb:1c:b6:15:5e:a0:97:
                    8b:81:4c:09:28:8a:27:3b:94:bc:71:db:5b:71:37:
                    9a:2b:16:e0:6f:b5:c9:f5:4b:4f:20:ba:65:cf:af:
                    ad:ad
                Exponent: 65537 (0x10001)
        X509v3 extensions:
            X509v3 Key Usage: 
                Digital Signature, Key Encipherment
            X509v3 Basic Constraints: 
                CA:FALSE
            Netscape Cert Type: 
                SSL Server
            Netscape Comment: 
                OpenSSL Generated Server Certificate
            X509v3 Subject Key Identifier: 
                E5:25:6D:3E:AF:0D:DD:3F:4C:F2:45:19:39:D5:14:DB:7E:9C:C0:AD
            X509v3 Authority Key Identifier: 
                keyid:F4:A7:C0:CC:91:46:AF:64:F3:91:F2:27:F8:C8:B2:6F:8A:87:32:73
                DirName:/C=DE/ST=Hessen/O=privacyidea/CN=CA001
                serial:FB:C8:EB:AC:83:CD:12:07

            X509v3 Extended Key Usage: 
                TLS Web Server Authentication
    Signature Algorithm: sha256WithRSAEncryption
         aa:ee:e1:ca:7c:24:e1:34:b8:8b:61:6d:0d:80:c7:85:29:65:
         cf:c1:11:94:a6:78:7c:73:c9:f1:56:4c:91:af:5b:b6:08:9e:
         e1:5e:a6:ee:11:10:b4:1b:b6:b9:9e:17:c4:b0:73:bf:a9:bf:
         0a:1b:7c:24:73:e6:61:6a:c3:62:89:d6:eb:0a:e8:74:74:1b:
         57:b3:78:99:ef:91:35:3c:90:55:2f:fb:43:66:50:61:81:85:
         a7:42:f4:a6:41:21:ea:67:cb:0c:8f:a8:cb:d8:8d:30:5c:2e:
         cb:44:c6:1d:e0:7b:8b:eb:30:62:33:8b:75:33:5a:48:dc:a3:
         bb:12:b5:f8:3d:20:7d:75:f0:7e:72:a0:86:3c:b9:54:85:cb:
         09:b0:63:66:df:5b:90:90:df:3d:79:18:97:63:a9:36:fa:b3:
         d2:3e:60:80:d6:95:fe:25:fa:ed:99:b3:6e:94:bc:43:c7:16:
         db:b1:b1:ed:e6:cc:71:5e:7f:79:a5:fa:bf:fd:0d:77:ef:76:
         bf:e4:d0:78:65:b1:f2:10:44:22:21:16:0a:8b:d9:b7:ef:59:
         a8:c0:f1:2b:82:b0:6f:48:93:bb:52:84:3c:6f:0a:42:68:0c:
         ec:88:87:43:90:3b:e2:18:14:09:5a:f4:59:4a:89:ff:b7:ab:
         d2:10:1e:db
-----BEGIN CERTIFICATE-----
MIIECTCCAvGgAwIBAgIEEAAA9jANBgkqhkiG9w0BAQsFADBEMQswCQYDVQQGEwJE
RTEPMA0GA1UECAwGSGVzc2VuMRQwEgYDVQQKDAtwcml2YWN5aWRlYTEOMAwGA1UE
AwwFQ0EwMDEwHhcNMTkwODE0MjEyMzE5WhcNMjEwOTAyMjEyMzE5WjA3MRMwEQYD
VQQDDApTdGV2ZSBUZXN0MSAwHgYJKoZIhvcNAQkBFhFzdGV2ZUBvcGVuc3NsLm9y
ZzCCASIwDQYJKoZIhvcNAQEBBQADggEPADCCAQoCggEBANKBiSBRSA9z9BEyJNUf
HP1c9bbmxfBSgdzSr2ZKfJMxYVyv0W0GcANgfHIMiN1JzZ4CbNJa11MP89q+aWS1
DwwA47NQR6Ozm7oTUNZYWkurOeARygonZwN4ImZtkh4bXEmu5mvRjjudBtPGrE1T
QxCr6JbBh4KXmY8g05kSNzGE4Yr/KQNfIpA+f5vgIMGt3K5MORoxlhcCjLLZtA0g
Ept9hlT9M/3BKmJG+GCWz24BbyLfE0fnl+wFciOjYvj676yccvA3yy83z5CoJ1GG
xtd4CI9+JaIVcKL7HLYVXqCXi4FMCSiKJzuUvHHbW3E3misW4G+1yfVLTyC6Zc+v
ra0CAwEAAaOCAQ4wggEKMAsGA1UdDwQEAwIFoDAJBgNVHRMEAjAAMBEGCWCGSAGG
+EIBAQQEAwIGQDAzBglghkgBhvhCAQ0EJhYkT3BlblNTTCBHZW5lcmF0ZWQgU2Vy
dmVyIENlcnRpZmljYXRlMB0GA1UdDgQWBBTlJW0+rw3dP0zyRRk51RTbfpzArTB0
BgNVHSMEbTBrgBT0p8DMkUavZPOR8if4yLJviocyc6FIpEYwRDELMAkGA1UEBhMC
REUxDzANBgNVBAgMBkhlc3NlbjEUMBIGA1UECgwLcHJpdmFjeWlkZWExDjAMBgNV
BAMMBUNBMDAxggkA+8jrrIPNEgcwEwYDVR0lBAwwCgYIKwYBBQUHAwEwDQYJKoZI
hvcNAQELBQADggEBAKru4cp8JOE0uIthbQ2Ax4UpZc/BEZSmeHxzyfFWTJGvW7YI
nuFepu4RELQbtrmeF8Swc7+pvwobfCRz5mFqw2KJ1usK6HR0G1ezeJnvkTU8kFUv
+0NmUGGBhadC9KZBIepnywyPqMvYjTBcLstExh3ge4vrMGIzi3UzWkjco7sStfg9
IH118H5yoIY8uVSFywmwY2bfW5CQ3z15GJdjqTb6s9I+YIDWlf4l+u2Zs26UvEPH
Ftuxse3mzHFef3ml+r/9DXfvdr/k0HhlsfIQRCIhFgqL2bfvWajA8SuCsG9Ik7tS
hDxvCkJoDOyIh0OQO+IYFAla9FlKif+3q9IQHts=
-----END CERTIFICATE-----
