Certificate:
    Data:
        Version: 3 (0x2)
        Serial Number: 268435694 (0x100000ee)
        Signature Algorithm: sha256WithRSAEncryption
        Issuer: C=DE, ST=Hessen, O=privacyidea, CN=CA001
        Validity
            Not Before: Oct 24 12:53:44 2019 GMT
            Not After : Oct 23 12:53:44 2020 GMT
        Subject: C=DE, ST=Hessen, O=privacyidea, CN=requester.localdomain
        Subject Public Key Info:
            Public Key Algorithm: rsaEncryption
                RSA Public-Key: (2048 bit)
                Modulus:
                    00:cd:be:14:4f:fa:ce:01:3f:42:22:1b:1d:9c:af:
                    dd:92:d2:7f:db:6c:b7:3e:39:43:43:6b:13:03:f1:
                    05:f4:07:74:bc:76:69:28:0b:af:19:8e:d7:fc:e3:
                    cd:c6:58:f2:ca:7f:08:6d:53:fc:07:02:44:24:c6:
                    b4:34:4c:8c:04:fe:33:0e:40:e2:20:ba:02:73:5a:
                    f7:f5:4f:63:6e:cc:c6:b6:df:54:1d:37:39:7d:51:
                    36:26:5f:bd:dc:3f:a8:8b:6b:a2:ae:b6:9d:d6:21:
                    e7:df:41:b8:7a:28:2a:68:48:ca:a8:2d:ed:e1:e9:
                    46:5e:5a:72:6d:b4:84:38:87:91:fd:94:11:0b:28:
                    84:c6:c2:2f:2a:fb:01:f9:36:7a:09:75:d1:33:88:
                    3c:73:41:5b:c8:bf:94:89:70:a1:f0:c0:b9:2e:50:
                    53:1e:b1:17:64:69:f4:2d:81:e0:a9:0d:0e:32:e9:
                    ba:55:8a:85:f1:1b:6f:49:79:b4:7f:88:c3:0d:3e:
                    54:88:9b:3d:1f:38:8c:04:f3:ee:6a:63:2b:f5:c6:
                    db:b4:83:aa:c4:78:41:3a:7d:4b:e1:c8:3e:71:ca:
                    1b:61:59:ea:c6:c4:ca:32:5e:c9:e9:bf:12:29:e6:
                    c6:c3:63:fe:a0:55:da:7a:f1:60:98:4d:26:ed:fa:
                    70:2d
                Exponent: 65537 (0x10001)
        X509v3 extensions:
            X509v3 Key Usage: 
                Digital Signature, Key Encipherment
            X509v3 Basic Constraints: 
                CA:FALSE
            Netscape Cert Type: 
                SSL Server
            Netscape Comment: 
                OpenSSL Generated Server Certificate
            X509v3 Subject Key Identifier: 
                53:3F:ED:5D:09:07:B3:65:7B:AB:45:C9:24:5B:09:77:80:0A:96:ED
            X509v3 Authority Key Identifier: 
                keyid:F4:A7:C0:CC:91:46:AF:64:F3:91:F2:27:F8:C8:B2:6F:8A:87:32:73
                DirName:/C=DE/ST=Hessen/O=privacyidea/CN=CA001
                serial:FB:C8:EB:AC:83:CD:12:07

            X509v3 Extended Key Usage: 
                TLS Web Server Authentication
    Signature Algorithm: sha256WithRSAEncryption
         53:1b:10:14:2c:e8:c7:a5:05:ed:ba:0d:ed:56:56:77:a5:5f:
         d0:66:9c:46:dd:3a:8a:33:70:80:62:a2:d0:91:b0:8d:f7:98:
         4c:cb:13:bd:f3:93:c7:5b:b0:e3:77:58:41:c4:28:97:62:0e:
         92:d4:fb:f5:e4:80:ff:d3:85:56:8a:5a:01:34:11:51:f9:ca:
         09:1f:56:30:bf:72:10:dc:c3:cf:bf:bc:67:ff:56:86:f9:07:
         22:a8:3f:2b:2b:68:50:93:40:5e:1a:93:f2:b6:7d:24:11:8b:
         75:e6:92:4b:9e:a8:35:50:15:30:29:7b:99:7c:94:68:bb:17:
         ef:96:58:ed:0c:e8:e3:c5:a0:80:63:e3:1c:9a:86:29:bd:1b:
         6d:7b:5c:97:93:3f:f7:9f:2d:52:dc:75:90:b5:ec:6a:52:ef:
         24:7b:29:7f:24:72:4d:e6:97:87:f3:87:9d:30:8a:c4:15:ae:
         a3:73:bb:57:3c:2f:73:75:f0:2a:a1:57:b6:db:d6:ae:6f:0d:
         32:87:b1:54:c1:a0:7a:5c:7f:52:53:3c:40:89:9e:e1:31:e8:
         2f:8d:31:91:cc:bb:55:41:4e:84:69:0d:99:14:80:e8:7c:41:
         dd:6b:14:e6:f1:88:b9:3b:47:a4:b5:5c:35:1b:07:07:ec:f6:
         fd:d6:fd:6c
-----BEGIN CERTIFICATE-----
MIIEJjCCAw6gAwIBAgIEEAAA7jANBgkqhkiG9w0BAQsFADBEMQswCQYDVQQGEwJE
RTEPMA0GA1UECAwGSGVzc2VuMRQwEgYDVQQKDAtwcml2YWN5aWRlYTEOMAwGA1UE
AwwFQ0EwMDEwHhcNMTkxMDI0MTI1MzQ0WhcNMjAxMDIzMTI1MzQ0WjBUMQswCQYD
VQQGEwJERTEPMA0GA1UECAwGSGVzc2VuMRQwEgYDVQQKDAtwcml2YWN5aWRlYTEe
MBwGA1UEAwwVcmVxdWVzdGVyLmxvY2FsZG9tYWluMIIBIjANBgkqhkiG9w0BAQEF
AAOCAQ8AMIIBCgKCAQEAzb4UT/rOAT9CIhsdnK/dktJ/22y3PjlDQ2sTA/EF9Ad0
vHZpKAuvGY7X/OPNxljyyn8IbVP8BwJEJMa0NEyMBP4zDkDiILoCc1r39U9jbszG
tt9UHTc5fVE2Jl+93D+oi2uirrad1iHn30G4eigqaEjKqC3t4elGXlpybbSEOIeR
/ZQRCyiExsIvKvsB+TZ6CXXRM4g8c0FbyL+UiXCh8MC5LlBTHrEXZGn0LYHgqQ0O
Mum6VYqF8RtvSXm0f4jDDT5UiJs9HziMBPPuamMr9cbbtIOqxHhBOn1L4cg+ccob
YVnqxsTKMl7J6b8SKebGw2P+oFXaevFgmE0m7fpwLQIDAQABo4IBDjCCAQowCwYD
VR0PBAQDAgWgMAkGA1UdEwQCMAAwEQYJYIZIAYb4QgEBBAQDAgZAMDMGCWCGSAGG
+EIBDQQmFiRPcGVuU1NMIEdlbmVyYXRlZCBTZXJ2ZXIgQ2VydGlmaWNhdGUwHQYD
VR0OBBYEFFM/7V0JB7Nle6tFySRbCXeACpbtMHQGA1UdIwRtMGuAFPSnwMyRRq9k
85HyJ/jIsm+KhzJzoUikRjBEMQswCQYDVQQGEwJERTEPMA0GA1UECAwGSGVzc2Vu
MRQwEgYDVQQKDAtwcml2YWN5aWRlYTEOMAwGA1UEAwwFQ0EwMDGCCQD7yOusg80S
BzATBgNVHSUEDDAKBggrBgEFBQcDATANBgkqhkiG9w0BAQsFAAOCAQEAUxsQFCzo
x6UF7boN7VZWd6Vf0GacRt06ijNwgGKi0JGwjfeYTMsTvfOTx1uw43dYQcQol2IO
ktT79eSA/9OFVopaATQRUfnKCR9WML9yENzDz7+8Z/9WhvkHIqg/KytoUJNAXhqT
8rZ9JBGLdeaSS56oNVAVMCl7mXyUaLsX75ZY7Qzo48WggGPjHJqGKb0bbXtcl5M/
958tUtx1kLXsalLvJHspfyRyTeaXh/OHnTCKxBWuo3O7Vzwvc3XwKqFXttvWrm8N
MoexVMGgelx/UlM8QIme4THoL40xkcy7VUFOhGkNmRSA6HxB3WsU5vGIuTtHpLVc
NRsHB+z2/db9bA==
-----END CERTIFICATE-----
