Certificate:
    Data:
        Version: 3 (0x2)
        Serial Number: 268435620 (0x100000a4)
    Signature Algorithm: sha1WithRSAEncryption
        Issuer: C=DE, ST=Hessen, O=privacyidea, CN=CA001
        Validity
            Not Before: Sep 12 08:32:06 2015 GMT
            Not After : Sep 11 08:32:06 2016 GMT
        Subject: C=DE, ST=Hessen, O=privacyidea, CN=requester.localdomain
        Subject Public Key Info:
            Public Key Algorithm: rsaEncryption
                Public-Key: (2048 bit)
                Modulus:
                    00:cd:be:14:4f:fa:ce:01:3f:42:22:1b:1d:9c:af:
                    dd:92:d2:7f:db:6c:b7:3e:39:43:43:6b:13:03:f1:
                    05:f4:07:74:bc:76:69:28:0b:af:19:8e:d7:fc:e3:
                    cd:c6:58:f2:ca:7f:08:6d:53:fc:07:02:44:24:c6:
                    b4:34:4c:8c:04:fe:33:0e:40:e2:20:ba:02:73:5a:
                    f7:f5:4f:63:6e:cc:c6:b6:df:54:1d:37:39:7d:51:
                    36:26:5f:bd:dc:3f:a8:8b:6b:a2:ae:b6:9d:d6:21:
                    e7:df:41:b8:7a:28:2a:68:48:ca:a8:2d:ed:e1:e9:
                    46:5e:5a:72:6d:b4:84:38:87:91:fd:94:11:0b:28:
                    84:c6:c2:2f:2a:fb:01:f9:36:7a:09:75:d1:33:88:
                    3c:73:41:5b:c8:bf:94:89:70:a1:f0:c0:b9:2e:50:
                    53:1e:b1:17:64:69:f4:2d:81:e0:a9:0d:0e:32:e9:
                    ba:55:8a:85:f1:1b:6f:49:79:b4:7f:88:c3:0d:3e:
                    54:88:9b:3d:1f:38:8c:04:f3:ee:6a:63:2b:f5:c6:
                    db:b4:83:aa:c4:78:41:3a:7d:4b:e1:c8:3e:71:ca:
                    1b:61:59:ea:c6:c4:ca:32:5e:c9:e9:bf:12:29:e6:
                    c6:c3:63:fe:a0:55:da:7a:f1:60:98:4d:26:ed:fa:
                    70:2d
                Exponent: 65537 (0x10001)
        X509v3 extensions:
            X509v3 Key Usage: 
                Digital Signature, Key Encipherment
            X509v3 Basic Constraints: 
                CA:FALSE
            Netscape Cert Type: 
                SSL Server
            Netscape Comment: 
                OpenSSL Generated Server Certificate
            X509v3 Subject Key Identifier: 
                53:3F:ED:5D:09:07:B3:65:7B:AB:45:C9:24:5B:09:77:80:0A:96:ED
            X509v3 Authority Key Identifier: 
                keyid:F4:A7:C0:CC:91:46:AF:64:F3:91:F2:27:F8:C8:B2:6F:8A:87:32:73
                DirName:/C=DE/ST=Hessen/O=privacyidea/CN=CA001
                serial:FB:C8:EB:AC:83:CD:12:07

            X509v3 Extended Key Usage: 
                TLS Web Server Authentication
    Signature Algorithm: sha1WithRSAEncryption
         4b:09:73:fe:da:15:1b:1a:f4:e9:de:6a:1e:5e:36:a9:6b:1c:
         33:ec:ff:25:bb:a0:66:51:e5:1f:b9:ec:b8:08:e5:2f:39:f3:
         f0:2b:2d:fe:e7:1b:c8:df:a6:37:ca:85:ce:63:e5:50:33:f3:
         2f:d1:d2:c9:cd:f8:6b:b8:fc:31:90:19:8a:13:53:9b:04:e9:
         e1:b1:66:e6:40:1e:14:fb:b8:12:69:e6:6d:40:29:a0:ab:50:
         17:a4:f1:83:18:69:b3:c2:c4:63:1c:f5:52:c9:1b:30:e7:75:
         34:fb:75:7d:47:99:4a:6c:d4:d8:b6:82:36:bf:7c:1d:a6:3a:
         ad:16:2c:da:c0:de:25:b0:8b:50:77:99:ac:ef:57:3b:22:3a:
         74:15:84:56:03:53:e1:29:32:47:fe:47:bf:aa:be:9f:a8:e9:
         32:af:8d:0a:6e:f5:fc:e6:31:b9:8b:d6:b2:c5:e5:6b:75:f4:
         50:04:c2:f7:4f:75:e4:a4:80:81:ef:0d:18:da:62:ca:9b:b6:
         04:41:85:fa:5e:a2:e7:13:9e:6f:78:89:dc:50:80:84:d3:7c:
         03:03:8a:a0:60:10:32:c4:9e:d9:17:d7:ae:3c:e7:32:f0:ef:
         49:0e:66:8f:b0:83:b5:5c:f3:eb:66:61:36:ab:59:0e:cd:e8:
         57:34:7c:d5
-----BEGIN CERTIFICATE-----
MIIEJjCCAw6gAwIBAgIEEAAApDANBgkqhkiG9w0BAQUFADBEMQswCQYDVQQGEwJE
RTEPMA0GA1UECAwGSGVzc2VuMRQwEgYDVQQKDAtwcml2YWN5aWRlYTEOMAwGA1UE
AwwFQ0EwMDEwHhcNMTUwOTEyMDgzMjA2WhcNMTYwOTExMDgzMjA2WjBUMQswCQYD
VQQGEwJERTEPMA0GA1UECAwGSGVzc2VuMRQwEgYDVQQKDAtwcml2YWN5aWRlYTEe
MBwGA1UEAwwVcmVxdWVzdGVyLmxvY2FsZG9tYWluMIIBIjANBgkqhkiG9w0BAQEF
AAOCAQ8AMIIBCgKCAQEAzb4UT/rOAT9CIhsdnK/dktJ/22y3PjlDQ2sTA/EF9Ad0
vHZpKAuvGY7X/OPNxljyyn8IbVP8BwJEJMa0NEyMBP4zDkDiILoCc1r39U9jbszG
tt9UHTc5fVE2Jl+93D+oi2uirrad1iHn30G4eigqaEjKqC3t4elGXlpybbSEOIeR
/ZQRCyiExsIvKvsB+TZ6CXXRM4g8c0FbyL+UiXCh8MC5LlBTHrEXZGn0LYHgqQ0O
Mum6VYqF8RtvSXm0f4jDDT5UiJs9HziMBPPuamMr9cbbtIOqxHhBOn1L4cg+ccob
YVnqxsTKMl7J6b8SKebGw2P+oFXaevFgmE0m7fpwLQIDAQABo4IBDjCCAQowCwYD
VR0PBAQDAgWgMAkGA1UdEwQCMAAwEQYJYIZIAYb4QgEBBAQDAgZAMDMGCWCGSAGG
+EIBDQQmFiRPcGVuU1NMIEdlbmVyYXRlZCBTZXJ2ZXIgQ2VydGlmaWNhdGUwHQYD
VR0OBBYEFFM/7V0JB7Nle6tFySRbCXeACpbtMHQGA1UdIwRtMGuAFPSnwMyRRq9k
85HyJ/jIsm+KhzJzoUikRjBEMQswCQYDVQQGEwJERTEPMA0GA1UECAwGSGVzc2Vu
MRQwEgYDVQQKDAtwcml2YWN5aWRlYTEOMAwGA1UEAwwFQ0EwMDGCCQD7yOusg80S
BzATBgNVHSUEDDAKBggrBgEFBQcDATANBgkqhkiG9w0BAQUFAAOCAQEASwlz/toV
Gxr06d5qHl42qWscM+z/JbugZlHlH7nsuAjlLznz8Cst/ucbyN+mN8qFzmPlUDPz
L9HSyc34a7j8MZAZihNTmwTp4bFm5kAeFPu4EmnmbUApoKtQF6Txgxhps8LEYxz1
UskbMOd1NPt1fUeZSmzU2LaCNr98HaY6rRYs2sDeJbCLUHeZrO9XOyI6dBWEVgNT
4SkyR/5Hv6q+n6jpMq+NCm71/OYxuYvWssXla3X0UATC90915KSAge8NGNpiypu2
BEGF+l6i5xOeb3iJ3FCAhNN8AwOKoGAQMsSe2RfXrjznMvDvSQ5mj7CDtVzz62Zh
NqtZDs3oVzR81Q==
-----END CERTIFICATE-----
