Certificate:
    Data:
        Version: 3 (0x2)
        Serial Number: 268435627 (0x100000ab)
    Signature Algorithm: sha1WithRSAEncryption
        Issuer: C=DE, ST=Hessen, O=privacyidea, CN=CA001
        Validity
            Not Before: Sep 12 08:38:22 2015 GMT
            Not After : Sep 11 08:38:22 2016 GMT
        Subject: C=DE, ST=Hessen, O=privacyidea, CN=usercert
        Subject Public Key Info:
            Public Key Algorithm: rsaEncryption
                Public-Key: (2048 bit)
                Modulus:
                    00:dc:2f:d1:5f:29:97:d4:7c:c3:53:c8:30:bd:4b:
                    67:70:2c:24:6b:b8:5e:eb:21:7a:48:12:56:7c:81:
                    5c:48:75:b6:68:eb:f6:f2:98:4e:50:51:d1:7f:6c:
                    73:f3:0a:a7:ae:be:48:5e:e5:d6:e1:d9:2a:7c:32:
                    6e:4e:fd:08:f6:5a:54:49:23:73:c3:b9:07:18:d1:
                    ef:b3:ac:f8:8a:dc:94:96:a4:90:3a:8e:74:df:e6:
                    0d:37:1b:bd:5b:b7:25:1a:56:39:da:6f:91:aa:5e:
                    1c:74:f3:f9:7c:14:01:83:12:65:76:c7:bb:fe:36:
                    5b:95:e9:72:65:83:ed:3e:98:30:71:fa:87:dd:a3:
                    36:5a:30:03:2e:26:e0:61:d1:bf:02:3f:b6:06:1f:
                    4a:89:28:1c:5c:a2:ff:4e:be:94:e6:8c:e0:da:82:
                    f1:9d:29:32:48:30:73:b4:04:f6:42:1e:be:f7:e2:
                    32:32:27:3c:9d:89:2f:70:3e:85:9a:6f:5c:c5:09:
                    c0:8c:32:2f:72:22:c9:d2:95:1f:b6:ac:72:60:72:
                    b7:82:4d:6b:ce:5b:e3:00:d0:d2:2f:58:c6:e0:10:
                    e5:51:ca:4d:3b:2e:e6:7e:ab:84:d6:56:f1:93:35:
                    a0:93:64:26:81:75:2f:91:b5:16:06:38:0b:db:cc:
                    2d:07
                Exponent: 65537 (0x10001)
        X509v3 extensions:
            X509v3 Key Usage: 
                Digital Signature, Key Encipherment
            X509v3 Basic Constraints: 
                CA:FALSE
            Netscape Cert Type: 
                SSL Server
            Netscape Comment: 
                OpenSSL Generated Server Certificate
            X509v3 Subject Key Identifier: 
                FC:14:D1:F0:4B:8D:00:90:F2:F5:B8:71:9E:4E:97:C3:92:54:AD:0B
            X509v3 Authority Key Identifier: 
                keyid:F4:A7:C0:CC:91:46:AF:64:F3:91:F2:27:F8:C8:B2:6F:8A:87:32:73
                DirName:/C=DE/ST=Hessen/O=privacyidea/CN=CA001
                serial:FB:C8:EB:AC:83:CD:12:07

            X509v3 Extended Key Usage: 
                TLS Web Server Authentication
    Signature Algorithm: sha1WithRSAEncryption
         08:3a:4e:18:28:a2:d4:55:dd:da:34:0d:85:71:ca:4c:a0:44:
         f6:76:a2:59:c6:32:d1:bb:2a:37:6b:96:b4:7f:6d:d3:40:75:
         85:0f:31:09:3a:8b:c2:ed:ae:e7:ae:1f:11:45:2f:e0:eb:d2:
         23:f6:e4:d9:23:76:80:c2:18:bf:f3:49:52:d7:5b:c1:41:2a:
         91:09:68:fb:8b:76:ff:0b:63:b8:87:68:07:59:c3:a5:ac:4d:
         bc:f5:a6:2f:6a:ff:73:f4:53:94:c7:2a:0b:43:0d:6a:68:98:
         a9:25:a0:ec:9a:4a:52:7a:46:82:38:96:a1:96:75:fc:ea:de:
         09:88:ce:55:86:44:78:07:66:44:cd:4c:62:57:97:44:53:34:
         c7:d6:19:4f:e3:83:d9:51:dd:eb:b1:3a:59:b3:57:7e:24:57:
         be:b2:a1:49:33:55:ff:25:ff:c7:2c:63:6f:d0:a3:31:56:77:
         22:3d:b0:ab:9d:e0:89:9e:1f:4f:dd:5f:14:96:bf:37:c1:de:
         77:ba:4e:90:4d:61:9c:6e:99:ed:4c:c8:a2:74:50:bb:f6:4a:
         96:d8:39:a5:58:a0:62:d1:8b:aa:93:18:2a:40:ce:ce:3e:a6:
         8b:10:04:27:4e:4a:5e:ab:60:d9:8f:e0:8b:0a:d4:4d:33:36:
         ac:31:d1:ae
-----BEGIN CERTIFICATE-----
MIIEGTCCAwGgAwIBAgIEEAAAqzANBgkqhkiG9w0BAQUFADBEMQswCQYDVQQGEwJE
RTEPMA0GA1UECAwGSGVzc2VuMRQwEgYDVQQKDAtwcml2YWN5aWRlYTEOMAwGA1UE
AwwFQ0EwMDEwHhcNMTUwOTEyMDgzODIyWhcNMTYwOTExMDgzODIyWjBHMQswCQYD
VQQGEwJERTEPMA0GA1UECAwGSGVzc2VuMRQwEgYDVQQKDAtwcml2YWN5aWRlYTER
MA8GA1UEAwwIdXNlcmNlcnQwggEiMA0GCSqGSIb3DQEBAQUAA4IBDwAwggEKAoIB
AQDcL9FfKZfUfMNTyDC9S2dwLCRruF7rIXpIElZ8gVxIdbZo6/bymE5QUdF/bHPz
Cqeuvkhe5dbh2Sp8Mm5O/Qj2WlRJI3PDuQcY0e+zrPiK3JSWpJA6jnTf5g03G71b
tyUaVjnab5GqXhx08/l8FAGDEmV2x7v+NluV6XJlg+0+mDBx+ofdozZaMAMuJuBh
0b8CP7YGH0qJKBxcov9OvpTmjODagvGdKTJIMHO0BPZCHr734jIyJzydiS9wPoWa
b1zFCcCMMi9yIsnSlR+2rHJgcreCTWvOW+MA0NIvWMbgEOVRyk07LuZ+q4TWVvGT
NaCTZCaBdS+RtRYGOAvbzC0HAgMBAAGjggEOMIIBCjALBgNVHQ8EBAMCBaAwCQYD
VR0TBAIwADARBglghkgBhvhCAQEEBAMCBkAwMwYJYIZIAYb4QgENBCYWJE9wZW5T
U0wgR2VuZXJhdGVkIFNlcnZlciBDZXJ0aWZpY2F0ZTAdBgNVHQ4EFgQU/BTR8EuN
AJDy9bhxnk6Xw5JUrQswdAYDVR0jBG0wa4AU9KfAzJFGr2TzkfIn+Miyb4qHMnOh
SKRGMEQxCzAJBgNVBAYTAkRFMQ8wDQYDVQQIDAZIZXNzZW4xFDASBgNVBAoMC3By
aXZhY3lpZGVhMQ4wDAYDVQQDDAVDQTAwMYIJAPvI66yDzRIHMBMGA1UdJQQMMAoG
CCsGAQUFBwMBMA0GCSqGSIb3DQEBBQUAA4IBAQAIOk4YKKLUVd3aNA2FccpMoET2
dqJZxjLRuyo3a5a0f23TQHWFDzEJOovC7a7nrh8RRS/g69Ij9uTZI3aAwhi/80lS
11vBQSqRCWj7i3b/C2O4h2gHWcOlrE289aYvav9z9FOUxyoLQw1qaJipJaDsmkpS
ekaCOJahlnX86t4JiM5VhkR4B2ZEzUxiV5dEUzTH1hlP44PZUd3rsTpZs1d+JFe+
sqFJM1X/Jf/HLGNv0KMxVnciPbCrneCJnh9P3V8Ulr83wd53uk6QTWGcbpntTMii
dFC79kqW2DmlWKBi0YuqkxgqQM7OPqaLEAQnTkpeq2DZj+CLCtRNMzasMdGu
-----END CERTIFICATE-----
