Certificate:
    Data:
        Version: 3 (0x2)
        Serial Number: 268435606 (0x10000096)
    Signature Algorithm: sha1WithRSAEncryption
        Issuer: C=DE, ST=Hessen, O=privacyidea, CN=CA001
        Validity
            Not Before: Jun 15 13:11:18 2015 GMT
            Not After : Jun 14 13:11:18 2016 GMT
        Subject: CN=selfservice,CN=user,O=realm1/emailAddress=meine
        Subject Public Key Info:
            Public Key Algorithm: rsaEncryption
                Public-Key: (2048 bit)
                Modulus:
                    00:cf:3c:d4:33:0e:12:c4:e6:da:cd:b6:56:a1:1c:
                    26:bb:26:1c:8a:4a:73:a8:58:8a:b6:1e:b3:8b:99:
                    d2:1d:07:c2:92:89:79:c0:69:d8:c8:df:28:61:98:
                    1e:b3:fe:ae:2b:bd:78:a9:f7:6e:47:dc:a3:a0:16:
                    8c:85:02:c1:4e:92:fd:72:6e:f0:c8:03:29:9b:b8:
                    00:6e:c0:83:95:c8:34:20:36:9c:b3:e5:e4:e6:76:
                    73:a3:1a:ad:40:96:e0:53:54:00:ec:76:79:9a:c6:
                    0d:7e:b6:bd:29:ec:83:f3:cb:89:a4:cb:6c:00:ba:
                    0c:c5:78:0f:ff:69:b8:94:f4:04:70:43:3f:d8:9e:
                    d7:a7:fb:5d:ce:75:8e:da:e7:c4:07:b1:9d:de:6f:
                    88:4b:b6:4d:9a:cf:f9:bc:fa:9f:cd:32:6d:f6:3a:
                    0b:0d:23:42:78:ec:97:42:bf:0e:4d:60:56:e1:d3:
                    02:f2:19:cb:84:57:90:e5:70:a1:a2:83:35:86:e2:
                    da:86:9f:f9:8a:c4:79:b3:52:28:da:cb:bb:34:ca:
                    d3:da:91:4a:cf:8d:76:a2:b2:6b:9b:f9:96:fd:09:
                    2a:da:11:23:4d:f0:cb:d6:b2:b1:0e:12:6c:9a:19:
                    65:98:87:ca:e4:ee:24:ce:44:ac:90:8f:9d:1b:c5:
                    2a:9d
                Exponent: 65537 (0x10001)
        X509v3 extensions:
            X509v3 Key Usage: 
                Digital Signature, Key Encipherment
            X509v3 Basic Constraints: 
                CA:FALSE
            Netscape Cert Type: 
                SSL Server
            Netscape Comment: 
                OpenSSL Generated Server Certificate
            X509v3 Subject Key Identifier: 
                4D:07:90:AD:FF:1D:0D:E7:1A:DD:D6:2E:FA:BA:34:CB:AA:1F:24:C6
            X509v3 Authority Key Identifier: 
                keyid:F4:A7:C0:CC:91:46:AF:64:F3:91:F2:27:F8:C8:B2:6F:8A:87:32:73
                DirName:/C=DE/ST=Hessen/O=privacyidea/CN=CA001
                serial:FB:C8:EB:AC:83:CD:12:07

            X509v3 Extended Key Usage: 
                TLS Web Server Authentication
    Signature Algorithm: sha1WithRSAEncryption
         9f:8f:1f:a5:8c:d3:65:81:d9:51:c2:88:31:90:de:b7:d7:6b:
         3c:8e:48:a4:e1:18:05:f5:fd:dd:c3:f9:6a:bc:bd:73:72:90:
         b1:a1:67:2f:13:54:b9:f3:e3:c4:ec:64:4b:8d:cb:5c:6b:08:
         72:0e:40:5c:5a:3c:6f:30:01:f3:76:c9:e0:1e:57:e1:d0:36:
         4c:ee:26:13:63:b1:59:33:22:3d:71:1d:a8:eb:d6:3d:5f:6a:
         6f:51:db:22:ac:a4:d0:03:c7:72:b0:09:b7:d0:ef:f8:a3:41:
         20:6d:1e:63:53:8f:69:7d:8a:32:b4:3d:7e:54:68:ed:63:f9:
         24:db:32:1f:bd:37:f8:de:fe:32:e5:7b:00:71:a2:fa:22:7d:
         a1:9a:66:18:32:f5:ac:15:97:d7:35:c6:22:d5:f5:21:8c:63:
         8d:59:f4:58:f3:e0:d6:d2:20:6b:9d:6c:63:84:a5:e8:73:4b:
         bf:55:16:e8:93:13:f7:19:a2:81:de:f3:39:c1:92:cc:9a:ad:
         67:19:e6:bb:1f:41:73:73:44:1e:35:4e:e0:a3:04:08:86:92:
         21:d8:47:fe:85:5b:2d:a4:cc:3e:e8:1c:a4:60:6c:90:25:b8:
         65:77:c2:46:dd:eb:07:e4:80:e1:87:bd:d0:9e:9e:41:55:f0:
         c5:b3:d2:83
-----BEGIN CERTIFICATE-----
MIIEDzCCAvegAwIBAgIEEAAAljANBgkqhkiG9w0BAQUFADBEMQswCQYDVQQGEwJE
RTEPMA0GA1UECAwGSGVzc2VuMRQwEgYDVQQKDAtwcml2YWN5aWRlYTEOMAwGA1UE
AwwFQ0EwMDEwHhcNMTUwNjE1MTMxMTE4WhcNMTYwNjE0MTMxMTE4WjA9MSUwIwYD
VQQDExxzZWxmc2VydmljZSxDTj11c2VyLE89cmVhbG0xMRQwEgYJKoZIhvcNAQkB
FgVtZWluZTCCASIwDQYJKoZIhvcNAQEBBQADggEPADCCAQoCggEBAM881DMOEsTm
2s22VqEcJrsmHIpKc6hYirYes4uZ0h0HwpKJecBp2MjfKGGYHrP+riu9eKn3bkfc
o6AWjIUCwU6S/XJu8MgDKZu4AG7Ag5XINCA2nLPl5OZ2c6MarUCW4FNUAOx2eZrG
DX62vSnsg/PLiaTLbAC6DMV4D/9puJT0BHBDP9ie16f7Xc51jtrnxAexnd5viEu2
TZrP+bz6n80ybfY6Cw0jQnjsl0K/Dk1gVuHTAvIZy4RXkOVwoaKDNYbi2oaf+YrE
ebNSKNrLuzTK09qRSs+NdqKya5v5lv0JKtoRI03wy9aysQ4SbJoZZZiHyuTuJM5E
rJCPnRvFKp0CAwEAAaOCAQ4wggEKMAsGA1UdDwQEAwIFoDAJBgNVHRMEAjAAMBEG
CWCGSAGG+EIBAQQEAwIGQDAzBglghkgBhvhCAQ0EJhYkT3BlblNTTCBHZW5lcmF0
ZWQgU2VydmVyIENlcnRpZmljYXRlMB0GA1UdDgQWBBRNB5Ct/x0N5xrd1i76ujTL
qh8kxjB0BgNVHSMEbTBrgBT0p8DMkUavZPOR8if4yLJviocyc6FIpEYwRDELMAkG
A1UEBhMCREUxDzANBgNVBAgMBkhlc3NlbjEUMBIGA1UECgwLcHJpdmFjeWlkZWEx
DjAMBgNVBAMMBUNBMDAxggkA+8jrrIPNEgcwEwYDVR0lBAwwCgYIKwYBBQUHAwEw
DQYJKoZIhvcNAQEFBQADggEBAJ+PH6WM02WB2VHCiDGQ3rfXazyOSKThGAX1/d3D
+Wq8vXNykLGhZy8TVLnz48TsZEuNy1xrCHIOQFxaPG8wAfN2yeAeV+HQNkzuJhNj
sVkzIj1xHajr1j1fam9R2yKspNADx3KwCbfQ7/ijQSBtHmNTj2l9ijK0PX5UaO1j
+STbMh+9N/je/jLlewBxovoifaGaZhgy9awVl9c1xiLV9SGMY41Z9Fjz4NbSIGud
bGOEpehzS79VFuiTE/cZooHe8znBksyarWcZ5rsfQXNzRB41TuCjBAiGkiHYR/6F
Wy2kzD7oHKRgbJAluGV3wkbd6wfkgOGHvdCenkFV8MWz0oM=
-----END CERTIFICATE-----
