Certificate:
    Data:
        Version: 3 (0x2)
        Serial Number: 268435650 (0x100000c2)
    Signature Algorithm: sha1WithRSAEncryption
        Issuer: C=DE, ST=Hessen, O=privacyidea, CN=CA001
        Validity
            Not Before: Jan 16 16:19:00 2016 GMT
            Not After : Jan 15 16:19:00 2017 GMT
        Subject: C=DE, ST=Hessen, O=privacyidea, CN=requester.localdomain
        Subject Public Key Info:
            Public Key Algorithm: rsaEncryption
                Public-Key: (2048 bit)
                Modulus:
                    00:cd:be:14:4f:fa:ce:01:3f:42:22:1b:1d:9c:af:
                    dd:92:d2:7f:db:6c:b7:3e:39:43:43:6b:13:03:f1:
                    05:f4:07:74:bc:76:69:28:0b:af:19:8e:d7:fc:e3:
                    cd:c6:58:f2:ca:7f:08:6d:53:fc:07:02:44:24:c6:
                    b4:34:4c:8c:04:fe:33:0e:40:e2:20:ba:02:73:5a:
                    f7:f5:4f:63:6e:cc:c6:b6:df:54:1d:37:39:7d:51:
                    36:26:5f:bd:dc:3f:a8:8b:6b:a2:ae:b6:9d:d6:21:
                    e7:df:41:b8:7a:28:2a:68:48:ca:a8:2d:ed:e1:e9:
                    46:5e:5a:72:6d:b4:84:38:87:91:fd:94:11:0b:28:
                    84:c6:c2:2f:2a:fb:01:f9:36:7a:09:75:d1:33:88:
                    3c:73:41:5b:c8:bf:94:89:70:a1:f0:c0:b9:2e:50:
                    53:1e:b1:17:64:69:f4:2d:81:e0:a9:0d:0e:32:e9:
                    ba:55:8a:85:f1:1b:6f:49:79:b4:7f:88:c3:0d:3e:
                    54:88:9b:3d:1f:38:8c:04:f3:ee:6a:63:2b:f5:c6:
                    db:b4:83:aa:c4:78:41:3a:7d:4b:e1:c8:3e:71:ca:
                    1b:61:59:ea:c6:c4:ca:32:5e:c9:e9:bf:12:29:e6:
                    c6:c3:63:fe:a0:55:da:7a:f1:60:98:4d:26:ed:fa:
                    70:2d
                Exponent: 65537 (0x10001)
        X509v3 extensions:
            X509v3 Key Usage: 
                Digital Signature, Key Encipherment
            X509v3 Basic Constraints: 
                CA:FALSE
            Netscape Cert Type: 
                SSL Server
            Netscape Comment: 
                OpenSSL Generated Server Certificate
            X509v3 Subject Key Identifier: 
                53:3F:ED:5D:09:07:B3:65:7B:AB:45:C9:24:5B:09:77:80:0A:96:ED
            X509v3 Authority Key Identifier: 
                keyid:F4:A7:C0:CC:91:46:AF:64:F3:91:F2:27:F8:C8:B2:6F:8A:87:32:73
                DirName:/C=DE/ST=Hessen/O=privacyidea/CN=CA001
                serial:FB:C8:EB:AC:83:CD:12:07

            X509v3 Extended Key Usage: 
                TLS Web Server Authentication
    Signature Algorithm: sha1WithRSAEncryption
         6e:c2:ad:4a:a8:a8:cc:55:5e:8d:6c:6c:98:48:c3:1f:de:bf:
         ce:44:e4:8b:c5:24:ea:9d:16:20:37:07:ec:6a:69:19:f9:64:
         a0:f3:a5:c6:92:ff:d5:e0:db:63:20:03:7e:f1:29:ee:4d:d8:
         19:2a:b6:c7:e9:bc:7d:3b:9f:bc:06:02:73:5a:3b:8f:f5:66:
         0a:09:fd:fa:a9:4a:f4:3b:d6:57:ac:5f:67:58:0d:61:59:67:
         35:7e:00:b5:a1:c4:e3:a5:ca:59:f3:20:5c:10:4f:4f:46:95:
         48:57:8a:7c:b7:0e:91:b7:52:59:da:30:ff:f5:37:fa:7d:7e:
         29:a0:87:b6:a5:e4:81:58:fa:be:e6:96:8a:ac:e2:90:53:9b:
         58:07:ce:b0:4d:c3:3e:e8:29:78:44:a3:0a:39:4e:a4:e1:73:
         f9:9b:d0:46:ea:23:7a:f5:0e:b1:07:63:a3:a8:e9:7b:06:64:
         4e:b9:53:19:5d:24:51:6a:ff:c0:43:d0:1f:c7:3e:a8:b9:5e:
         83:41:a7:b2:19:7f:87:e3:66:ed:fe:6f:54:13:7d:7d:94:5a:
         24:70:ef:1c:e4:b1:22:28:3a:85:0a:16:db:1e:bb:ef:ff:6b:
         ca:76:96:e7:c2:54:80:cc:4f:6e:ab:48:bc:74:c1:22:55:df:
         d2:55:68:46
-----BEGIN CERTIFICATE-----
MIIEJjCCAw6gAwIBAgIEEAAAwjANBgkqhkiG9w0BAQUFADBEMQswCQYDVQQGEwJE
RTEPMA0GA1UECAwGSGVzc2VuMRQwEgYDVQQKDAtwcml2YWN5aWRlYTEOMAwGA1UE
AwwFQ0EwMDEwHhcNMTYwMTE2MTYxOTAwWhcNMTcwMTE1MTYxOTAwWjBUMQswCQYD
VQQGEwJERTEPMA0GA1UECAwGSGVzc2VuMRQwEgYDVQQKDAtwcml2YWN5aWRlYTEe
MBwGA1UEAwwVcmVxdWVzdGVyLmxvY2FsZG9tYWluMIIBIjANBgkqhkiG9w0BAQEF
AAOCAQ8AMIIBCgKCAQEAzb4UT/rOAT9CIhsdnK/dktJ/22y3PjlDQ2sTA/EF9Ad0
vHZpKAuvGY7X/OPNxljyyn8IbVP8BwJEJMa0NEyMBP4zDkDiILoCc1r39U9jbszG
tt9UHTc5fVE2Jl+93D+oi2uirrad1iHn30G4eigqaEjKqC3t4elGXlpybbSEOIeR
/ZQRCyiExsIvKvsB+TZ6CXXRM4g8c0FbyL+UiXCh8MC5LlBTHrEXZGn0LYHgqQ0O
Mum6VYqF8RtvSXm0f4jDDT5UiJs9HziMBPPuamMr9cbbtIOqxHhBOn1L4cg+ccob
YVnqxsTKMl7J6b8SKebGw2P+oFXaevFgmE0m7fpwLQIDAQABo4IBDjCCAQowCwYD
VR0PBAQDAgWgMAkGA1UdEwQCMAAwEQYJYIZIAYb4QgEBBAQDAgZAMDMGCWCGSAGG
+EIBDQQmFiRPcGVuU1NMIEdlbmVyYXRlZCBTZXJ2ZXIgQ2VydGlmaWNhdGUwHQYD
VR0OBBYEFFM/7V0JB7Nle6tFySRbCXeACpbtMHQGA1UdIwRtMGuAFPSnwMyRRq9k
85HyJ/jIsm+KhzJzoUikRjBEMQswCQYDVQQGEwJERTEPMA0GA1UECAwGSGVzc2Vu
MRQwEgYDVQQKDAtwcml2YWN5aWRlYTEOMAwGA1UEAwwFQ0EwMDGCCQD7yOusg80S
BzATBgNVHSUEDDAKBggrBgEFBQcDATANBgkqhkiG9w0BAQUFAAOCAQEAbsKtSqio
zFVejWxsmEjDH96/zkTki8Uk6p0WIDcH7GppGflkoPOlxpL/1eDbYyADfvEp7k3Y
GSq2x+m8fTufvAYCc1o7j/VmCgn9+qlK9DvWV6xfZ1gNYVlnNX4AtaHE46XKWfMg
XBBPT0aVSFeKfLcOkbdSWdow//U3+n1+KaCHtqXkgVj6vuaWiqzikFObWAfOsE3D
PugpeESjCjlOpOFz+ZvQRuojevUOsQdjo6jpewZkTrlTGV0kUWr/wEPQH8c+qLle
g0Gnshl/h+Nm7f5vVBN9fZRaJHDvHOSxIig6hQoW2x677/9rynaW58JUgMxPbqtI
vHTBIlXf0lVoRg==
-----END CERTIFICATE-----
