Certificate:
    Data:
        Version: 3 (0x2)
        Serial Number: 268435605 (0x10000095)
    Signature Algorithm: sha1WithRSAEncryption
        Issuer: C=DE, ST=Hessen, O=privacyidea, CN=CA001
        Validity
            Not Before: Jun 15 13:07:46 2015 GMT
            Not After : Jun 14 13:07:46 2016 GMT
        Subject: C=DE, ST=Hessen, O=privacyidea, CN=requester.localdomain
        Subject Public Key Info:
            Public Key Algorithm: rsaEncryption
                Public-Key: (2048 bit)
                Modulus:
                    00:cd:be:14:4f:fa:ce:01:3f:42:22:1b:1d:9c:af:
                    dd:92:d2:7f:db:6c:b7:3e:39:43:43:6b:13:03:f1:
                    05:f4:07:74:bc:76:69:28:0b:af:19:8e:d7:fc:e3:
                    cd:c6:58:f2:ca:7f:08:6d:53:fc:07:02:44:24:c6:
                    b4:34:4c:8c:04:fe:33:0e:40:e2:20:ba:02:73:5a:
                    f7:f5:4f:63:6e:cc:c6:b6:df:54:1d:37:39:7d:51:
                    36:26:5f:bd:dc:3f:a8:8b:6b:a2:ae:b6:9d:d6:21:
                    e7:df:41:b8:7a:28:2a:68:48:ca:a8:2d:ed:e1:e9:
                    46:5e:5a:72:6d:b4:84:38:87:91:fd:94:11:0b:28:
                    84:c6:c2:2f:2a:fb:01:f9:36:7a:09:75:d1:33:88:
                    3c:73:41:5b:c8:bf:94:89:70:a1:f0:c0:b9:2e:50:
                    53:1e:b1:17:64:69:f4:2d:81:e0:a9:0d:0e:32:e9:
                    ba:55:8a:85:f1:1b:6f:49:79:b4:7f:88:c3:0d:3e:
                    54:88:9b:3d:1f:38:8c:04:f3:ee:6a:63:2b:f5:c6:
                    db:b4:83:aa:c4:78:41:3a:7d:4b:e1:c8:3e:71:ca:
                    1b:61:59:ea:c6:c4:ca:32:5e:c9:e9:bf:12:29:e6:
                    c6:c3:63:fe:a0:55:da:7a:f1:60:98:4d:26:ed:fa:
                    70:2d
                Exponent: 65537 (0x10001)
        X509v3 extensions:
            X509v3 Key Usage: 
                Digital Signature, Key Encipherment
            X509v3 Basic Constraints: 
                CA:FALSE
            Netscape Cert Type: 
                SSL Server
            Netscape Comment: 
                OpenSSL Generated Server Certificate
            X509v3 Subject Key Identifier: 
                53:3F:ED:5D:09:07:B3:65:7B:AB:45:C9:24:5B:09:77:80:0A:96:ED
            X509v3 Authority Key Identifier: 
                keyid:F4:A7:C0:CC:91:46:AF:64:F3:91:F2:27:F8:C8:B2:6F:8A:87:32:73
                DirName:/C=DE/ST=Hessen/O=privacyidea/CN=CA001
                serial:FB:C8:EB:AC:83:CD:12:07

            X509v3 Extended Key Usage: 
                TLS Web Server Authentication
    Signature Algorithm: sha1WithRSAEncryption
         40:08:a8:c8:29:2f:e3:4f:f5:8a:ad:f8:ad:3b:c7:3e:26:1c:
         56:16:a3:b6:f5:89:2f:ce:fa:d0:59:b5:00:a5:4f:13:53:41:
         9e:65:de:a8:1d:a3:b9:98:1b:e7:72:b8:88:78:59:07:b3:08:
         58:23:ad:af:67:cb:91:f5:a6:93:5a:5e:44:58:67:9e:87:85:
         1b:e1:48:dc:bc:f7:84:3b:b2:04:f3:e7:b8:0f:3f:f6:4a:7e:
         0d:5b:65:cc:66:1b:0a:d3:a6:fa:1c:53:4a:ef:77:bb:7d:30:
         2b:03:01:1d:09:80:99:e2:ce:33:05:67:35:f8:77:06:0e:f9:
         50:3d:03:ed:4f:ab:ae:e3:d0:7a:af:4f:a2:14:2d:77:fb:ae:
         9b:25:9b:23:cf:e9:30:e7:47:30:c8:95:72:1d:07:76:6c:63:
         01:eb:d2:e8:cb:6a:58:fd:4d:dc:03:d2:d4:9d:10:2e:75:06:
         a6:bb:b8:ee:fb:0a:9d:3b:0c:87:1c:c1:0c:75:f6:1a:eb:9c:
         24:82:c4:22:b7:3a:4a:07:fd:03:cc:ac:7c:46:8b:a0:b3:1c:
         c4:2c:9d:e0:f1:1e:21:7f:60:31:eb:9f:32:03:99:d2:07:26:
         a8:df:fa:08:fd:bb:0b:68:75:9a:7f:86:82:fb:a1:04:af:94:
         c5:70:b8:79
-----BEGIN CERTIFICATE-----
MIIEJjCCAw6gAwIBAgIEEAAAlTANBgkqhkiG9w0BAQUFADBEMQswCQYDVQQGEwJE
RTEPMA0GA1UECAwGSGVzc2VuMRQwEgYDVQQKDAtwcml2YWN5aWRlYTEOMAwGA1UE
AwwFQ0EwMDEwHhcNMTUwNjE1MTMwNzQ2WhcNMTYwNjE0MTMwNzQ2WjBUMQswCQYD
VQQGEwJERTEPMA0GA1UECAwGSGVzc2VuMRQwEgYDVQQKDAtwcml2YWN5aWRlYTEe
MBwGA1UEAwwVcmVxdWVzdGVyLmxvY2FsZG9tYWluMIIBIjANBgkqhkiG9w0BAQEF
AAOCAQ8AMIIBCgKCAQEAzb4UT/rOAT9CIhsdnK/dktJ/22y3PjlDQ2sTA/EF9Ad0
vHZpKAuvGY7X/OPNxljyyn8IbVP8BwJEJMa0NEyMBP4zDkDiILoCc1r39U9jbszG
tt9UHTc5fVE2Jl+93D+oi2uirrad1iHn30G4eigqaEjKqC3t4elGXlpybbSEOIeR
/ZQRCyiExsIvKvsB+TZ6CXXRM4g8c0FbyL+UiXCh8MC5LlBTHrEXZGn0LYHgqQ0O
Mum6VYqF8RtvSXm0f4jDDT5UiJs9HziMBPPuamMr9cbbtIOqxHhBOn1L4cg+ccob
YVnqxsTKMl7J6b8SKebGw2P+oFXaevFgmE0m7fpwLQIDAQABo4IBDjCCAQowCwYD
VR0PBAQDAgWgMAkGA1UdEwQCMAAwEQYJYIZIAYb4QgEBBAQDAgZAMDMGCWCGSAGG
+EIBDQQmFiRPcGVuU1NMIEdlbmVyYXRlZCBTZXJ2ZXIgQ2VydGlmaWNhdGUwHQYD
VR0OBBYEFFM/7V0JB7Nle6tFySRbCXeACpbtMHQGA1UdIwRtMGuAFPSnwMyRRq9k
85HyJ/jIsm+KhzJzoUikRjBEMQswCQYDVQQGEwJERTEPMA0GA1UECAwGSGVzc2Vu
MRQwEgYDVQQKDAtwcml2YWN5aWRlYTEOMAwGA1UEAwwFQ0EwMDGCCQD7yOusg80S
BzATBgNVHSUEDDAKBggrBgEFBQcDATANBgkqhkiG9w0BAQUFAAOCAQEAQAioyCkv
40/1iq34rTvHPiYcVhajtvWJL8760Fm1AKVPE1NBnmXeqB2juZgb53K4iHhZB7MI
WCOtr2fLkfWmk1peRFhnnoeFG+FI3Lz3hDuyBPPnuA8/9kp+DVtlzGYbCtOm+hxT
Su93u30wKwMBHQmAmeLOMwVnNfh3Bg75UD0D7U+rruPQeq9PohQtd/uumyWbI8/p
MOdHMMiVch0HdmxjAevS6MtqWP1N3APS1J0QLnUGpru47vsKnTsMhxzBDHX2Guuc
JILEIrc6Sgf9A8ysfEaLoLMcxCyd4PEeIX9gMeufMgOZ0gcmqN/6CP27C2h1mn+G
gvuhBK+UxXC4eQ==
-----END CERTIFICATE-----
