Certificate:
    Data:
        Version: 3 (0x2)
        Serial Number: 268435726 (0x1000010e)
    Signature Algorithm: sha256WithRSAEncryption
        Issuer: C=DE, ST=Hessen, O=privacyidea, CN=CA001
        Validity
            Not Before: Jan  9 23:29:48 2019 GMT
            Not After : Jan  9 23:29:48 2020 GMT
        Subject: C=DE, ST=Hessen, O=privacyidea, CN=requester.localdomain
        Subject Public Key Info:
            Public Key Algorithm: rsaEncryption
                Public-Key: (2048 bit)
                Modulus:
                    00:cd:be:14:4f:fa:ce:01:3f:42:22:1b:1d:9c:af:
                    dd:92:d2:7f:db:6c:b7:3e:39:43:43:6b:13:03:f1:
                    05:f4:07:74:bc:76:69:28:0b:af:19:8e:d7:fc:e3:
                    cd:c6:58:f2:ca:7f:08:6d:53:fc:07:02:44:24:c6:
                    b4:34:4c:8c:04:fe:33:0e:40:e2:20:ba:02:73:5a:
                    f7:f5:4f:63:6e:cc:c6:b6:df:54:1d:37:39:7d:51:
                    36:26:5f:bd:dc:3f:a8:8b:6b:a2:ae:b6:9d:d6:21:
                    e7:df:41:b8:7a:28:2a:68:48:ca:a8:2d:ed:e1:e9:
                    46:5e:5a:72:6d:b4:84:38:87:91:fd:94:11:0b:28:
                    84:c6:c2:2f:2a:fb:01:f9:36:7a:09:75:d1:33:88:
                    3c:73:41:5b:c8:bf:94:89:70:a1:f0:c0:b9:2e:50:
                    53:1e:b1:17:64:69:f4:2d:81:e0:a9:0d:0e:32:e9:
                    ba:55:8a:85:f1:1b:6f:49:79:b4:7f:88:c3:0d:3e:
                    54:88:9b:3d:1f:38:8c:04:f3:ee:6a:63:2b:f5:c6:
                    db:b4:83:aa:c4:78:41:3a:7d:4b:e1:c8:3e:71:ca:
                    1b:61:59:ea:c6:c4:ca:32:5e:c9:e9:bf:12:29:e6:
                    c6:c3:63:fe:a0:55:da:7a:f1:60:98:4d:26:ed:fa:
                    70:2d
                Exponent: 65537 (0x10001)
        X509v3 extensions:
            X509v3 Key Usage: 
                Digital Signature, Key Encipherment
            X509v3 Basic Constraints: 
                CA:FALSE
            Netscape Cert Type: 
                SSL Server
            Netscape Comment: 
                OpenSSL Generated Server Certificate
            X509v3 Subject Key Identifier: 
                53:3F:ED:5D:09:07:B3:65:7B:AB:45:C9:24:5B:09:77:80:0A:96:ED
            X509v3 Authority Key Identifier: 
                keyid:F4:A7:C0:CC:91:46:AF:64:F3:91:F2:27:F8:C8:B2:6F:8A:87:32:73
                DirName:/C=DE/ST=Hessen/O=privacyidea/CN=CA001
                serial:FB:C8:EB:AC:83:CD:12:07

            X509v3 Extended Key Usage: 
                TLS Web Server Authentication
    Signature Algorithm: sha256WithRSAEncryption
         82:46:c1:c0:a2:16:b2:67:ad:0b:05:04:c5:84:40:8d:89:12:
         3b:c7:e4:54:2b:a7:b6:7f:ac:b1:7d:90:16:45:d3:67:d0:1b:
         85:73:f1:8f:3c:21:43:f6:26:86:8f:8a:42:15:3d:fa:ae:74:
         0c:80:9a:c6:c0:53:36:2b:6d:78:ff:26:78:17:1d:5d:d0:f5:
         48:cc:4d:cd:e8:d1:b8:32:9d:e7:66:45:96:fc:85:d8:b0:4c:
         b7:77:99:88:22:a3:ff:df:16:52:de:01:18:5a:d1:d8:02:f1:
         2d:80:7e:14:b7:42:58:bf:f3:b7:00:3e:c0:c2:ac:70:a9:74:
         8c:0f:71:af:ad:09:62:f9:1e:75:84:7a:c2:26:38:ef:fe:78:
         7c:39:42:15:11:c3:17:4f:11:db:1a:1a:b9:f8:fe:c7:aa:28:
         55:19:4d:80:78:a9:55:a3:19:59:a1:86:82:3e:30:2b:d0:bd:
         1c:a7:fb:2e:8d:8d:96:07:12:2f:c1:f4:3c:06:38:c8:33:8f:
         d6:65:d5:13:5e:c5:a1:16:3f:23:68:89:dc:b1:e8:d2:ac:0d:
         df:07:32:d5:bf:2b:a0:e4:ca:50:47:ee:2d:f4:88:11:b9:b8:
         f0:5a:fe:52:c3:ee:57:ee:b7:7c:cd:2d:a6:50:ad:be:52:25:
         1c:eb:41:63
-----BEGIN CERTIFICATE-----
MIIEJjCCAw6gAwIBAgIEEAABDjANBgkqhkiG9w0BAQsFADBEMQswCQYDVQQGEwJE
RTEPMA0GA1UECAwGSGVzc2VuMRQwEgYDVQQKDAtwcml2YWN5aWRlYTEOMAwGA1UE
AwwFQ0EwMDEwHhcNMTkwMTA5MjMyOTQ4WhcNMjAwMTA5MjMyOTQ4WjBUMQswCQYD
VQQGEwJERTEPMA0GA1UECAwGSGVzc2VuMRQwEgYDVQQKDAtwcml2YWN5aWRlYTEe
MBwGA1UEAwwVcmVxdWVzdGVyLmxvY2FsZG9tYWluMIIBIjANBgkqhkiG9w0BAQEF
AAOCAQ8AMIIBCgKCAQEAzb4UT/rOAT9CIhsdnK/dktJ/22y3PjlDQ2sTA/EF9Ad0
vHZpKAuvGY7X/OPNxljyyn8IbVP8BwJEJMa0NEyMBP4zDkDiILoCc1r39U9jbszG
tt9UHTc5fVE2Jl+93D+oi2uirrad1iHn30G4eigqaEjKqC3t4elGXlpybbSEOIeR
/ZQRCyiExsIvKvsB+TZ6CXXRM4g8c0FbyL+UiXCh8MC5LlBTHrEXZGn0LYHgqQ0O
Mum6VYqF8RtvSXm0f4jDDT5UiJs9HziMBPPuamMr9cbbtIOqxHhBOn1L4cg+ccob
YVnqxsTKMl7J6b8SKebGw2P+oFXaevFgmE0m7fpwLQIDAQABo4IBDjCCAQowCwYD
VR0PBAQDAgWgMAkGA1UdEwQCMAAwEQYJYIZIAYb4QgEBBAQDAgZAMDMGCWCGSAGG
+EIBDQQmFiRPcGVuU1NMIEdlbmVyYXRlZCBTZXJ2ZXIgQ2VydGlmaWNhdGUwHQYD
VR0OBBYEFFM/7V0JB7Nle6tFySRbCXeACpbtMHQGA1UdIwRtMGuAFPSnwMyRRq9k
85HyJ/jIsm+KhzJzoUikRjBEMQswCQYDVQQGEwJERTEPMA0GA1UECAwGSGVzc2Vu
MRQwEgYDVQQKDAtwcml2YWN5aWRlYTEOMAwGA1UEAwwFQ0EwMDGCCQD7yOusg80S
BzATBgNVHSUEDDAKBggrBgEFBQcDATANBgkqhkiG9w0BAQsFAAOCAQEAgkbBwKIW
smetCwUExYRAjYkSO8fkVCuntn+ssX2QFkXTZ9AbhXPxjzwhQ/Ymho+KQhU9+q50
DICaxsBTNitteP8meBcdXdD1SMxNzejRuDKd52ZFlvyF2LBMt3eZiCKj/98WUt4B
GFrR2ALxLYB+FLdCWL/ztwA+wMKscKl0jA9xr60JYvkedYR6wiY47/54fDlCFRHD
F08R2xoaufj+x6ooVRlNgHipVaMZWaGGgj4wK9C9HKf7Lo2NlgcSL8H0PAY4yDOP
1mXVE17FoRY/I2iJ3LHo0qwN3wcy1b8roOTKUEfuLfSIEbm48Fr+UsPuV+63fM0t
plCtvlIlHOtBYw==
-----END CERTIFICATE-----
