Certificate:
    Data:
        Version: 3 (0x2)
        Serial Number: 268435748 (0x10000124)
    Signature Algorithm: sha256WithRSAEncryption
        Issuer: C=DE, ST=Hessen, O=privacyidea, CN=CA001
        Validity
            Not Before: Jan 10 06:34:15 2019 GMT
            Not After : Jan 10 06:34:15 2020 GMT
        Subject: OU=realm1, CN=cornelius/emailAddress=user@localhost.localdomain
        Subject Public Key Info:
            Public Key Algorithm: rsaEncryption
                Public-Key: (2048 bit)
                Modulus:
                    00:de:88:a6:85:6a:e2:81:e4:94:74:81:ea:09:46:
                    77:80:02:4e:45:70:0c:c8:95:d0:29:9e:cc:d7:8e:
                    9b:4d:70:14:5d:fe:00:9d:c1:07:85:ca:3a:5a:72:
                    05:01:83:7b:b0:28:84:40:07:02:db:2c:af:f1:aa:
                    a1:b0:b1:2a:c8:07:39:7d:dd:03:5f:73:ff:50:8b:
                    c1:a4:a2:d0:6c:bd:aa:86:ad:5c:72:48:7b:60:cf:
                    f8:2c:83:31:4d:da:93:e3:2d:ea:4f:1e:96:64:e7:
                    14:44:fa:33:7e:5d:13:cd:ee:e4:b9:86:07:28:ba:
                    b0:12:84:4d:d8:c8:9a:63:58:9e:a8:cd:1b:d7:80:
                    7d:0b:e9:7d:54:a4:ed:7b:89:ee:4d:29:63:52:6f:
                    10:46:a1:4a:4a:8f:14:7e:92:97:ad:6b:60:4e:7a:
                    11:7c:eb:49:c2:b4:c8:95:90:e7:be:79:4f:02:39:
                    6e:c2:9e:e4:68:a5:10:4d:f1:ae:0e:1e:fd:62:b0:
                    39:7a:a4:a1:79:5e:63:9c:5d:95:03:17:35:c2:75:
                    00:81:33:50:b5:59:29:f1:5e:0f:09:c8:b2:ec:5f:
                    61:58:cf:fa:c9:d6:fd:dc:96:8b:b2:51:e0:5a:a6:
                    97:30:9c:09:ee:66:24:7b:c4:a5:d9:1d:6e:64:16:
                    e9:89
                Exponent: 65537 (0x10001)
        X509v3 extensions:
            X509v3 Key Usage: 
                Digital Signature, Key Encipherment
            X509v3 Basic Constraints: 
                CA:FALSE
            Netscape Cert Type: 
                SSL Server
            Netscape Comment: 
                OpenSSL Generated Server Certificate
            X509v3 Subject Key Identifier: 
                F7:F4:D1:FE:E9:2B:ED:4F:98:BD:D3:97:BA:C8:A0:10:07:AB:07:6A
            X509v3 Authority Key Identifier: 
                keyid:F4:A7:C0:CC:91:46:AF:64:F3:91:F2:27:F8:C8:B2:6F:8A:87:32:73
                DirName:/C=DE/ST=Hessen/O=privacyidea/CN=CA001
                serial:FB:C8:EB:AC:83:CD:12:07

            X509v3 Extended Key Usage: 
                TLS Web Server Authentication
    Signature Algorithm: sha256WithRSAEncryption
         1d:d2:fc:43:78:c8:78:e8:de:0f:ff:5b:8e:5d:0e:ea:ff:6c:
         34:8e:c9:ad:df:e1:9f:01:af:65:62:89:9d:f6:47:73:c4:c9:
         1f:2c:3e:6c:18:4e:b6:8c:e5:d8:06:2d:d1:e4:90:9a:35:d0:
         3b:24:02:fa:f3:82:fe:1e:e8:f2:10:b1:cb:99:67:53:58:b8:
         42:ca:48:a1:85:4e:e1:38:a5:16:9d:33:5c:e9:4c:1d:89:b0:
         ef:3e:82:85:55:c7:ab:29:f2:d2:1b:e3:35:12:f9:09:0b:08:
         e8:e4:ff:88:e3:57:f1:7a:1b:08:4b:e5:c8:c4:07:72:68:94:
         17:fb:8c:d2:44:74:41:43:95:5a:11:08:64:b9:23:79:0d:32:
         70:0f:e9:a8:5b:48:71:2c:71:66:39:e0:40:31:0b:2e:14:75:
         00:8b:16:9f:f0:1a:68:93:1c:db:d1:45:7b:08:2c:35:49:4d:
         a1:08:b6:ca:16:a9:0a:01:13:d6:47:03:45:a5:3a:bc:99:62:
         cb:0c:6a:42:91:3d:3c:6d:c6:61:bc:10:65:8c:7e:c4:0e:ce:
         9e:2d:35:fa:e1:e2:ee:4b:62:2f:0c:13:8a:f9:d8:cf:25:7f:
         32:73:ef:6a:11:dd:a5:02:67:eb:e0:82:69:88:f3:af:92:47:
         4f:32:a8:80
-----BEGIN CERTIFICATE-----
MIIEIjCCAwqgAwIBAgIEEAABJDANBgkqhkiG9w0BAQsFADBEMQswCQYDVQQGEwJE
RTEPMA0GA1UECAwGSGVzc2VuMRQwEgYDVQQKDAtwcml2YWN5aWRlYTEOMAwGA1UE
AwwFQ0EwMDEwHhcNMTkwMTEwMDYzNDE1WhcNMjAwMTEwMDYzNDE1WjBQMQ8wDQYD
VQQLDAZyZWFsbTExEjAQBgNVBAMMCWNvcm5lbGl1czEpMCcGCSqGSIb3DQEJARYa
dXNlckBsb2NhbGhvc3QubG9jYWxkb21haW4wggEiMA0GCSqGSIb3DQEBAQUAA4IB
DwAwggEKAoIBAQDeiKaFauKB5JR0geoJRneAAk5FcAzIldApnszXjptNcBRd/gCd
wQeFyjpacgUBg3uwKIRABwLbLK/xqqGwsSrIBzl93QNfc/9Qi8GkotBsvaqGrVxy
SHtgz/gsgzFN2pPjLepPHpZk5xRE+jN+XRPN7uS5hgcourAShE3YyJpjWJ6ozRvX
gH0L6X1UpO17ie5NKWNSbxBGoUpKjxR+kpeta2BOehF860nCtMiVkOe+eU8COW7C
nuRopRBN8a4OHv1isDl6pKF5XmOcXZUDFzXCdQCBM1C1WSnxXg8JyLLsX2FYz/rJ
1v3clouyUeBappcwnAnuZiR7xKXZHW5kFumJAgMBAAGjggEOMIIBCjALBgNVHQ8E
BAMCBaAwCQYDVR0TBAIwADARBglghkgBhvhCAQEEBAMCBkAwMwYJYIZIAYb4QgEN
BCYWJE9wZW5TU0wgR2VuZXJhdGVkIFNlcnZlciBDZXJ0aWZpY2F0ZTAdBgNVHQ4E
FgQU9/TR/ukr7U+YvdOXusigEAerB2owdAYDVR0jBG0wa4AU9KfAzJFGr2TzkfIn
+Miyb4qHMnOhSKRGMEQxCzAJBgNVBAYTAkRFMQ8wDQYDVQQIDAZIZXNzZW4xFDAS
BgNVBAoMC3ByaXZhY3lpZGVhMQ4wDAYDVQQDDAVDQTAwMYIJAPvI66yDzRIHMBMG
A1UdJQQMMAoGCCsGAQUFBwMBMA0GCSqGSIb3DQEBCwUAA4IBAQAd0vxDeMh46N4P
/1uOXQ7q/2w0jsmt3+GfAa9lYomd9kdzxMkfLD5sGE62jOXYBi3R5JCaNdA7JAL6
84L+HujyELHLmWdTWLhCykihhU7hOKUWnTNc6UwdibDvPoKFVcerKfLSG+M1EvkJ
Cwjo5P+I41fxehsIS+XIxAdyaJQX+4zSRHRBQ5VaEQhkuSN5DTJwD+moW0hxLHFm
OeBAMQsuFHUAixaf8Bpokxzb0UV7CCw1SU2hCLbKFqkKARPWRwNFpTq8mWLLDGpC
kT08bcZhvBBljH7EDs6eLTX64eLuS2IvDBOK+djPJX8yc+9qEd2lAmfr4IJpiPOv
kkdPMqiA
-----END CERTIFICATE-----
