Certificate:
    Data:
        Version: 3 (0x2)
        Serial Number: 268435658 (0x100000ca)
    Signature Algorithm: sha1WithRSAEncryption
        Issuer: C=DE, ST=Hessen, O=privacyidea, CN=CA001
        Validity
            Not Before: Jan 22 10:42:28 2017 GMT
            Not After : Jan 22 10:42:28 2018 GMT
        Subject: C=DE, ST=Hessen, O=privacyidea, CN=requester.localdomain
        Subject Public Key Info:
            Public Key Algorithm: rsaEncryption
                Public-Key: (2048 bit)
                Modulus:
                    00:cd:be:14:4f:fa:ce:01:3f:42:22:1b:1d:9c:af:
                    dd:92:d2:7f:db:6c:b7:3e:39:43:43:6b:13:03:f1:
                    05:f4:07:74:bc:76:69:28:0b:af:19:8e:d7:fc:e3:
                    cd:c6:58:f2:ca:7f:08:6d:53:fc:07:02:44:24:c6:
                    b4:34:4c:8c:04:fe:33:0e:40:e2:20:ba:02:73:5a:
                    f7:f5:4f:63:6e:cc:c6:b6:df:54:1d:37:39:7d:51:
                    36:26:5f:bd:dc:3f:a8:8b:6b:a2:ae:b6:9d:d6:21:
                    e7:df:41:b8:7a:28:2a:68:48:ca:a8:2d:ed:e1:e9:
                    46:5e:5a:72:6d:b4:84:38:87:91:fd:94:11:0b:28:
                    84:c6:c2:2f:2a:fb:01:f9:36:7a:09:75:d1:33:88:
                    3c:73:41:5b:c8:bf:94:89:70:a1:f0:c0:b9:2e:50:
                    53:1e:b1:17:64:69:f4:2d:81:e0:a9:0d:0e:32:e9:
                    ba:55:8a:85:f1:1b:6f:49:79:b4:7f:88:c3:0d:3e:
                    54:88:9b:3d:1f:38:8c:04:f3:ee:6a:63:2b:f5:c6:
                    db:b4:83:aa:c4:78:41:3a:7d:4b:e1:c8:3e:71:ca:
                    1b:61:59:ea:c6:c4:ca:32:5e:c9:e9:bf:12:29:e6:
                    c6:c3:63:fe:a0:55:da:7a:f1:60:98:4d:26:ed:fa:
                    70:2d
                Exponent: 65537 (0x10001)
        X509v3 extensions:
            X509v3 Key Usage: 
                Digital Signature, Key Encipherment
            X509v3 Basic Constraints: 
                CA:FALSE
            Netscape Cert Type: 
                SSL Server
            Netscape Comment: 
                OpenSSL Generated Server Certificate
            X509v3 Subject Key Identifier: 
                53:3F:ED:5D:09:07:B3:65:7B:AB:45:C9:24:5B:09:77:80:0A:96:ED
            X509v3 Authority Key Identifier: 
                keyid:F4:A7:C0:CC:91:46:AF:64:F3:91:F2:27:F8:C8:B2:6F:8A:87:32:73
                DirName:/C=DE/ST=Hessen/O=privacyidea/CN=CA001
                serial:FB:C8:EB:AC:83:CD:12:07

            X509v3 Extended Key Usage: 
                TLS Web Server Authentication
    Signature Algorithm: sha1WithRSAEncryption
         a6:31:ad:22:4b:36:42:e7:a1:26:02:2f:15:0c:95:0f:15:e0:
         60:33:c2:e3:af:ea:9e:f8:96:78:92:67:24:5f:86:41:28:ea:
         49:27:6d:34:35:d0:3b:15:bf:13:38:79:75:7a:96:c6:0d:13:
         44:bd:cd:9d:1f:31:74:62:ee:31:03:90:79:38:b2:ce:d3:96:
         44:2c:b5:86:22:19:78:61:ec:c2:29:d8:fa:08:35:f3:29:e7:
         86:76:f0:84:0a:c0:5a:26:63:bb:cb:47:fb:0c:7f:30:31:c4:
         6e:f0:28:eb:e7:bd:ef:db:3e:6d:9e:ab:a9:53:37:00:ec:eb:
         9f:8a:43:94:72:5c:69:0d:35:5b:ec:b1:16:af:9a:64:4a:72:
         7c:7e:e5:5d:00:1a:64:8c:a6:f0:cb:02:58:bf:4e:d7:f5:10:
         9f:12:77:69:43:e0:a6:b1:d7:c2:ff:72:f1:41:9c:89:c2:b7:
         d0:c1:4c:f0:fc:97:d2:b7:19:0a:03:f8:fc:f3:d5:cf:10:55:
         1a:ed:d9:9b:a5:cb:22:67:13:80:8b:e0:c7:b5:40:1a:fb:07:
         d0:46:a7:60:6b:5b:d4:56:0c:69:c3:36:09:78:31:c5:3e:2c:
         e4:a2:9d:e1:6a:41:ca:7e:c6:cb:1b:88:48:38:05:0c:49:70:
         39:85:1b:93
-----BEGIN CERTIFICATE-----
MIIEJjCCAw6gAwIBAgIEEAAAyjANBgkqhkiG9w0BAQUFADBEMQswCQYDVQQGEwJE
RTEPMA0GA1UECAwGSGVzc2VuMRQwEgYDVQQKDAtwcml2YWN5aWRlYTEOMAwGA1UE
AwwFQ0EwMDEwHhcNMTcwMTIyMTA0MjI4WhcNMTgwMTIyMTA0MjI4WjBUMQswCQYD
VQQGEwJERTEPMA0GA1UECAwGSGVzc2VuMRQwEgYDVQQKDAtwcml2YWN5aWRlYTEe
MBwGA1UEAwwVcmVxdWVzdGVyLmxvY2FsZG9tYWluMIIBIjANBgkqhkiG9w0BAQEF
AAOCAQ8AMIIBCgKCAQEAzb4UT/rOAT9CIhsdnK/dktJ/22y3PjlDQ2sTA/EF9Ad0
vHZpKAuvGY7X/OPNxljyyn8IbVP8BwJEJMa0NEyMBP4zDkDiILoCc1r39U9jbszG
tt9UHTc5fVE2Jl+93D+oi2uirrad1iHn30G4eigqaEjKqC3t4elGXlpybbSEOIeR
/ZQRCyiExsIvKvsB+TZ6CXXRM4g8c0FbyL+UiXCh8MC5LlBTHrEXZGn0LYHgqQ0O
Mum6VYqF8RtvSXm0f4jDDT5UiJs9HziMBPPuamMr9cbbtIOqxHhBOn1L4cg+ccob
YVnqxsTKMl7J6b8SKebGw2P+oFXaevFgmE0m7fpwLQIDAQABo4IBDjCCAQowCwYD
VR0PBAQDAgWgMAkGA1UdEwQCMAAwEQYJYIZIAYb4QgEBBAQDAgZAMDMGCWCGSAGG
+EIBDQQmFiRPcGVuU1NMIEdlbmVyYXRlZCBTZXJ2ZXIgQ2VydGlmaWNhdGUwHQYD
VR0OBBYEFFM/7V0JB7Nle6tFySRbCXeACpbtMHQGA1UdIwRtMGuAFPSnwMyRRq9k
85HyJ/jIsm+KhzJzoUikRjBEMQswCQYDVQQGEwJERTEPMA0GA1UECAwGSGVzc2Vu
MRQwEgYDVQQKDAtwcml2YWN5aWRlYTEOMAwGA1UEAwwFQ0EwMDGCCQD7yOusg80S
BzATBgNVHSUEDDAKBggrBgEFBQcDATANBgkqhkiG9w0BAQUFAAOCAQEApjGtIks2
QuehJgIvFQyVDxXgYDPC46/qnviWeJJnJF+GQSjqSSdtNDXQOxW/Ezh5dXqWxg0T
RL3NnR8xdGLuMQOQeTiyztOWRCy1hiIZeGHswinY+gg18ynnhnbwhArAWiZju8tH
+wx/MDHEbvAo6+e979s+bZ6rqVM3AOzrn4pDlHJcaQ01W+yxFq+aZEpyfH7lXQAa
ZIym8MsCWL9O1/UQnxJ3aUPgprHXwv9y8UGcicK30MFM8PyX0rcZCgP4/PPVzxBV
Gu3Zm6XLImcTgIvgx7VAGvsH0EanYGtb1FYMacM2CXgxxT4s5KKd4WpByn7GyxuI
SDgFDElwOYUbkw==
-----END CERTIFICATE-----
