Certificate:
    Data:
        Version: 3 (0x2)
        Serial Number: 268435618 (0x100000a2)
    Signature Algorithm: sha1WithRSAEncryption
        Issuer: C=DE, ST=Hessen, O=privacyidea, CN=CA001
        Validity
            Not Before: Sep 25 07:11:45 2015 GMT
            Not After : Sep 24 07:11:45 2016 GMT
        Subject: CN=selfservice,CN=user,O=realm1/emailAddress=meine
        Subject Public Key Info:
            Public Key Algorithm: rsaEncryption
                Public-Key: (2048 bit)
                Modulus:
                    00:cf:3c:d4:33:0e:12:c4:e6:da:cd:b6:56:a1:1c:
                    26:bb:26:1c:8a:4a:73:a8:58:8a:b6:1e:b3:8b:99:
                    d2:1d:07:c2:92:89:79:c0:69:d8:c8:df:28:61:98:
                    1e:b3:fe:ae:2b:bd:78:a9:f7:6e:47:dc:a3:a0:16:
                    8c:85:02:c1:4e:92:fd:72:6e:f0:c8:03:29:9b:b8:
                    00:6e:c0:83:95:c8:34:20:36:9c:b3:e5:e4:e6:76:
                    73:a3:1a:ad:40:96:e0:53:54:00:ec:76:79:9a:c6:
                    0d:7e:b6:bd:29:ec:83:f3:cb:89:a4:cb:6c:00:ba:
                    0c:c5:78:0f:ff:69:b8:94:f4:04:70:43:3f:d8:9e:
                    d7:a7:fb:5d:ce:75:8e:da:e7:c4:07:b1:9d:de:6f:
                    88:4b:b6:4d:9a:cf:f9:bc:fa:9f:cd:32:6d:f6:3a:
                    0b:0d:23:42:78:ec:97:42:bf:0e:4d:60:56:e1:d3:
                    02:f2:19:cb:84:57:90:e5:70:a1:a2:83:35:86:e2:
                    da:86:9f:f9:8a:c4:79:b3:52:28:da:cb:bb:34:ca:
                    d3:da:91:4a:cf:8d:76:a2:b2:6b:9b:f9:96:fd:09:
                    2a:da:11:23:4d:f0:cb:d6:b2:b1:0e:12:6c:9a:19:
                    65:98:87:ca:e4:ee:24:ce:44:ac:90:8f:9d:1b:c5:
                    2a:9d
                Exponent: 65537 (0x10001)
        X509v3 extensions:
            X509v3 Key Usage: 
                Digital Signature, Key Encipherment
            X509v3 Basic Constraints: 
                CA:FALSE
            Netscape Cert Type: 
                SSL Server
            Netscape Comment: 
                OpenSSL Generated Server Certificate
            X509v3 Subject Key Identifier: 
                4D:07:90:AD:FF:1D:0D:E7:1A:DD:D6:2E:FA:BA:34:CB:AA:1F:24:C6
            X509v3 Authority Key Identifier: 
                keyid:F4:A7:C0:CC:91:46:AF:64:F3:91:F2:27:F8:C8:B2:6F:8A:87:32:73
                DirName:/C=DE/ST=Hessen/O=privacyidea/CN=CA001
                serial:FB:C8:EB:AC:83:CD:12:07

            X509v3 Extended Key Usage: 
                TLS Web Server Authentication
    Signature Algorithm: sha1WithRSAEncryption
         4a:82:d5:d0:ba:d1:46:2a:10:3f:51:6b:a8:fb:95:6f:11:f4:
         8e:89:29:33:80:c3:06:f4:88:2d:f0:ec:40:71:02:ab:c6:42:
         02:7a:37:04:2a:e8:51:d1:6f:f9:6b:1f:c0:a8:70:cb:dc:d2:
         fb:2d:6e:de:7b:06:9f:59:ff:7c:6a:a4:d4:1d:ae:60:70:e5:
         01:02:03:bd:fb:36:bc:c9:e6:f7:38:51:16:84:6c:f5:73:f4:
         7a:61:c7:d9:93:66:c2:ea:f3:ab:01:68:bf:50:33:bc:aa:67:
         5a:ba:44:13:dd:a8:c6:29:40:b4:40:10:f3:b0:d7:4e:e4:c6:
         7c:19:d4:25:74:09:82:06:af:f1:fa:69:7d:7d:ab:ec:e5:b1:
         d6:cc:8a:b1:4c:8c:76:07:53:f2:3d:90:d0:0b:51:b9:ed:40:
         79:c6:f8:08:a2:00:df:e4:0a:74:a5:cd:62:c5:7b:02:4a:26:
         a9:9f:f5:5b:e4:bd:7e:01:f0:9e:0a:86:5a:54:d0:23:89:db:
         7f:ff:3c:40:de:4a:bc:fe:ee:18:ba:1a:6a:72:b3:cd:b5:8b:
         5d:eb:0a:6b:f8:0b:6e:d4:c2:57:93:d9:5c:18:17:b3:a9:80:
         76:6e:b2:6d:88:b4:e4:ff:45:ac:72:a3:c7:13:b4:88:62:08:
         f8:1b:aa:a5
-----BEGIN CERTIFICATE-----
MIIEDzCCAvegAwIBAgIEEAAAojANBgkqhkiG9w0BAQUFADBEMQswCQYDVQQGEwJE
RTEPMA0GA1UECAwGSGVzc2VuMRQwEgYDVQQKDAtwcml2YWN5aWRlYTEOMAwGA1UE
AwwFQ0EwMDEwHhcNMTUwOTI1MDcxMTQ1WhcNMTYwOTI0MDcxMTQ1WjA9MSUwIwYD
VQQDExxzZWxmc2VydmljZSxDTj11c2VyLE89cmVhbG0xMRQwEgYJKoZIhvcNAQkB
FgVtZWluZTCCASIwDQYJKoZIhvcNAQEBBQADggEPADCCAQoCggEBAM881DMOEsTm
2s22VqEcJrsmHIpKc6hYirYes4uZ0h0HwpKJecBp2MjfKGGYHrP+riu9eKn3bkfc
o6AWjIUCwU6S/XJu8MgDKZu4AG7Ag5XINCA2nLPl5OZ2c6MarUCW4FNUAOx2eZrG
DX62vSnsg/PLiaTLbAC6DMV4D/9puJT0BHBDP9ie16f7Xc51jtrnxAexnd5viEu2
TZrP+bz6n80ybfY6Cw0jQnjsl0K/Dk1gVuHTAvIZy4RXkOVwoaKDNYbi2oaf+YrE
ebNSKNrLuzTK09qRSs+NdqKya5v5lv0JKtoRI03wy9aysQ4SbJoZZZiHyuTuJM5E
rJCPnRvFKp0CAwEAAaOCAQ4wggEKMAsGA1UdDwQEAwIFoDAJBgNVHRMEAjAAMBEG
CWCGSAGG+EIBAQQEAwIGQDAzBglghkgBhvhCAQ0EJhYkT3BlblNTTCBHZW5lcmF0
ZWQgU2VydmVyIENlcnRpZmljYXRlMB0GA1UdDgQWBBRNB5Ct/x0N5xrd1i76ujTL
qh8kxjB0BgNVHSMEbTBrgBT0p8DMkUavZPOR8if4yLJviocyc6FIpEYwRDELMAkG
A1UEBhMCREUxDzANBgNVBAgMBkhlc3NlbjEUMBIGA1UECgwLcHJpdmFjeWlkZWEx
DjAMBgNVBAMMBUNBMDAxggkA+8jrrIPNEgcwEwYDVR0lBAwwCgYIKwYBBQUHAwEw
DQYJKoZIhvcNAQEFBQADggEBAEqC1dC60UYqED9Ra6j7lW8R9I6JKTOAwwb0iC3w
7EBxAqvGQgJ6NwQq6FHRb/lrH8CocMvc0vstbt57Bp9Z/3xqpNQdrmBw5QECA737
NrzJ5vc4URaEbPVz9Hphx9mTZsLq86sBaL9QM7yqZ1q6RBPdqMYpQLRAEPOw107k
xnwZ1CV0CYIGr/H6aX19q+zlsdbMirFMjHYHU/I9kNALUbntQHnG+AiiAN/kCnSl
zWLFewJKJqmf9VvkvX4B8J4KhlpU0COJ23//PEDeSrz+7hi6Gmpys821i13rCmv4
C27UwleT2VwYF7OpgHZusm2ItOT/Raxyo8cTtIhiCPgbqqU=
-----END CERTIFICATE-----
