Certificate:
    Data:
        Version: 3 (0x2)
        Serial Number: 268435660 (0x100000cc)
    Signature Algorithm: sha1WithRSAEncryption
        Issuer: C=DE, ST=Hessen, O=privacyidea, CN=CA001
        Validity
            Not Before: Jan 22 10:42:29 2017 GMT
            Not After : Jan 22 10:42:29 2018 GMT
        Subject: CN=Steve Test/emailAddress=steve@openssl.org
        Subject Public Key Info:
            Public Key Algorithm: rsaEncryption
                Public-Key: (2048 bit)
                Modulus:
                    00:d2:81:89:20:51:48:0f:73:f4:11:32:24:d5:1f:
                    1c:fd:5c:f5:b6:e6:c5:f0:52:81:dc:d2:af:66:4a:
                    7c:93:31:61:5c:af:d1:6d:06:70:03:60:7c:72:0c:
                    88:dd:49:cd:9e:02:6c:d2:5a:d7:53:0f:f3:da:be:
                    69:64:b5:0f:0c:00:e3:b3:50:47:a3:b3:9b:ba:13:
                    50:d6:58:5a:4b:ab:39:e0:11:ca:0a:27:67:03:78:
                    22:66:6d:92:1e:1b:5c:49:ae:e6:6b:d1:8e:3b:9d:
                    06:d3:c6:ac:4d:53:43:10:ab:e8:96:c1:87:82:97:
                    99:8f:20:d3:99:12:37:31:84:e1:8a:ff:29:03:5f:
                    22:90:3e:7f:9b:e0:20:c1:ad:dc:ae:4c:39:1a:31:
                    96:17:02:8c:b2:d9:b4:0d:20:12:9b:7d:86:54:fd:
                    33:fd:c1:2a:62:46:f8:60:96:cf:6e:01:6f:22:df:
                    13:47:e7:97:ec:05:72:23:a3:62:f8:fa:ef:ac:9c:
                    72:f0:37:cb:2f:37:cf:90:a8:27:51:86:c6:d7:78:
                    08:8f:7e:25:a2:15:70:a2:fb:1c:b6:15:5e:a0:97:
                    8b:81:4c:09:28:8a:27:3b:94:bc:71:db:5b:71:37:
                    9a:2b:16:e0:6f:b5:c9:f5:4b:4f:20:ba:65:cf:af:
                    ad:ad
                Exponent: 65537 (0x10001)
        X509v3 extensions:
            X509v3 Key Usage: 
                Digital Signature, Key Encipherment
            X509v3 Basic Constraints: 
                CA:FALSE
            Netscape Cert Type: 
                SSL Server
            Netscape Comment: 
                OpenSSL Generated Server Certificate
            X509v3 Subject Key Identifier: 
                E5:25:6D:3E:AF:0D:DD:3F:4C:F2:45:19:39:D5:14:DB:7E:9C:C0:AD
            X509v3 Authority Key Identifier: 
                keyid:F4:A7:C0:CC:91:46:AF:64:F3:91:F2:27:F8:C8:B2:6F:8A:87:32:73
                DirName:/C=DE/ST=Hessen/O=privacyidea/CN=CA001
                serial:FB:C8:EB:AC:83:CD:12:07

            X509v3 Extended Key Usage: 
                TLS Web Server Authentication
    Signature Algorithm: sha1WithRSAEncryption
         3e:94:de:a1:72:11:22:12:c4:4d:ec:8d:51:b8:db:11:26:b3:
         32:2e:9d:5f:68:fb:0e:b3:29:d5:e9:02:be:30:e0:a7:44:64:
         ed:6d:ba:2b:15:65:75:44:74:a6:f6:94:1e:ca:91:84:df:51:
         5b:10:90:34:57:81:be:ce:1b:3c:44:0a:9c:76:82:3b:d4:96:
         01:99:53:76:35:20:e8:f6:d4:a0:52:fe:69:6a:90:56:34:af:
         c6:40:a2:b8:a6:e9:66:5f:13:b5:3c:34:4f:32:6f:89:a3:c5:
         f1:1a:7c:84:4c:3a:8a:17:10:f9:48:c1:8c:79:f2:16:5b:f4:
         c5:39:7c:ff:42:4a:6a:5d:23:c9:7c:9e:49:a4:32:33:e0:5d:
         3f:81:0e:58:46:93:3e:49:0f:e4:e4:04:05:3a:67:12:35:4f:
         5d:36:66:60:27:57:1c:6d:44:bd:97:3d:7f:26:1c:2c:a1:38:
         4a:7d:d3:b6:ed:15:8d:d5:97:b3:3c:e1:11:6b:e5:42:a6:d4:
         31:54:ed:38:45:07:0f:a5:4b:c4:38:db:77:73:85:4a:62:54:
         aa:62:20:ed:41:bb:7a:72:ad:1f:6e:5d:f6:ae:b2:5f:95:89:
         68:7a:d2:15:78:85:03:42:03:d2:cf:d4:55:cf:17:69:94:58:
         d6:b1:ad:b3
-----BEGIN CERTIFICATE-----
MIIECTCCAvGgAwIBAgIEEAAAzDANBgkqhkiG9w0BAQUFADBEMQswCQYDVQQGEwJE
RTEPMA0GA1UECAwGSGVzc2VuMRQwEgYDVQQKDAtwcml2YWN5aWRlYTEOMAwGA1UE
AwwFQ0EwMDEwHhcNMTcwMTIyMTA0MjI5WhcNMTgwMTIyMTA0MjI5WjA3MRMwEQYD
VQQDDApTdGV2ZSBUZXN0MSAwHgYJKoZIhvcNAQkBFhFzdGV2ZUBvcGVuc3NsLm9y
ZzCCASIwDQYJKoZIhvcNAQEBBQADggEPADCCAQoCggEBANKBiSBRSA9z9BEyJNUf
HP1c9bbmxfBSgdzSr2ZKfJMxYVyv0W0GcANgfHIMiN1JzZ4CbNJa11MP89q+aWS1
DwwA47NQR6Ozm7oTUNZYWkurOeARygonZwN4ImZtkh4bXEmu5mvRjjudBtPGrE1T
QxCr6JbBh4KXmY8g05kSNzGE4Yr/KQNfIpA+f5vgIMGt3K5MORoxlhcCjLLZtA0g
Ept9hlT9M/3BKmJG+GCWz24BbyLfE0fnl+wFciOjYvj676yccvA3yy83z5CoJ1GG
xtd4CI9+JaIVcKL7HLYVXqCXi4FMCSiKJzuUvHHbW3E3misW4G+1yfVLTyC6Zc+v
ra0CAwEAAaOCAQ4wggEKMAsGA1UdDwQEAwIFoDAJBgNVHRMEAjAAMBEGCWCGSAGG
+EIBAQQEAwIGQDAzBglghkgBhvhCAQ0EJhYkT3BlblNTTCBHZW5lcmF0ZWQgU2Vy
dmVyIENlcnRpZmljYXRlMB0GA1UdDgQWBBTlJW0+rw3dP0zyRRk51RTbfpzArTB0
BgNVHSMEbTBrgBT0p8DMkUavZPOR8if4yLJviocyc6FIpEYwRDELMAkGA1UEBhMC
REUxDzANBgNVBAgMBkhlc3NlbjEUMBIGA1UECgwLcHJpdmFjeWlkZWExDjAMBgNV
BAMMBUNBMDAxggkA+8jrrIPNEgcwEwYDVR0lBAwwCgYIKwYBBQUHAwEwDQYJKoZI
hvcNAQEFBQADggEBAD6U3qFyESISxE3sjVG42xEmszIunV9o+w6zKdXpAr4w4KdE
ZO1tuisVZXVEdKb2lB7KkYTfUVsQkDRXgb7OGzxECpx2gjvUlgGZU3Y1IOj21KBS
/mlqkFY0r8ZAorim6WZfE7U8NE8yb4mjxfEafIRMOooXEPlIwYx58hZb9MU5fP9C
SmpdI8l8nkmkMjPgXT+BDlhGkz5JD+TkBAU6ZxI1T102ZmAnVxxtRL2XPX8mHCyh
OEp907btFY3Vl7M84RFr5UKm1DFU7ThFBw+lS8Q423dzhUpiVKpiIO1Bu3pyrR9u
Xfausl+ViWh60hV4hQNCA9LP1FXPF2mUWNaxrbM=
-----END CERTIFICATE-----
