Certificate:
    Data:
        Version: 3 (0x2)
        Serial Number: 268435663 (0x100000cf)
    Signature Algorithm: sha1WithRSAEncryption
        Issuer: C=DE, ST=Hessen, O=privacyidea, CN=CA001
        Validity
            Not Before: Jan 22 10:59:21 2017 GMT
            Not After : Jan 22 10:59:21 2018 GMT
        Subject: CN=selfservice,CN=user,O=realm1/emailAddress=meine
        Subject Public Key Info:
            Public Key Algorithm: rsaEncryption
                Public-Key: (2048 bit)
                Modulus:
                    00:cf:3c:d4:33:0e:12:c4:e6:da:cd:b6:56:a1:1c:
                    26:bb:26:1c:8a:4a:73:a8:58:8a:b6:1e:b3:8b:99:
                    d2:1d:07:c2:92:89:79:c0:69:d8:c8:df:28:61:98:
                    1e:b3:fe:ae:2b:bd:78:a9:f7:6e:47:dc:a3:a0:16:
                    8c:85:02:c1:4e:92:fd:72:6e:f0:c8:03:29:9b:b8:
                    00:6e:c0:83:95:c8:34:20:36:9c:b3:e5:e4:e6:76:
                    73:a3:1a:ad:40:96:e0:53:54:00:ec:76:79:9a:c6:
                    0d:7e:b6:bd:29:ec:83:f3:cb:89:a4:cb:6c:00:ba:
                    0c:c5:78:0f:ff:69:b8:94:f4:04:70:43:3f:d8:9e:
                    d7:a7:fb:5d:ce:75:8e:da:e7:c4:07:b1:9d:de:6f:
                    88:4b:b6:4d:9a:cf:f9:bc:fa:9f:cd:32:6d:f6:3a:
                    0b:0d:23:42:78:ec:97:42:bf:0e:4d:60:56:e1:d3:
                    02:f2:19:cb:84:57:90:e5:70:a1:a2:83:35:86:e2:
                    da:86:9f:f9:8a:c4:79:b3:52:28:da:cb:bb:34:ca:
                    d3:da:91:4a:cf:8d:76:a2:b2:6b:9b:f9:96:fd:09:
                    2a:da:11:23:4d:f0:cb:d6:b2:b1:0e:12:6c:9a:19:
                    65:98:87:ca:e4:ee:24:ce:44:ac:90:8f:9d:1b:c5:
                    2a:9d
                Exponent: 65537 (0x10001)
        X509v3 extensions:
            X509v3 Key Usage: 
                Digital Signature, Key Encipherment
            X509v3 Basic Constraints: 
                CA:FALSE
            Netscape Cert Type: 
                SSL Server
            Netscape Comment: 
                OpenSSL Generated Server Certificate
            X509v3 Subject Key Identifier: 
                4D:07:90:AD:FF:1D:0D:E7:1A:DD:D6:2E:FA:BA:34:CB:AA:1F:24:C6
            X509v3 Authority Key Identifier: 
                keyid:F4:A7:C0:CC:91:46:AF:64:F3:91:F2:27:F8:C8:B2:6F:8A:87:32:73
                DirName:/C=DE/ST=Hessen/O=privacyidea/CN=CA001
                serial:FB:C8:EB:AC:83:CD:12:07

            X509v3 Extended Key Usage: 
                TLS Web Server Authentication
    Signature Algorithm: sha1WithRSAEncryption
         93:1b:dc:fb:50:d6:4b:a3:ed:a0:4c:46:0e:01:d4:8b:44:3f:
         1a:2b:8f:c2:e3:5e:18:7c:cb:be:c7:f0:e1:f5:8d:52:0b:21:
         4a:7a:b3:59:bb:e2:60:c4:e0:0b:25:f8:e4:c5:88:2d:76:89:
         3b:f2:df:17:0e:3f:bf:60:cf:d2:92:e9:ad:bb:5e:0f:d9:05:
         60:d8:31:a0:cb:fc:63:c3:9f:1c:37:bc:35:c3:2c:c0:47:fe:
         e6:34:7f:a3:ed:ba:80:59:8b:d1:66:67:d6:e0:be:25:06:38:
         d8:f6:45:27:15:4a:65:bc:e6:6c:47:c6:1c:12:2a:7c:4e:32:
         40:77:4e:61:dd:39:8b:c6:a7:d3:cf:aa:12:05:05:4c:a2:4e:
         4b:20:79:05:5e:4d:5b:94:14:9a:c4:f1:72:36:b7:6c:32:69:
         99:c1:47:35:19:62:fd:e6:df:bb:36:2f:ad:c3:72:79:6e:c9:
         82:55:59:86:cb:ff:dc:e2:f1:89:d0:a5:ea:18:8a:37:f9:fe:
         14:19:79:98:b3:a0:53:49:9e:3b:b4:47:39:e6:5b:d2:71:7e:
         7d:44:2a:05:ea:ef:63:b4:ec:14:68:99:aa:e3:f8:f5:16:7b:
         f0:5f:92:21:ff:ce:96:98:48:ca:75:a6:34:40:50:89:c2:3e:
         a6:ad:b0:d9
-----BEGIN CERTIFICATE-----
MIIEDzCCAvegAwIBAgIEEAAAzzANBgkqhkiG9w0BAQUFADBEMQswCQYDVQQGEwJE
RTEPMA0GA1UECAwGSGVzc2VuMRQwEgYDVQQKDAtwcml2YWN5aWRlYTEOMAwGA1UE
AwwFQ0EwMDEwHhcNMTcwMTIyMTA1OTIxWhcNMTgwMTIyMTA1OTIxWjA9MSUwIwYD
VQQDDBxzZWxmc2VydmljZSxDTj11c2VyLE89cmVhbG0xMRQwEgYJKoZIhvcNAQkB
FgVtZWluZTCCASIwDQYJKoZIhvcNAQEBBQADggEPADCCAQoCggEBAM881DMOEsTm
2s22VqEcJrsmHIpKc6hYirYes4uZ0h0HwpKJecBp2MjfKGGYHrP+riu9eKn3bkfc
o6AWjIUCwU6S/XJu8MgDKZu4AG7Ag5XINCA2nLPl5OZ2c6MarUCW4FNUAOx2eZrG
DX62vSnsg/PLiaTLbAC6DMV4D/9puJT0BHBDP9ie16f7Xc51jtrnxAexnd5viEu2
TZrP+bz6n80ybfY6Cw0jQnjsl0K/Dk1gVuHTAvIZy4RXkOVwoaKDNYbi2oaf+YrE
ebNSKNrLuzTK09qRSs+NdqKya5v5lv0JKtoRI03wy9aysQ4SbJoZZZiHyuTuJM5E
rJCPnRvFKp0CAwEAAaOCAQ4wggEKMAsGA1UdDwQEAwIFoDAJBgNVHRMEAjAAMBEG
CWCGSAGG+EIBAQQEAwIGQDAzBglghkgBhvhCAQ0EJhYkT3BlblNTTCBHZW5lcmF0
ZWQgU2VydmVyIENlcnRpZmljYXRlMB0GA1UdDgQWBBRNB5Ct/x0N5xrd1i76ujTL
qh8kxjB0BgNVHSMEbTBrgBT0p8DMkUavZPOR8if4yLJviocyc6FIpEYwRDELMAkG
A1UEBhMCREUxDzANBgNVBAgMBkhlc3NlbjEUMBIGA1UECgwLcHJpdmFjeWlkZWEx
DjAMBgNVBAMMBUNBMDAxggkA+8jrrIPNEgcwEwYDVR0lBAwwCgYIKwYBBQUHAwEw
DQYJKoZIhvcNAQEFBQADggEBAJMb3PtQ1kuj7aBMRg4B1ItEPxorj8LjXhh8y77H
8OH1jVILIUp6s1m74mDE4Asl+OTFiC12iTvy3xcOP79gz9KS6a27Xg/ZBWDYMaDL
/GPDnxw3vDXDLMBH/uY0f6PtuoBZi9FmZ9bgviUGONj2RScVSmW85mxHxhwSKnxO
MkB3TmHdOYvGp9PPqhIFBUyiTksgeQVeTVuUFJrE8XI2t2wyaZnBRzUZYv3m37s2
L63DcnluyYJVWYbL/9zi8YnQpeoYijf5/hQZeZizoFNJnju0RznmW9Jxfn1EKgXq
72O07BRomarj+PUWe/BfkiH/zpaYSMp1pjRAUInCPqatsNk=
-----END CERTIFICATE-----
