Certificate:
    Data:
        Version: 3 (0x2)
        Serial Number: 268435717 (0x10000105)
    Signature Algorithm: sha256WithRSAEncryption
        Issuer: C=DE, ST=Hessen, O=privacyidea, CN=CA001
        Validity
            Not Before: Jan  9 22:53:41 2019 GMT
            Not After : Jan  9 22:53:41 2020 GMT
        Subject: C=DE, ST=Hessen, O=privacyidea, CN=requester.localdomain
        Subject Public Key Info:
            Public Key Algorithm: rsaEncryption
                Public-Key: (2048 bit)
                Modulus:
                    00:cd:be:14:4f:fa:ce:01:3f:42:22:1b:1d:9c:af:
                    dd:92:d2:7f:db:6c:b7:3e:39:43:43:6b:13:03:f1:
                    05:f4:07:74:bc:76:69:28:0b:af:19:8e:d7:fc:e3:
                    cd:c6:58:f2:ca:7f:08:6d:53:fc:07:02:44:24:c6:
                    b4:34:4c:8c:04:fe:33:0e:40:e2:20:ba:02:73:5a:
                    f7:f5:4f:63:6e:cc:c6:b6:df:54:1d:37:39:7d:51:
                    36:26:5f:bd:dc:3f:a8:8b:6b:a2:ae:b6:9d:d6:21:
                    e7:df:41:b8:7a:28:2a:68:48:ca:a8:2d:ed:e1:e9:
                    46:5e:5a:72:6d:b4:84:38:87:91:fd:94:11:0b:28:
                    84:c6:c2:2f:2a:fb:01:f9:36:7a:09:75:d1:33:88:
                    3c:73:41:5b:c8:bf:94:89:70:a1:f0:c0:b9:2e:50:
                    53:1e:b1:17:64:69:f4:2d:81:e0:a9:0d:0e:32:e9:
                    ba:55:8a:85:f1:1b:6f:49:79:b4:7f:88:c3:0d:3e:
                    54:88:9b:3d:1f:38:8c:04:f3:ee:6a:63:2b:f5:c6:
                    db:b4:83:aa:c4:78:41:3a:7d:4b:e1:c8:3e:71:ca:
                    1b:61:59:ea:c6:c4:ca:32:5e:c9:e9:bf:12:29:e6:
                    c6:c3:63:fe:a0:55:da:7a:f1:60:98:4d:26:ed:fa:
                    70:2d
                Exponent: 65537 (0x10001)
        X509v3 extensions:
            X509v3 Key Usage: 
                Digital Signature, Key Encipherment
            X509v3 Basic Constraints: 
                CA:FALSE
            Netscape Cert Type: 
                SSL Server
            Netscape Comment: 
                OpenSSL Generated Server Certificate
            X509v3 Subject Key Identifier: 
                53:3F:ED:5D:09:07:B3:65:7B:AB:45:C9:24:5B:09:77:80:0A:96:ED
            X509v3 Authority Key Identifier: 
                keyid:F4:A7:C0:CC:91:46:AF:64:F3:91:F2:27:F8:C8:B2:6F:8A:87:32:73
                DirName:/C=DE/ST=Hessen/O=privacyidea/CN=CA001
                serial:FB:C8:EB:AC:83:CD:12:07

            X509v3 Extended Key Usage: 
                TLS Web Server Authentication
    Signature Algorithm: sha256WithRSAEncryption
         3b:2c:21:9d:a9:30:c5:29:58:14:88:f4:48:cb:f8:3b:b0:6a:
         34:86:70:60:94:c2:51:a7:9f:ca:3b:97:5f:a3:6a:4e:39:ab:
         e8:50:58:31:3f:cc:c9:43:9a:81:7f:eb:48:37:88:e3:8d:b2:
         51:28:19:27:32:2f:37:a8:69:0b:29:99:d1:3b:29:0b:ff:f7:
         78:e8:96:b4:f5:a2:d0:7c:72:d4:28:20:a0:ab:30:6c:24:fd:
         a9:be:67:05:b7:71:98:9d:7f:2a:8f:b6:af:80:fe:2b:af:3c:
         8e:4d:5d:11:7f:21:d3:ad:a0:ec:db:44:de:61:1a:da:55:9c:
         b0:71:01:ca:87:2d:b5:d3:5e:98:88:72:4d:33:e9:e8:ba:eb:
         9a:cd:ba:d0:05:f6:6a:3b:0e:b6:90:0c:21:a4:0d:ba:3a:d4:
         44:da:08:da:af:4b:1f:ef:ec:f7:fe:7a:14:d9:18:6d:86:28:
         91:3b:cd:17:df:1a:a8:8d:ed:26:3b:bc:d1:1e:72:92:1e:63:
         e6:4f:3c:22:eb:a4:84:67:73:3a:c1:a2:40:14:5d:a0:62:58:
         55:f1:b5:9b:49:58:63:8e:16:d9:fb:70:2f:14:f9:96:06:e7:
         fa:9f:1f:bc:02:77:53:11:b9:7b:71:3c:53:8f:8d:f3:60:03:
         cd:b9:f2:31
-----BEGIN CERTIFICATE-----
MIIEJjCCAw6gAwIBAgIEEAABBTANBgkqhkiG9w0BAQsFADBEMQswCQYDVQQGEwJE
RTEPMA0GA1UECAwGSGVzc2VuMRQwEgYDVQQKDAtwcml2YWN5aWRlYTEOMAwGA1UE
AwwFQ0EwMDEwHhcNMTkwMTA5MjI1MzQxWhcNMjAwMTA5MjI1MzQxWjBUMQswCQYD
VQQGEwJERTEPMA0GA1UECAwGSGVzc2VuMRQwEgYDVQQKDAtwcml2YWN5aWRlYTEe
MBwGA1UEAwwVcmVxdWVzdGVyLmxvY2FsZG9tYWluMIIBIjANBgkqhkiG9w0BAQEF
AAOCAQ8AMIIBCgKCAQEAzb4UT/rOAT9CIhsdnK/dktJ/22y3PjlDQ2sTA/EF9Ad0
vHZpKAuvGY7X/OPNxljyyn8IbVP8BwJEJMa0NEyMBP4zDkDiILoCc1r39U9jbszG
tt9UHTc5fVE2Jl+93D+oi2uirrad1iHn30G4eigqaEjKqC3t4elGXlpybbSEOIeR
/ZQRCyiExsIvKvsB+TZ6CXXRM4g8c0FbyL+UiXCh8MC5LlBTHrEXZGn0LYHgqQ0O
Mum6VYqF8RtvSXm0f4jDDT5UiJs9HziMBPPuamMr9cbbtIOqxHhBOn1L4cg+ccob
YVnqxsTKMl7J6b8SKebGw2P+oFXaevFgmE0m7fpwLQIDAQABo4IBDjCCAQowCwYD
VR0PBAQDAgWgMAkGA1UdEwQCMAAwEQYJYIZIAYb4QgEBBAQDAgZAMDMGCWCGSAGG
+EIBDQQmFiRPcGVuU1NMIEdlbmVyYXRlZCBTZXJ2ZXIgQ2VydGlmaWNhdGUwHQYD
VR0OBBYEFFM/7V0JB7Nle6tFySRbCXeACpbtMHQGA1UdIwRtMGuAFPSnwMyRRq9k
85HyJ/jIsm+KhzJzoUikRjBEMQswCQYDVQQGEwJERTEPMA0GA1UECAwGSGVzc2Vu
MRQwEgYDVQQKDAtwcml2YWN5aWRlYTEOMAwGA1UEAwwFQ0EwMDGCCQD7yOusg80S
BzATBgNVHSUEDDAKBggrBgEFBQcDATANBgkqhkiG9w0BAQsFAAOCAQEAOywhnakw
xSlYFIj0SMv4O7BqNIZwYJTCUaefyjuXX6NqTjmr6FBYMT/MyUOagX/rSDeI442y
USgZJzIvN6hpCymZ0TspC//3eOiWtPWi0Hxy1CggoKswbCT9qb5nBbdxmJ1/Ko+2
r4D+K688jk1dEX8h062g7NtE3mEa2lWcsHEByocttdNemIhyTTPp6Lrrms260AX2
ajsOtpAMIaQNujrURNoI2q9LH+/s9/56FNkYbYYokTvNF98aqI3tJju80R5ykh5j
5k88IuukhGdzOsGiQBRdoGJYVfG1m0lYY44W2ftwLxT5lgbn+p8fvAJ3UxG5e3E8
U4+N82ADzbnyMQ==
-----END CERTIFICATE-----
