Certificate:
    Data:
        Version: 3 (0x2)
        Serial Number: 268435642 (0x100000ba)
    Signature Algorithm: sha1WithRSAEncryption
        Issuer: C=DE, ST=Hessen, O=privacyidea, CN=CA001
        Validity
            Not Before: Nov 26 22:14:35 2015 GMT
            Not After : Nov 25 22:14:35 2016 GMT
        Subject: C=DE, ST=Hessen, O=privacyidea, CN=requester.localdomain
        Subject Public Key Info:
            Public Key Algorithm: rsaEncryption
                Public-Key: (2048 bit)
                Modulus:
                    00:cd:be:14:4f:fa:ce:01:3f:42:22:1b:1d:9c:af:
                    dd:92:d2:7f:db:6c:b7:3e:39:43:43:6b:13:03:f1:
                    05:f4:07:74:bc:76:69:28:0b:af:19:8e:d7:fc:e3:
                    cd:c6:58:f2:ca:7f:08:6d:53:fc:07:02:44:24:c6:
                    b4:34:4c:8c:04:fe:33:0e:40:e2:20:ba:02:73:5a:
                    f7:f5:4f:63:6e:cc:c6:b6:df:54:1d:37:39:7d:51:
                    36:26:5f:bd:dc:3f:a8:8b:6b:a2:ae:b6:9d:d6:21:
                    e7:df:41:b8:7a:28:2a:68:48:ca:a8:2d:ed:e1:e9:
                    46:5e:5a:72:6d:b4:84:38:87:91:fd:94:11:0b:28:
                    84:c6:c2:2f:2a:fb:01:f9:36:7a:09:75:d1:33:88:
                    3c:73:41:5b:c8:bf:94:89:70:a1:f0:c0:b9:2e:50:
                    53:1e:b1:17:64:69:f4:2d:81:e0:a9:0d:0e:32:e9:
                    ba:55:8a:85:f1:1b:6f:49:79:b4:7f:88:c3:0d:3e:
                    54:88:9b:3d:1f:38:8c:04:f3:ee:6a:63:2b:f5:c6:
                    db:b4:83:aa:c4:78:41:3a:7d:4b:e1:c8:3e:71:ca:
                    1b:61:59:ea:c6:c4:ca:32:5e:c9:e9:bf:12:29:e6:
                    c6:c3:63:fe:a0:55:da:7a:f1:60:98:4d:26:ed:fa:
                    70:2d
                Exponent: 65537 (0x10001)
        X509v3 extensions:
            X509v3 Key Usage: 
                Digital Signature, Key Encipherment
            X509v3 Basic Constraints: 
                CA:FALSE
            Netscape Cert Type: 
                SSL Server
            Netscape Comment: 
                OpenSSL Generated Server Certificate
            X509v3 Subject Key Identifier: 
                53:3F:ED:5D:09:07:B3:65:7B:AB:45:C9:24:5B:09:77:80:0A:96:ED
            X509v3 Authority Key Identifier: 
                keyid:F4:A7:C0:CC:91:46:AF:64:F3:91:F2:27:F8:C8:B2:6F:8A:87:32:73
                DirName:/C=DE/ST=Hessen/O=privacyidea/CN=CA001
                serial:FB:C8:EB:AC:83:CD:12:07

            X509v3 Extended Key Usage: 
                TLS Web Server Authentication
    Signature Algorithm: sha1WithRSAEncryption
         bc:21:fa:80:b6:b2:31:30:71:ff:43:c5:4e:7f:7f:15:81:f8:
         25:82:cd:eb:fa:ad:2e:e2:c0:93:7f:af:2e:6f:38:dc:51:86:
         0f:a1:8c:6d:bc:0e:d7:e5:24:eb:82:2d:6e:37:05:4b:c0:44:
         a2:0b:86:8e:65:3f:8b:3f:d5:f7:f5:38:6b:60:5d:e6:98:d5:
         02:11:f9:ae:6c:80:92:05:65:ea:6f:d4:e0:96:06:96:6e:4e:
         84:af:c0:e9:3a:53:13:d9:60:48:f9:31:4d:a7:3e:84:51:de:
         b6:73:93:74:d9:97:9b:ef:12:82:8f:98:de:4a:5d:8a:07:72:
         ab:17:49:01:1d:44:a0:bd:ad:4e:f2:d9:7b:7c:03:56:25:f5:
         47:c3:7b:80:13:99:9d:8a:11:96:ae:7c:e5:f6:a8:81:4d:a9:
         67:36:bf:52:ad:75:76:95:ee:95:7b:3f:12:a1:f0:31:02:29:
         cb:38:2c:c3:f6:44:5c:29:b9:1f:c8:05:c8:83:f2:75:db:66:
         8d:91:59:a4:69:b6:7e:47:0c:66:d5:12:9f:21:bd:44:6a:2f:
         61:5c:f8:c6:8a:74:f8:ab:b2:f8:c5:09:73:2c:8d:af:60:21:
         3e:5d:69:1d:58:e7:7c:5c:90:31:a7:8f:65:25:ce:41:93:02:
         14:94:1d:e7
-----BEGIN CERTIFICATE-----
MIIEJjCCAw6gAwIBAgIEEAAAujANBgkqhkiG9w0BAQUFADBEMQswCQYDVQQGEwJE
RTEPMA0GA1UECAwGSGVzc2VuMRQwEgYDVQQKDAtwcml2YWN5aWRlYTEOMAwGA1UE
AwwFQ0EwMDEwHhcNMTUxMTI2MjIxNDM1WhcNMTYxMTI1MjIxNDM1WjBUMQswCQYD
VQQGEwJERTEPMA0GA1UECAwGSGVzc2VuMRQwEgYDVQQKDAtwcml2YWN5aWRlYTEe
MBwGA1UEAwwVcmVxdWVzdGVyLmxvY2FsZG9tYWluMIIBIjANBgkqhkiG9w0BAQEF
AAOCAQ8AMIIBCgKCAQEAzb4UT/rOAT9CIhsdnK/dktJ/22y3PjlDQ2sTA/EF9Ad0
vHZpKAuvGY7X/OPNxljyyn8IbVP8BwJEJMa0NEyMBP4zDkDiILoCc1r39U9jbszG
tt9UHTc5fVE2Jl+93D+oi2uirrad1iHn30G4eigqaEjKqC3t4elGXlpybbSEOIeR
/ZQRCyiExsIvKvsB+TZ6CXXRM4g8c0FbyL+UiXCh8MC5LlBTHrEXZGn0LYHgqQ0O
Mum6VYqF8RtvSXm0f4jDDT5UiJs9HziMBPPuamMr9cbbtIOqxHhBOn1L4cg+ccob
YVnqxsTKMl7J6b8SKebGw2P+oFXaevFgmE0m7fpwLQIDAQABo4IBDjCCAQowCwYD
VR0PBAQDAgWgMAkGA1UdEwQCMAAwEQYJYIZIAYb4QgEBBAQDAgZAMDMGCWCGSAGG
+EIBDQQmFiRPcGVuU1NMIEdlbmVyYXRlZCBTZXJ2ZXIgQ2VydGlmaWNhdGUwHQYD
VR0OBBYEFFM/7V0JB7Nle6tFySRbCXeACpbtMHQGA1UdIwRtMGuAFPSnwMyRRq9k
85HyJ/jIsm+KhzJzoUikRjBEMQswCQYDVQQGEwJERTEPMA0GA1UECAwGSGVzc2Vu
MRQwEgYDVQQKDAtwcml2YWN5aWRlYTEOMAwGA1UEAwwFQ0EwMDGCCQD7yOusg80S
BzATBgNVHSUEDDAKBggrBgEFBQcDATANBgkqhkiG9w0BAQUFAAOCAQEAvCH6gLay
MTBx/0PFTn9/FYH4JYLN6/qtLuLAk3+vLm843FGGD6GMbbwO1+Uk64ItbjcFS8BE
oguGjmU/iz/V9/U4a2Bd5pjVAhH5rmyAkgVl6m/U4JYGlm5OhK/A6TpTE9lgSPkx
Tac+hFHetnOTdNmXm+8Sgo+Y3kpdigdyqxdJAR1EoL2tTvLZe3wDViX1R8N7gBOZ
nYoRlq585faogU2pZza/Uq11dpXulXs/EqHwMQIpyzgsw/ZEXCm5H8gFyIPyddtm
jZFZpGm2fkcMZtUSnyG9RGovYVz4xop0+Kuy+MUJcyyNr2AhPl1pHVjnfFyQMaeP
ZSXOQZMCFJQd5w==
-----END CERTIFICATE-----
