Certificate:
    Data:
        Version: 3 (0x2)
        Serial Number: 268435640 (0x100000b8)
    Signature Algorithm: sha1WithRSAEncryption
        Issuer: C=DE, ST=Hessen, O=privacyidea, CN=CA001
        Validity
            Not Before: Nov 26 22:12:27 2015 GMT
            Not After : Nov 25 22:12:27 2016 GMT
        Subject: C=DE, ST=Hessen, O=privacyidea, CN=usercert
        Subject Public Key Info:
            Public Key Algorithm: rsaEncryption
                Public-Key: (2048 bit)
                Modulus:
                    00:dc:2f:d1:5f:29:97:d4:7c:c3:53:c8:30:bd:4b:
                    67:70:2c:24:6b:b8:5e:eb:21:7a:48:12:56:7c:81:
                    5c:48:75:b6:68:eb:f6:f2:98:4e:50:51:d1:7f:6c:
                    73:f3:0a:a7:ae:be:48:5e:e5:d6:e1:d9:2a:7c:32:
                    6e:4e:fd:08:f6:5a:54:49:23:73:c3:b9:07:18:d1:
                    ef:b3:ac:f8:8a:dc:94:96:a4:90:3a:8e:74:df:e6:
                    0d:37:1b:bd:5b:b7:25:1a:56:39:da:6f:91:aa:5e:
                    1c:74:f3:f9:7c:14:01:83:12:65:76:c7:bb:fe:36:
                    5b:95:e9:72:65:83:ed:3e:98:30:71:fa:87:dd:a3:
                    36:5a:30:03:2e:26:e0:61:d1:bf:02:3f:b6:06:1f:
                    4a:89:28:1c:5c:a2:ff:4e:be:94:e6:8c:e0:da:82:
                    f1:9d:29:32:48:30:73:b4:04:f6:42:1e:be:f7:e2:
                    32:32:27:3c:9d:89:2f:70:3e:85:9a:6f:5c:c5:09:
                    c0:8c:32:2f:72:22:c9:d2:95:1f:b6:ac:72:60:72:
                    b7:82:4d:6b:ce:5b:e3:00:d0:d2:2f:58:c6:e0:10:
                    e5:51:ca:4d:3b:2e:e6:7e:ab:84:d6:56:f1:93:35:
                    a0:93:64:26:81:75:2f:91:b5:16:06:38:0b:db:cc:
                    2d:07
                Exponent: 65537 (0x10001)
        X509v3 extensions:
            X509v3 Key Usage: 
                Digital Signature, Key Encipherment
            X509v3 Basic Constraints: 
                CA:FALSE
            Netscape Cert Type: 
                SSL Server
            Netscape Comment: 
                OpenSSL Generated Server Certificate
            X509v3 Subject Key Identifier: 
                FC:14:D1:F0:4B:8D:00:90:F2:F5:B8:71:9E:4E:97:C3:92:54:AD:0B
            X509v3 Authority Key Identifier: 
                keyid:F4:A7:C0:CC:91:46:AF:64:F3:91:F2:27:F8:C8:B2:6F:8A:87:32:73
                DirName:/C=DE/ST=Hessen/O=privacyidea/CN=CA001
                serial:FB:C8:EB:AC:83:CD:12:07

            X509v3 Extended Key Usage: 
                TLS Web Server Authentication
    Signature Algorithm: sha1WithRSAEncryption
         46:0e:6e:b0:36:8a:74:14:b9:16:51:e3:6a:15:3f:f3:9c:8f:
         16:2e:05:28:13:e9:93:98:06:f7:2f:30:a3:96:2a:28:9a:79:
         5e:c9:8f:66:89:e0:c9:04:2c:be:47:70:44:c5:9a:bc:59:5a:
         9a:fd:72:32:cf:9e:8d:84:63:77:7e:93:c4:d6:3f:f3:b7:e6:
         1b:2c:42:8e:9f:d4:86:b6:53:a8:b1:45:da:03:7d:60:dc:68:
         fc:fc:cd:d3:b1:6a:01:3f:c4:b9:3c:a1:b5:bc:80:f1:4f:21:
         8b:61:5f:31:fd:e0:1b:8e:6a:90:41:1e:19:91:a0:9b:55:6e:
         24:b9:ee:c2:aa:97:42:7f:89:80:34:c1:61:f7:be:f8:e1:94:
         f1:59:f2:2c:6a:fc:5f:2d:2f:d4:ee:8c:0f:2b:83:74:0c:e7:
         92:48:f7:6b:55:a6:dc:f8:f8:a4:12:7c:79:b0:17:33:81:e9:
         f3:61:9f:46:7d:9e:81:b0:82:a8:53:0c:b4:67:ed:3f:72:12:
         19:de:e9:2e:83:8c:b3:f5:da:37:dc:c6:14:eb:62:9e:94:e6:
         14:da:d6:ec:51:ba:7e:c0:2d:21:ae:42:69:b0:ac:4a:da:f9:
         53:dd:74:57:da:b6:51:60:c8:84:13:ef:10:84:87:2a:52:44:
         c5:a3:35:6a
-----BEGIN CERTIFICATE-----
MIIEGTCCAwGgAwIBAgIEEAAAuDANBgkqhkiG9w0BAQUFADBEMQswCQYDVQQGEwJE
RTEPMA0GA1UECAwGSGVzc2VuMRQwEgYDVQQKDAtwcml2YWN5aWRlYTEOMAwGA1UE
AwwFQ0EwMDEwHhcNMTUxMTI2MjIxMjI3WhcNMTYxMTI1MjIxMjI3WjBHMQswCQYD
VQQGEwJERTEPMA0GA1UECAwGSGVzc2VuMRQwEgYDVQQKDAtwcml2YWN5aWRlYTER
MA8GA1UEAwwIdXNlcmNlcnQwggEiMA0GCSqGSIb3DQEBAQUAA4IBDwAwggEKAoIB
AQDcL9FfKZfUfMNTyDC9S2dwLCRruF7rIXpIElZ8gVxIdbZo6/bymE5QUdF/bHPz
Cqeuvkhe5dbh2Sp8Mm5O/Qj2WlRJI3PDuQcY0e+zrPiK3JSWpJA6jnTf5g03G71b
tyUaVjnab5GqXhx08/l8FAGDEmV2x7v+NluV6XJlg+0+mDBx+ofdozZaMAMuJuBh
0b8CP7YGH0qJKBxcov9OvpTmjODagvGdKTJIMHO0BPZCHr734jIyJzydiS9wPoWa
b1zFCcCMMi9yIsnSlR+2rHJgcreCTWvOW+MA0NIvWMbgEOVRyk07LuZ+q4TWVvGT
NaCTZCaBdS+RtRYGOAvbzC0HAgMBAAGjggEOMIIBCjALBgNVHQ8EBAMCBaAwCQYD
VR0TBAIwADARBglghkgBhvhCAQEEBAMCBkAwMwYJYIZIAYb4QgENBCYWJE9wZW5T
U0wgR2VuZXJhdGVkIFNlcnZlciBDZXJ0aWZpY2F0ZTAdBgNVHQ4EFgQU/BTR8EuN
AJDy9bhxnk6Xw5JUrQswdAYDVR0jBG0wa4AU9KfAzJFGr2TzkfIn+Miyb4qHMnOh
SKRGMEQxCzAJBgNVBAYTAkRFMQ8wDQYDVQQIDAZIZXNzZW4xFDASBgNVBAoMC3By
aXZhY3lpZGVhMQ4wDAYDVQQDDAVDQTAwMYIJAPvI66yDzRIHMBMGA1UdJQQMMAoG
CCsGAQUFBwMBMA0GCSqGSIb3DQEBBQUAA4IBAQBGDm6wNop0FLkWUeNqFT/znI8W
LgUoE+mTmAb3LzCjlioomnleyY9mieDJBCy+R3BExZq8WVqa/XIyz56NhGN3fpPE
1j/zt+YbLEKOn9SGtlOosUXaA31g3Gj8/M3TsWoBP8S5PKG1vIDxTyGLYV8x/eAb
jmqQQR4ZkaCbVW4kue7CqpdCf4mANMFh97744ZTxWfIsavxfLS/U7owPK4N0DOeS
SPdrVabc+PikEnx5sBczgenzYZ9GfZ6BsIKoUwy0Z+0/chIZ3ukug4yz9do33MYU
62KelOYU2tbsUbp+wC0hrkJpsKxK2vlT3XRX2rZRYMiEE+8QhIcqUkTFozVq
-----END CERTIFICATE-----
