Certificate:
    Data:
        Version: 3 (0x2)
        Serial Number: 268435607 (0x10000097)
    Signature Algorithm: sha1WithRSAEncryption
        Issuer: C=DE, ST=Hessen, O=privacyidea, CN=CA001
        Validity
            Not Before: Sep 27 07:46:14 2015 GMT
            Not After : Sep 26 07:46:14 2016 GMT
        Subject: C=DE, ST=Hessen, O=privacyidea, CN=requester.localdomain
        Subject Public Key Info:
            Public Key Algorithm: rsaEncryption
                Public-Key: (2048 bit)
                Modulus:
                    00:cd:be:14:4f:fa:ce:01:3f:42:22:1b:1d:9c:af:
                    dd:92:d2:7f:db:6c:b7:3e:39:43:43:6b:13:03:f1:
                    05:f4:07:74:bc:76:69:28:0b:af:19:8e:d7:fc:e3:
                    cd:c6:58:f2:ca:7f:08:6d:53:fc:07:02:44:24:c6:
                    b4:34:4c:8c:04:fe:33:0e:40:e2:20:ba:02:73:5a:
                    f7:f5:4f:63:6e:cc:c6:b6:df:54:1d:37:39:7d:51:
                    36:26:5f:bd:dc:3f:a8:8b:6b:a2:ae:b6:9d:d6:21:
                    e7:df:41:b8:7a:28:2a:68:48:ca:a8:2d:ed:e1:e9:
                    46:5e:5a:72:6d:b4:84:38:87:91:fd:94:11:0b:28:
                    84:c6:c2:2f:2a:fb:01:f9:36:7a:09:75:d1:33:88:
                    3c:73:41:5b:c8:bf:94:89:70:a1:f0:c0:b9:2e:50:
                    53:1e:b1:17:64:69:f4:2d:81:e0:a9:0d:0e:32:e9:
                    ba:55:8a:85:f1:1b:6f:49:79:b4:7f:88:c3:0d:3e:
                    54:88:9b:3d:1f:38:8c:04:f3:ee:6a:63:2b:f5:c6:
                    db:b4:83:aa:c4:78:41:3a:7d:4b:e1:c8:3e:71:ca:
                    1b:61:59:ea:c6:c4:ca:32:5e:c9:e9:bf:12:29:e6:
                    c6:c3:63:fe:a0:55:da:7a:f1:60:98:4d:26:ed:fa:
                    70:2d
                Exponent: 65537 (0x10001)
        X509v3 extensions:
            X509v3 Key Usage: 
                Digital Signature, Key Encipherment
            X509v3 Basic Constraints: 
                CA:FALSE
            Netscape Cert Type: 
                SSL Server
            Netscape Comment: 
                OpenSSL Generated Server Certificate
            X509v3 Subject Key Identifier: 
                53:3F:ED:5D:09:07:B3:65:7B:AB:45:C9:24:5B:09:77:80:0A:96:ED
            X509v3 Authority Key Identifier: 
                keyid:F4:A7:C0:CC:91:46:AF:64:F3:91:F2:27:F8:C8:B2:6F:8A:87:32:73
                DirName:/C=DE/ST=Hessen/O=privacyidea/CN=CA001
                serial:FB:C8:EB:AC:83:CD:12:07

            X509v3 Extended Key Usage: 
                TLS Web Server Authentication
    Signature Algorithm: sha1WithRSAEncryption
         87:73:34:70:72:fd:02:03:fc:d1:0b:55:43:ea:cc:9b:32:ac:
         95:6c:7e:3a:2b:57:e1:0f:7b:b1:ba:ca:69:41:a7:90:3f:bd:
         0b:5a:4c:55:1c:99:7c:f8:a6:14:89:15:05:b9:64:b4:a7:f3:
         b0:62:21:25:5d:0f:a3:47:12:90:d2:18:8d:d1:ef:c0:ac:9d:
         22:e3:7a:be:1d:de:af:14:be:76:7d:0c:f5:b2:4f:b9:87:3a:
         09:69:73:5b:19:00:fc:3b:d2:0b:76:35:b2:73:5e:72:ea:7b:
         f8:a2:09:d9:2f:0f:c8:d6:3e:f5:80:39:60:e1:3e:28:bf:c7:
         e1:61:7b:50:74:c1:9e:60:a9:73:f6:9f:c2:88:bf:75:79:b6:
         7a:8a:ef:b0:ac:68:5c:29:65:79:00:76:c7:ee:93:90:7a:20:
         61:d5:87:c5:45:4f:0d:91:1e:10:b5:39:e3:82:12:35:08:90:
         43:9d:80:cd:84:ad:ee:e7:ab:b0:b7:89:db:e3:91:f9:1d:c0:
         49:82:22:7a:a8:82:4f:27:8a:f6:7e:27:53:50:f8:d6:81:c0:
         49:31:b3:08:df:d7:0a:66:8e:59:c3:ac:85:ea:0f:4a:52:93:
         17:01:22:6f:88:77:96:20:7e:19:e7:eb:00:f5:a1:ba:be:9f:
         77:e3:95:72
-----BEGIN CERTIFICATE-----
MIIEJjCCAw6gAwIBAgIEEAAAlzANBgkqhkiG9w0BAQUFADBEMQswCQYDVQQGEwJE
RTEPMA0GA1UECAwGSGVzc2VuMRQwEgYDVQQKDAtwcml2YWN5aWRlYTEOMAwGA1UE
AwwFQ0EwMDEwHhcNMTUwOTI3MDc0NjE0WhcNMTYwOTI2MDc0NjE0WjBUMQswCQYD
VQQGEwJERTEPMA0GA1UECAwGSGVzc2VuMRQwEgYDVQQKDAtwcml2YWN5aWRlYTEe
MBwGA1UEAwwVcmVxdWVzdGVyLmxvY2FsZG9tYWluMIIBIjANBgkqhkiG9w0BAQEF
AAOCAQ8AMIIBCgKCAQEAzb4UT/rOAT9CIhsdnK/dktJ/22y3PjlDQ2sTA/EF9Ad0
vHZpKAuvGY7X/OPNxljyyn8IbVP8BwJEJMa0NEyMBP4zDkDiILoCc1r39U9jbszG
tt9UHTc5fVE2Jl+93D+oi2uirrad1iHn30G4eigqaEjKqC3t4elGXlpybbSEOIeR
/ZQRCyiExsIvKvsB+TZ6CXXRM4g8c0FbyL+UiXCh8MC5LlBTHrEXZGn0LYHgqQ0O
Mum6VYqF8RtvSXm0f4jDDT5UiJs9HziMBPPuamMr9cbbtIOqxHhBOn1L4cg+ccob
YVnqxsTKMl7J6b8SKebGw2P+oFXaevFgmE0m7fpwLQIDAQABo4IBDjCCAQowCwYD
VR0PBAQDAgWgMAkGA1UdEwQCMAAwEQYJYIZIAYb4QgEBBAQDAgZAMDMGCWCGSAGG
+EIBDQQmFiRPcGVuU1NMIEdlbmVyYXRlZCBTZXJ2ZXIgQ2VydGlmaWNhdGUwHQYD
VR0OBBYEFFM/7V0JB7Nle6tFySRbCXeACpbtMHQGA1UdIwRtMGuAFPSnwMyRRq9k
85HyJ/jIsm+KhzJzoUikRjBEMQswCQYDVQQGEwJERTEPMA0GA1UECAwGSGVzc2Vu
MRQwEgYDVQQKDAtwcml2YWN5aWRlYTEOMAwGA1UEAwwFQ0EwMDGCCQD7yOusg80S
BzATBgNVHSUEDDAKBggrBgEFBQcDATANBgkqhkiG9w0BAQUFAAOCAQEAh3M0cHL9
AgP80QtVQ+rMmzKslWx+OitX4Q97sbrKaUGnkD+9C1pMVRyZfPimFIkVBblktKfz
sGIhJV0Po0cSkNIYjdHvwKydIuN6vh3erxS+dn0M9bJPuYc6CWlzWxkA/DvSC3Y1
snNecup7+KIJ2S8PyNY+9YA5YOE+KL/H4WF7UHTBnmCpc/afwoi/dXm2eorvsKxo
XClleQB2x+6TkHogYdWHxUVPDZEeELU544ISNQiQQ52AzYSt7uersLeJ2+OR+R3A
SYIieqiCTyeK9n4nU1D41oHASTGzCN/XCmaOWcOsheoPSlKTFwEib4h3liB+Gefr
APWhur6fd+OVcg==
-----END CERTIFICATE-----
