Certificate:
    Data:
        Version: 3 (0x2)
        Serial Number: 268435654 (0x100000c6)
    Signature Algorithm: sha1WithRSAEncryption
        Issuer: C=DE, ST=Hessen, O=privacyidea, CN=CA001
        Validity
            Not Before: May  4 05:42:35 2016 GMT
            Not After : May  4 05:42:35 2017 GMT
        Subject: CN=Steve Test/emailAddress=steve@openssl.org
        Subject Public Key Info:
            Public Key Algorithm: rsaEncryption
                Public-Key: (2048 bit)
                Modulus:
                    00:d2:81:89:20:51:48:0f:73:f4:11:32:24:d5:1f:
                    1c:fd:5c:f5:b6:e6:c5:f0:52:81:dc:d2:af:66:4a:
                    7c:93:31:61:5c:af:d1:6d:06:70:03:60:7c:72:0c:
                    88:dd:49:cd:9e:02:6c:d2:5a:d7:53:0f:f3:da:be:
                    69:64:b5:0f:0c:00:e3:b3:50:47:a3:b3:9b:ba:13:
                    50:d6:58:5a:4b:ab:39:e0:11:ca:0a:27:67:03:78:
                    22:66:6d:92:1e:1b:5c:49:ae:e6:6b:d1:8e:3b:9d:
                    06:d3:c6:ac:4d:53:43:10:ab:e8:96:c1:87:82:97:
                    99:8f:20:d3:99:12:37:31:84:e1:8a:ff:29:03:5f:
                    22:90:3e:7f:9b:e0:20:c1:ad:dc:ae:4c:39:1a:31:
                    96:17:02:8c:b2:d9:b4:0d:20:12:9b:7d:86:54:fd:
                    33:fd:c1:2a:62:46:f8:60:96:cf:6e:01:6f:22:df:
                    13:47:e7:97:ec:05:72:23:a3:62:f8:fa:ef:ac:9c:
                    72:f0:37:cb:2f:37:cf:90:a8:27:51:86:c6:d7:78:
                    08:8f:7e:25:a2:15:70:a2:fb:1c:b6:15:5e:a0:97:
                    8b:81:4c:09:28:8a:27:3b:94:bc:71:db:5b:71:37:
                    9a:2b:16:e0:6f:b5:c9:f5:4b:4f:20:ba:65:cf:af:
                    ad:ad
                Exponent: 65537 (0x10001)
        X509v3 extensions:
            X509v3 Key Usage: 
                Digital Signature, Key Encipherment
            X509v3 Basic Constraints: 
                CA:FALSE
            Netscape Cert Type: 
                SSL Server
            Netscape Comment: 
                OpenSSL Generated Server Certificate
            X509v3 Subject Key Identifier: 
                E5:25:6D:3E:AF:0D:DD:3F:4C:F2:45:19:39:D5:14:DB:7E:9C:C0:AD
            X509v3 Authority Key Identifier: 
                keyid:F4:A7:C0:CC:91:46:AF:64:F3:91:F2:27:F8:C8:B2:6F:8A:87:32:73
                DirName:/C=DE/ST=Hessen/O=privacyidea/CN=CA001
                serial:FB:C8:EB:AC:83:CD:12:07

            X509v3 Extended Key Usage: 
                TLS Web Server Authentication
    Signature Algorithm: sha1WithRSAEncryption
         8b:af:0c:3b:23:ec:a7:92:1d:3f:fa:06:36:a6:6a:b6:41:0c:
         c6:14:14:e8:dd:67:b6:56:79:df:f0:34:e9:d5:3f:04:b6:af:
         d0:59:fd:2a:b9:30:ee:0c:7d:0f:0d:5f:b1:a5:0e:b3:4e:d2:
         ba:b0:05:43:ee:04:bb:93:83:41:7b:de:a1:89:31:5f:de:23:
         32:74:22:0b:65:0a:ad:13:06:a7:0c:8c:96:1c:8a:3b:c3:59:
         f0:b6:76:bd:06:39:ee:98:c4:ea:13:83:a5:68:d0:70:0f:54:
         5f:6f:61:8e:25:5d:e0:79:84:e9:8b:35:d2:8d:ad:fa:4c:29:
         e6:f6:6f:24:8d:36:7a:3d:2e:52:6f:27:47:c5:ce:d2:67:03:
         fd:76:d2:5d:b5:f2:d8:d3:1e:1c:45:55:ee:f8:5e:44:14:6c:
         27:e2:1d:35:80:b7:ee:72:a1:96:48:6e:7a:57:a8:ce:5d:02:
         3f:3c:22:50:ec:64:27:bf:ac:c4:da:41:e6:26:1b:6d:97:0e:
         99:4c:0f:68:56:45:0a:76:dc:c0:aa:d9:73:6b:f3:f0:cd:f7:
         f8:2c:ba:7d:3b:da:07:0a:51:6c:cf:a8:9c:88:c8:12:f4:fe:
         d1:de:4f:43:93:4d:52:69:5b:ac:6f:cc:55:ac:7a:0f:eb:02:
         5b:b7:17:0c
-----BEGIN CERTIFICATE-----
MIIECTCCAvGgAwIBAgIEEAAAxjANBgkqhkiG9w0BAQUFADBEMQswCQYDVQQGEwJE
RTEPMA0GA1UECAwGSGVzc2VuMRQwEgYDVQQKDAtwcml2YWN5aWRlYTEOMAwGA1UE
AwwFQ0EwMDEwHhcNMTYwNTA0MDU0MjM1WhcNMTcwNTA0MDU0MjM1WjA3MRMwEQYD
VQQDEwpTdGV2ZSBUZXN0MSAwHgYJKoZIhvcNAQkBFhFzdGV2ZUBvcGVuc3NsLm9y
ZzCCASIwDQYJKoZIhvcNAQEBBQADggEPADCCAQoCggEBANKBiSBRSA9z9BEyJNUf
HP1c9bbmxfBSgdzSr2ZKfJMxYVyv0W0GcANgfHIMiN1JzZ4CbNJa11MP89q+aWS1
DwwA47NQR6Ozm7oTUNZYWkurOeARygonZwN4ImZtkh4bXEmu5mvRjjudBtPGrE1T
QxCr6JbBh4KXmY8g05kSNzGE4Yr/KQNfIpA+f5vgIMGt3K5MORoxlhcCjLLZtA0g
Ept9hlT9M/3BKmJG+GCWz24BbyLfE0fnl+wFciOjYvj676yccvA3yy83z5CoJ1GG
xtd4CI9+JaIVcKL7HLYVXqCXi4FMCSiKJzuUvHHbW3E3misW4G+1yfVLTyC6Zc+v
ra0CAwEAAaOCAQ4wggEKMAsGA1UdDwQEAwIFoDAJBgNVHRMEAjAAMBEGCWCGSAGG
+EIBAQQEAwIGQDAzBglghkgBhvhCAQ0EJhYkT3BlblNTTCBHZW5lcmF0ZWQgU2Vy
dmVyIENlcnRpZmljYXRlMB0GA1UdDgQWBBTlJW0+rw3dP0zyRRk51RTbfpzArTB0
BgNVHSMEbTBrgBT0p8DMkUavZPOR8if4yLJviocyc6FIpEYwRDELMAkGA1UEBhMC
REUxDzANBgNVBAgMBkhlc3NlbjEUMBIGA1UECgwLcHJpdmFjeWlkZWExDjAMBgNV
BAMMBUNBMDAxggkA+8jrrIPNEgcwEwYDVR0lBAwwCgYIKwYBBQUHAwEwDQYJKoZI
hvcNAQEFBQADggEBAIuvDDsj7KeSHT/6BjamarZBDMYUFOjdZ7ZWed/wNOnVPwS2
r9BZ/Sq5MO4MfQ8NX7GlDrNO0rqwBUPuBLuTg0F73qGJMV/eIzJ0IgtlCq0TBqcM
jJYcijvDWfC2dr0GOe6YxOoTg6Vo0HAPVF9vYY4lXeB5hOmLNdKNrfpMKeb2bySN
Nno9LlJvJ0fFztJnA/120l218tjTHhxFVe74XkQUbCfiHTWAt+5yoZZIbnpXqM5d
Aj88IlDsZCe/rMTaQeYmG22XDplMD2hWRQp23MCq2XNr8/DN9/gsun072gcKUWzP
qJyIyBL0/tHeT0OTTVJpW6xvzFWseg/rAlu3Fww=
-----END CERTIFICATE-----
