Certificate:
    Data:
        Version: 3 (0x2)
        Serial Number: 268435684 (0x100000e4)
        Signature Algorithm: sha256WithRSAEncryption
        Issuer: C=DE, ST=Hessen, O=privacyidea, CN=CA001
        Validity
            Not Before: Oct 24 09:45:49 2019 GMT
            Not After : Oct 23 09:45:49 2020 GMT
        Subject: CN=selfservice,CN=user,O=realm1/emailAddress=meine
        Subject Public Key Info:
            Public Key Algorithm: rsaEncryption
                RSA Public-Key: (2048 bit)
                Modulus:
                    00:cf:3c:d4:33:0e:12:c4:e6:da:cd:b6:56:a1:1c:
                    26:bb:26:1c:8a:4a:73:a8:58:8a:b6:1e:b3:8b:99:
                    d2:1d:07:c2:92:89:79:c0:69:d8:c8:df:28:61:98:
                    1e:b3:fe:ae:2b:bd:78:a9:f7:6e:47:dc:a3:a0:16:
                    8c:85:02:c1:4e:92:fd:72:6e:f0:c8:03:29:9b:b8:
                    00:6e:c0:83:95:c8:34:20:36:9c:b3:e5:e4:e6:76:
                    73:a3:1a:ad:40:96:e0:53:54:00:ec:76:79:9a:c6:
                    0d:7e:b6:bd:29:ec:83:f3:cb:89:a4:cb:6c:00:ba:
                    0c:c5:78:0f:ff:69:b8:94:f4:04:70:43:3f:d8:9e:
                    d7:a7:fb:5d:ce:75:8e:da:e7:c4:07:b1:9d:de:6f:
                    88:4b:b6:4d:9a:cf:f9:bc:fa:9f:cd:32:6d:f6:3a:
                    0b:0d:23:42:78:ec:97:42:bf:0e:4d:60:56:e1:d3:
                    02:f2:19:cb:84:57:90:e5:70:a1:a2:83:35:86:e2:
                    da:86:9f:f9:8a:c4:79:b3:52:28:da:cb:bb:34:ca:
                    d3:da:91:4a:cf:8d:76:a2:b2:6b:9b:f9:96:fd:09:
                    2a:da:11:23:4d:f0:cb:d6:b2:b1:0e:12:6c:9a:19:
                    65:98:87:ca:e4:ee:24:ce:44:ac:90:8f:9d:1b:c5:
                    2a:9d
                Exponent: 65537 (0x10001)
        X509v3 extensions:
            X509v3 Key Usage: 
                Digital Signature, Key Encipherment
            X509v3 Basic Constraints: 
                CA:FALSE
            Netscape Cert Type: 
                SSL Server
            Netscape Comment: 
                OpenSSL Generated Server Certificate
            X509v3 Subject Key Identifier: 
                4D:07:90:AD:FF:1D:0D:E7:1A:DD:D6:2E:FA:BA:34:CB:AA:1F:24:C6
            X509v3 Authority Key Identifier: 
                keyid:F4:A7:C0:CC:91:46:AF:64:F3:91:F2:27:F8:C8:B2:6F:8A:87:32:73
                DirName:/C=DE/ST=Hessen/O=privacyidea/CN=CA001
                serial:FB:C8:EB:AC:83:CD:12:07

            X509v3 Extended Key Usage: 
                TLS Web Server Authentication
    Signature Algorithm: sha256WithRSAEncryption
         7c:f7:95:79:77:01:04:0c:d1:db:9f:0c:c2:79:02:b9:07:d5:
         81:31:6f:4f:31:65:3f:f3:da:cf:66:28:aa:00:c2:a7:b7:0d:
         1e:7e:fd:97:b2:3a:28:4c:d2:93:1e:1d:c8:b5:7c:13:76:9f:
         3d:48:21:a9:34:59:78:c9:91:b3:fd:d8:7f:b4:dd:91:38:43:
         2e:f9:00:23:56:85:8d:06:cf:f6:ff:7d:bc:15:7b:2d:e1:17:
         02:d6:2d:bf:a6:de:1a:fe:c1:7c:39:dd:9e:39:77:fe:e7:bc:
         b2:d8:47:11:7a:81:e3:0f:35:f4:b9:79:b3:0d:42:71:d5:61:
         5f:1d:f7:2c:f3:91:ad:8b:50:2f:9b:a6:6a:c5:79:69:0a:21:
         33:2f:27:cc:9a:eb:4a:58:96:73:36:98:bf:cd:13:c1:a5:14:
         e8:ce:ec:0b:d9:df:36:81:15:a6:e2:86:03:f4:13:05:3a:fb:
         be:a7:e8:25:51:ec:de:42:37:fa:ce:aa:6b:97:9e:21:1c:b4:
         a6:1c:0c:39:ff:69:fa:bc:d8:4f:be:d9:d6:3c:53:86:86:d5:
         bb:a0:b9:ca:b3:d2:79:83:c7:5d:d4:4e:5e:9a:38:71:c5:f7:
         4b:9c:2e:7a:a8:a6:08:b1:2e:2c:ad:ca:12:28:dd:2b:7b:2c:
         ec:c6:a4:e3
-----BEGIN CERTIFICATE-----
MIIEDzCCAvegAwIBAgIEEAAA5DANBgkqhkiG9w0BAQsFADBEMQswCQYDVQQGEwJE
RTEPMA0GA1UECAwGSGVzc2VuMRQwEgYDVQQKDAtwcml2YWN5aWRlYTEOMAwGA1UE
AwwFQ0EwMDEwHhcNMTkxMDI0MDk0NTQ5WhcNMjAxMDIzMDk0NTQ5WjA9MSUwIwYD
VQQDDBxzZWxmc2VydmljZSxDTj11c2VyLE89cmVhbG0xMRQwEgYJKoZIhvcNAQkB
FgVtZWluZTCCASIwDQYJKoZIhvcNAQEBBQADggEPADCCAQoCggEBAM881DMOEsTm
2s22VqEcJrsmHIpKc6hYirYes4uZ0h0HwpKJecBp2MjfKGGYHrP+riu9eKn3bkfc
o6AWjIUCwU6S/XJu8MgDKZu4AG7Ag5XINCA2nLPl5OZ2c6MarUCW4FNUAOx2eZrG
DX62vSnsg/PLiaTLbAC6DMV4D/9puJT0BHBDP9ie16f7Xc51jtrnxAexnd5viEu2
TZrP+bz6n80ybfY6Cw0jQnjsl0K/Dk1gVuHTAvIZy4RXkOVwoaKDNYbi2oaf+YrE
ebNSKNrLuzTK09qRSs+NdqKya5v5lv0JKtoRI03wy9aysQ4SbJoZZZiHyuTuJM5E
rJCPnRvFKp0CAwEAAaOCAQ4wggEKMAsGA1UdDwQEAwIFoDAJBgNVHRMEAjAAMBEG
CWCGSAGG+EIBAQQEAwIGQDAzBglghkgBhvhCAQ0EJhYkT3BlblNTTCBHZW5lcmF0
ZWQgU2VydmVyIENlcnRpZmljYXRlMB0GA1UdDgQWBBRNB5Ct/x0N5xrd1i76ujTL
qh8kxjB0BgNVHSMEbTBrgBT0p8DMkUavZPOR8if4yLJviocyc6FIpEYwRDELMAkG
A1UEBhMCREUxDzANBgNVBAgMBkhlc3NlbjEUMBIGA1UECgwLcHJpdmFjeWlkZWEx
DjAMBgNVBAMMBUNBMDAxggkA+8jrrIPNEgcwEwYDVR0lBAwwCgYIKwYBBQUHAwEw
DQYJKoZIhvcNAQELBQADggEBAHz3lXl3AQQM0dufDMJ5ArkH1YExb08xZT/z2s9m
KKoAwqe3DR5+/ZeyOihM0pMeHci1fBN2nz1IIak0WXjJkbP92H+03ZE4Qy75ACNW
hY0Gz/b/fbwVey3hFwLWLb+m3hr+wXw53Z45d/7nvLLYRxF6geMPNfS5ebMNQnHV
YV8d9yzzka2LUC+bpmrFeWkKITMvJ8ya60pYlnM2mL/NE8GlFOjO7AvZ3zaBFabi
hgP0EwU6+76n6CVR7N5CN/rOqmuXniEctKYcDDn/afq82E++2dY8U4aG1bugucqz
0nmDx13UTl6aOHHF90ucLnqopgixLiytyhIo3St7LOzGpOM=
-----END CERTIFICATE-----
