Certificate:
    Data:
        Version: 3 (0x2)
        Serial Number: 268435721 (0x10000109)
    Signature Algorithm: sha256WithRSAEncryption
        Issuer: C=DE, ST=Hessen, O=privacyidea, CN=CA001
        Validity
            Not Before: Jan  9 23:01:12 2019 GMT
            Not After : Jan  9 23:01:12 2020 GMT
        Subject: CN=Steve Test/emailAddress=steve@openssl.org
        Subject Public Key Info:
            Public Key Algorithm: rsaEncryption
                Public-Key: (2048 bit)
                Modulus:
                    00:d2:81:89:20:51:48:0f:73:f4:11:32:24:d5:1f:
                    1c:fd:5c:f5:b6:e6:c5:f0:52:81:dc:d2:af:66:4a:
                    7c:93:31:61:5c:af:d1:6d:06:70:03:60:7c:72:0c:
                    88:dd:49:cd:9e:02:6c:d2:5a:d7:53:0f:f3:da:be:
                    69:64:b5:0f:0c:00:e3:b3:50:47:a3:b3:9b:ba:13:
                    50:d6:58:5a:4b:ab:39:e0:11:ca:0a:27:67:03:78:
                    22:66:6d:92:1e:1b:5c:49:ae:e6:6b:d1:8e:3b:9d:
                    06:d3:c6:ac:4d:53:43:10:ab:e8:96:c1:87:82:97:
                    99:8f:20:d3:99:12:37:31:84:e1:8a:ff:29:03:5f:
                    22:90:3e:7f:9b:e0:20:c1:ad:dc:ae:4c:39:1a:31:
                    96:17:02:8c:b2:d9:b4:0d:20:12:9b:7d:86:54:fd:
                    33:fd:c1:2a:62:46:f8:60:96:cf:6e:01:6f:22:df:
                    13:47:e7:97:ec:05:72:23:a3:62:f8:fa:ef:ac:9c:
                    72:f0:37:cb:2f:37:cf:90:a8:27:51:86:c6:d7:78:
                    08:8f:7e:25:a2:15:70:a2:fb:1c:b6:15:5e:a0:97:
                    8b:81:4c:09:28:8a:27:3b:94:bc:71:db:5b:71:37:
                    9a:2b:16:e0:6f:b5:c9:f5:4b:4f:20:ba:65:cf:af:
                    ad:ad
                Exponent: 65537 (0x10001)
        X509v3 extensions:
            X509v3 Key Usage: 
                Digital Signature, Key Encipherment
            X509v3 Basic Constraints: 
                CA:FALSE
            Netscape Cert Type: 
                SSL Server
            Netscape Comment: 
                OpenSSL Generated Server Certificate
            X509v3 Subject Key Identifier: 
                E5:25:6D:3E:AF:0D:DD:3F:4C:F2:45:19:39:D5:14:DB:7E:9C:C0:AD
            X509v3 Authority Key Identifier: 
                keyid:F4:A7:C0:CC:91:46:AF:64:F3:91:F2:27:F8:C8:B2:6F:8A:87:32:73
                DirName:/C=DE/ST=Hessen/O=privacyidea/CN=CA001
                serial:FB:C8:EB:AC:83:CD:12:07

            X509v3 Extended Key Usage: 
                TLS Web Server Authentication
    Signature Algorithm: sha256WithRSAEncryption
         65:d1:b7:0d:64:70:d3:4b:30:b0:57:de:dc:2d:de:a4:1d:7d:
         f5:e6:c8:87:b5:8a:c9:ea:b0:4b:16:ab:83:46:f5:69:7d:d8:
         6e:e8:82:72:af:15:3e:a8:27:33:c5:25:d5:b5:db:cb:81:39:
         77:9a:cb:f1:ae:6b:d5:71:92:f4:87:c8:14:a7:04:ae:c0:82:
         5f:f1:da:92:c5:ea:6e:77:b3:da:34:3c:ee:6d:cc:fb:46:6a:
         fc:54:5a:8f:9d:d1:a9:4b:03:47:af:e0:d8:02:05:df:78:f9:
         d8:71:e8:6e:93:ed:4e:37:a2:48:2c:a2:34:92:ac:42:b6:86:
         40:55:2c:d6:e5:d3:ea:c8:2d:2b:a8:bf:57:35:70:a6:dd:30:
         22:4c:1e:b9:db:49:31:20:09:d7:53:86:56:10:2e:72:2e:c6:
         53:a3:d8:4c:0f:b6:86:bc:91:c1:d5:e1:05:90:3b:df:5e:23:
         ff:4c:b0:cf:fc:f5:7c:8f:b0:c7:a8:cf:a7:5a:36:f2:20:c0:
         3c:05:2b:82:c2:32:59:a8:9c:47:a9:87:3e:2c:94:fd:de:c1:
         4f:23:f8:6d:9c:00:f4:73:38:34:44:83:fb:2d:28:cb:09:ea:
         f5:4b:ea:d0:c0:ff:21:e2:6a:bb:28:7e:5d:a0:69:26:2e:23:
         3a:57:06:e4
-----BEGIN CERTIFICATE-----
MIIECTCCAvGgAwIBAgIEEAABCTANBgkqhkiG9w0BAQsFADBEMQswCQYDVQQGEwJE
RTEPMA0GA1UECAwGSGVzc2VuMRQwEgYDVQQKDAtwcml2YWN5aWRlYTEOMAwGA1UE
AwwFQ0EwMDEwHhcNMTkwMTA5MjMwMTEyWhcNMjAwMTA5MjMwMTEyWjA3MRMwEQYD
VQQDDApTdGV2ZSBUZXN0MSAwHgYJKoZIhvcNAQkBFhFzdGV2ZUBvcGVuc3NsLm9y
ZzCCASIwDQYJKoZIhvcNAQEBBQADggEPADCCAQoCggEBANKBiSBRSA9z9BEyJNUf
HP1c9bbmxfBSgdzSr2ZKfJMxYVyv0W0GcANgfHIMiN1JzZ4CbNJa11MP89q+aWS1
DwwA47NQR6Ozm7oTUNZYWkurOeARygonZwN4ImZtkh4bXEmu5mvRjjudBtPGrE1T
QxCr6JbBh4KXmY8g05kSNzGE4Yr/KQNfIpA+f5vgIMGt3K5MORoxlhcCjLLZtA0g
Ept9hlT9M/3BKmJG+GCWz24BbyLfE0fnl+wFciOjYvj676yccvA3yy83z5CoJ1GG
xtd4CI9+JaIVcKL7HLYVXqCXi4FMCSiKJzuUvHHbW3E3misW4G+1yfVLTyC6Zc+v
ra0CAwEAAaOCAQ4wggEKMAsGA1UdDwQEAwIFoDAJBgNVHRMEAjAAMBEGCWCGSAGG
+EIBAQQEAwIGQDAzBglghkgBhvhCAQ0EJhYkT3BlblNTTCBHZW5lcmF0ZWQgU2Vy
dmVyIENlcnRpZmljYXRlMB0GA1UdDgQWBBTlJW0+rw3dP0zyRRk51RTbfpzArTB0
BgNVHSMEbTBrgBT0p8DMkUavZPOR8if4yLJviocyc6FIpEYwRDELMAkGA1UEBhMC
REUxDzANBgNVBAgMBkhlc3NlbjEUMBIGA1UECgwLcHJpdmFjeWlkZWExDjAMBgNV
BAMMBUNBMDAxggkA+8jrrIPNEgcwEwYDVR0lBAwwCgYIKwYBBQUHAwEwDQYJKoZI
hvcNAQELBQADggEBAGXRtw1kcNNLMLBX3twt3qQdffXmyIe1isnqsEsWq4NG9Wl9
2G7ognKvFT6oJzPFJdW128uBOXeay/Gua9VxkvSHyBSnBK7Agl/x2pLF6m53s9o0
PO5tzPtGavxUWo+d0alLA0ev4NgCBd94+dhx6G6T7U43okgsojSSrEK2hkBVLNbl
0+rILSuov1c1cKbdMCJMHrnbSTEgCddThlYQLnIuxlOj2EwPtoa8kcHV4QWQO99e
I/9MsM/89XyPsMeoz6daNvIgwDwFK4LCMlmonEephz4slP3ewU8j+G2cAPRzODRE
g/stKMsJ6vVL6tDA/yHiarsofl2gaSYuIzpXBuQ=
-----END CERTIFICATE-----
