Certificate:
    Data:
        Version: 3 (0x2)
        Serial Number: 268435746 (0x10000122)
    Signature Algorithm: sha256WithRSAEncryption
        Issuer: C=DE, ST=Hessen, O=privacyidea, CN=CA001
        Validity
            Not Before: Jan 10 06:29:47 2019 GMT
            Not After : Jan 29 06:29:47 2021 GMT
        Subject: CN=Steve Test/emailAddress=steve@openssl.org
        Subject Public Key Info:
            Public Key Algorithm: rsaEncryption
                Public-Key: (2048 bit)
                Modulus:
                    00:d2:81:89:20:51:48:0f:73:f4:11:32:24:d5:1f:
                    1c:fd:5c:f5:b6:e6:c5:f0:52:81:dc:d2:af:66:4a:
                    7c:93:31:61:5c:af:d1:6d:06:70:03:60:7c:72:0c:
                    88:dd:49:cd:9e:02:6c:d2:5a:d7:53:0f:f3:da:be:
                    69:64:b5:0f:0c:00:e3:b3:50:47:a3:b3:9b:ba:13:
                    50:d6:58:5a:4b:ab:39:e0:11:ca:0a:27:67:03:78:
                    22:66:6d:92:1e:1b:5c:49:ae:e6:6b:d1:8e:3b:9d:
                    06:d3:c6:ac:4d:53:43:10:ab:e8:96:c1:87:82:97:
                    99:8f:20:d3:99:12:37:31:84:e1:8a:ff:29:03:5f:
                    22:90:3e:7f:9b:e0:20:c1:ad:dc:ae:4c:39:1a:31:
                    96:17:02:8c:b2:d9:b4:0d:20:12:9b:7d:86:54:fd:
                    33:fd:c1:2a:62:46:f8:60:96:cf:6e:01:6f:22:df:
                    13:47:e7:97:ec:05:72:23:a3:62:f8:fa:ef:ac:9c:
                    72:f0:37:cb:2f:37:cf:90:a8:27:51:86:c6:d7:78:
                    08:8f:7e:25:a2:15:70:a2:fb:1c:b6:15:5e:a0:97:
                    8b:81:4c:09:28:8a:27:3b:94:bc:71:db:5b:71:37:
                    9a:2b:16:e0:6f:b5:c9:f5:4b:4f:20:ba:65:cf:af:
                    ad:ad
                Exponent: 65537 (0x10001)
        X509v3 extensions:
            X509v3 Key Usage: 
                Digital Signature, Key Encipherment
            X509v3 Basic Constraints: 
                CA:FALSE
            Netscape Cert Type: 
                SSL Server
            Netscape Comment: 
                OpenSSL Generated Server Certificate
            X509v3 Subject Key Identifier: 
                E5:25:6D:3E:AF:0D:DD:3F:4C:F2:45:19:39:D5:14:DB:7E:9C:C0:AD
            X509v3 Authority Key Identifier: 
                keyid:F4:A7:C0:CC:91:46:AF:64:F3:91:F2:27:F8:C8:B2:6F:8A:87:32:73
                DirName:/C=DE/ST=Hessen/O=privacyidea/CN=CA001
                serial:FB:C8:EB:AC:83:CD:12:07

            X509v3 Extended Key Usage: 
                TLS Web Server Authentication
    Signature Algorithm: sha256WithRSAEncryption
         12:44:93:27:6f:d0:b8:67:b2:cf:df:dc:f9:0c:07:ae:18:e7:
         c7:fa:de:ef:c2:30:95:7e:d0:d2:f6:02:e4:22:3e:7d:78:63:
         33:d5:64:ad:b2:d1:29:18:31:34:ea:fb:48:05:e1:07:30:30:
         46:1b:28:0c:b5:af:5c:6b:c2:2a:bc:c4:20:4b:d6:21:c9:a6:
         49:aa:51:4e:5b:16:0e:f2:47:df:7d:71:91:63:71:02:b5:9f:
         e9:05:58:a8:91:8c:9b:16:b3:c7:d1:3e:a3:0b:dd:f1:b8:54:
         ff:c1:b3:39:aa:c3:14:23:4b:2c:43:96:8d:05:b3:03:79:e7:
         57:8f:de:4b:22:e4:57:2e:e1:db:1b:30:d6:4f:7b:7d:96:e3:
         66:e1:6d:fb:fd:b6:c5:2a:37:ad:1a:b9:4a:49:12:40:99:f6:
         30:47:eb:d2:52:cb:69:22:9e:9c:2b:95:5d:db:c2:4c:cc:f5:
         0b:82:79:c2:db:48:74:5c:83:c5:68:c0:8c:06:64:ec:16:be:
         e6:7b:02:2b:ce:36:c7:85:b5:d6:a7:ef:cd:63:be:ae:58:a6:
         7a:82:f3:bf:6b:c5:98:e3:72:98:1e:b4:09:5b:0e:fb:36:9c:
         2a:55:69:69:ba:06:80:6b:9f:23:b5:2e:e3:f9:63:41:ac:1a:
         36:52:33:bf
-----BEGIN CERTIFICATE-----
MIIECTCCAvGgAwIBAgIEEAABIjANBgkqhkiG9w0BAQsFADBEMQswCQYDVQQGEwJE
RTEPMA0GA1UECAwGSGVzc2VuMRQwEgYDVQQKDAtwcml2YWN5aWRlYTEOMAwGA1UE
AwwFQ0EwMDEwHhcNMTkwMTEwMDYyOTQ3WhcNMjEwMTI5MDYyOTQ3WjA3MRMwEQYD
VQQDDApTdGV2ZSBUZXN0MSAwHgYJKoZIhvcNAQkBFhFzdGV2ZUBvcGVuc3NsLm9y
ZzCCASIwDQYJKoZIhvcNAQEBBQADggEPADCCAQoCggEBANKBiSBRSA9z9BEyJNUf
HP1c9bbmxfBSgdzSr2ZKfJMxYVyv0W0GcANgfHIMiN1JzZ4CbNJa11MP89q+aWS1
DwwA47NQR6Ozm7oTUNZYWkurOeARygonZwN4ImZtkh4bXEmu5mvRjjudBtPGrE1T
QxCr6JbBh4KXmY8g05kSNzGE4Yr/KQNfIpA+f5vgIMGt3K5MORoxlhcCjLLZtA0g
Ept9hlT9M/3BKmJG+GCWz24BbyLfE0fnl+wFciOjYvj676yccvA3yy83z5CoJ1GG
xtd4CI9+JaIVcKL7HLYVXqCXi4FMCSiKJzuUvHHbW3E3misW4G+1yfVLTyC6Zc+v
ra0CAwEAAaOCAQ4wggEKMAsGA1UdDwQEAwIFoDAJBgNVHRMEAjAAMBEGCWCGSAGG
+EIBAQQEAwIGQDAzBglghkgBhvhCAQ0EJhYkT3BlblNTTCBHZW5lcmF0ZWQgU2Vy
dmVyIENlcnRpZmljYXRlMB0GA1UdDgQWBBTlJW0+rw3dP0zyRRk51RTbfpzArTB0
BgNVHSMEbTBrgBT0p8DMkUavZPOR8if4yLJviocyc6FIpEYwRDELMAkGA1UEBhMC
REUxDzANBgNVBAgMBkhlc3NlbjEUMBIGA1UECgwLcHJpdmFjeWlkZWExDjAMBgNV
BAMMBUNBMDAxggkA+8jrrIPNEgcwEwYDVR0lBAwwCgYIKwYBBQUHAwEwDQYJKoZI
hvcNAQELBQADggEBABJEkydv0Lhnss/f3PkMB64Y58f63u/CMJV+0NL2AuQiPn14
YzPVZK2y0SkYMTTq+0gF4QcwMEYbKAy1r1xrwiq8xCBL1iHJpkmqUU5bFg7yR999
cZFjcQK1n+kFWKiRjJsWs8fRPqML3fG4VP/BszmqwxQjSyxDlo0FswN551eP3ksi
5Fcu4dsbMNZPe32W42bhbfv9tsUqN60auUpJEkCZ9jBH69JSy2kinpwrlV3bwkzM
9QuCecLbSHRcg8VowIwGZOwWvuZ7AivONseFtdan781jvq5YpnqC879rxZjjcpge
tAlbDvs2nCpVaWm6BoBrnyO1LuP5Y0GsGjZSM78=
-----END CERTIFICATE-----
