Certificate:
    Data:
        Version: 3 (0x2)
        Serial Number: 268435612 (0x1000009c)
    Signature Algorithm: sha1WithRSAEncryption
        Issuer: C=DE, ST=Hessen, O=privacyidea, CN=CA001
        Validity
            Not Before: Sep 27 07:57:55 2015 GMT
            Not After : Sep 26 07:57:55 2016 GMT
        Subject: C=DE, ST=Hessen, O=privacyidea, CN=requester.localdomain
        Subject Public Key Info:
            Public Key Algorithm: rsaEncryption
                Public-Key: (2048 bit)
                Modulus:
                    00:cd:be:14:4f:fa:ce:01:3f:42:22:1b:1d:9c:af:
                    dd:92:d2:7f:db:6c:b7:3e:39:43:43:6b:13:03:f1:
                    05:f4:07:74:bc:76:69:28:0b:af:19:8e:d7:fc:e3:
                    cd:c6:58:f2:ca:7f:08:6d:53:fc:07:02:44:24:c6:
                    b4:34:4c:8c:04:fe:33:0e:40:e2:20:ba:02:73:5a:
                    f7:f5:4f:63:6e:cc:c6:b6:df:54:1d:37:39:7d:51:
                    36:26:5f:bd:dc:3f:a8:8b:6b:a2:ae:b6:9d:d6:21:
                    e7:df:41:b8:7a:28:2a:68:48:ca:a8:2d:ed:e1:e9:
                    46:5e:5a:72:6d:b4:84:38:87:91:fd:94:11:0b:28:
                    84:c6:c2:2f:2a:fb:01:f9:36:7a:09:75:d1:33:88:
                    3c:73:41:5b:c8:bf:94:89:70:a1:f0:c0:b9:2e:50:
                    53:1e:b1:17:64:69:f4:2d:81:e0:a9:0d:0e:32:e9:
                    ba:55:8a:85:f1:1b:6f:49:79:b4:7f:88:c3:0d:3e:
                    54:88:9b:3d:1f:38:8c:04:f3:ee:6a:63:2b:f5:c6:
                    db:b4:83:aa:c4:78:41:3a:7d:4b:e1:c8:3e:71:ca:
                    1b:61:59:ea:c6:c4:ca:32:5e:c9:e9:bf:12:29:e6:
                    c6:c3:63:fe:a0:55:da:7a:f1:60:98:4d:26:ed:fa:
                    70:2d
                Exponent: 65537 (0x10001)
        X509v3 extensions:
            X509v3 Key Usage: 
                Digital Signature, Key Encipherment
            X509v3 Basic Constraints: 
                CA:FALSE
            Netscape Cert Type: 
                SSL Server
            Netscape Comment: 
                OpenSSL Generated Server Certificate
            X509v3 Subject Key Identifier: 
                53:3F:ED:5D:09:07:B3:65:7B:AB:45:C9:24:5B:09:77:80:0A:96:ED
            X509v3 Authority Key Identifier: 
                keyid:F4:A7:C0:CC:91:46:AF:64:F3:91:F2:27:F8:C8:B2:6F:8A:87:32:73
                DirName:/C=DE/ST=Hessen/O=privacyidea/CN=CA001
                serial:FB:C8:EB:AC:83:CD:12:07

            X509v3 Extended Key Usage: 
                TLS Web Server Authentication
    Signature Algorithm: sha1WithRSAEncryption
         45:be:9d:f7:cf:94:d0:68:ad:76:2a:1c:c6:2e:2a:dd:c6:30:
         f9:42:79:ef:0c:48:a3:78:d9:07:7a:fa:d6:82:2b:9a:7f:df:
         cf:74:8f:44:02:59:20:c1:c2:83:4b:89:ef:13:ce:e5:61:db:
         f2:a1:2b:18:10:a1:8c:22:8d:cc:76:68:cd:4a:92:21:d8:9d:
         30:32:4d:1c:46:f5:a7:c4:1f:35:98:25:78:dc:cf:cc:e8:2c:
         72:dd:91:fb:bf:f2:96:3b:67:1b:92:cc:53:be:6a:c3:02:61:
         18:b6:e1:85:b5:74:d3:0c:53:bd:d5:a4:0c:1e:59:8c:5e:36:
         a5:3e:b7:09:e2:90:ae:da:7d:0b:59:a5:4f:ec:df:c9:43:b1:
         dd:c7:b4:09:76:4d:34:f0:36:d6:ba:c6:28:bc:c0:e5:3e:b1:
         3d:9c:64:9f:ea:6f:de:e6:af:f7:b2:5c:0f:70:40:c0:ae:12:
         6e:44:56:33:71:69:08:2f:e1:73:85:4c:e9:ec:46:87:76:02:
         d5:43:47:05:3b:12:7d:36:93:9f:79:bc:33:42:ea:9e:69:ec:
         8b:bd:5a:d5:8f:b0:37:b9:24:e1:98:21:cb:e9:dc:37:3f:32:
         31:6f:a0:30:13:8b:8e:9e:24:5d:e0:a5:75:66:f7:a9:02:d2:
         9d:dc:f6:d8
-----BEGIN CERTIFICATE-----
MIIEJjCCAw6gAwIBAgIEEAAAnDANBgkqhkiG9w0BAQUFADBEMQswCQYDVQQGEwJE
RTEPMA0GA1UECAwGSGVzc2VuMRQwEgYDVQQKDAtwcml2YWN5aWRlYTEOMAwGA1UE
AwwFQ0EwMDEwHhcNMTUwOTI3MDc1NzU1WhcNMTYwOTI2MDc1NzU1WjBUMQswCQYD
VQQGEwJERTEPMA0GA1UECAwGSGVzc2VuMRQwEgYDVQQKDAtwcml2YWN5aWRlYTEe
MBwGA1UEAwwVcmVxdWVzdGVyLmxvY2FsZG9tYWluMIIBIjANBgkqhkiG9w0BAQEF
AAOCAQ8AMIIBCgKCAQEAzb4UT/rOAT9CIhsdnK/dktJ/22y3PjlDQ2sTA/EF9Ad0
vHZpKAuvGY7X/OPNxljyyn8IbVP8BwJEJMa0NEyMBP4zDkDiILoCc1r39U9jbszG
tt9UHTc5fVE2Jl+93D+oi2uirrad1iHn30G4eigqaEjKqC3t4elGXlpybbSEOIeR
/ZQRCyiExsIvKvsB+TZ6CXXRM4g8c0FbyL+UiXCh8MC5LlBTHrEXZGn0LYHgqQ0O
Mum6VYqF8RtvSXm0f4jDDT5UiJs9HziMBPPuamMr9cbbtIOqxHhBOn1L4cg+ccob
YVnqxsTKMl7J6b8SKebGw2P+oFXaevFgmE0m7fpwLQIDAQABo4IBDjCCAQowCwYD
VR0PBAQDAgWgMAkGA1UdEwQCMAAwEQYJYIZIAYb4QgEBBAQDAgZAMDMGCWCGSAGG
+EIBDQQmFiRPcGVuU1NMIEdlbmVyYXRlZCBTZXJ2ZXIgQ2VydGlmaWNhdGUwHQYD
VR0OBBYEFFM/7V0JB7Nle6tFySRbCXeACpbtMHQGA1UdIwRtMGuAFPSnwMyRRq9k
85HyJ/jIsm+KhzJzoUikRjBEMQswCQYDVQQGEwJERTEPMA0GA1UECAwGSGVzc2Vu
MRQwEgYDVQQKDAtwcml2YWN5aWRlYTEOMAwGA1UEAwwFQ0EwMDGCCQD7yOusg80S
BzATBgNVHSUEDDAKBggrBgEFBQcDATANBgkqhkiG9w0BAQUFAAOCAQEARb6d98+U
0Gitdiocxi4q3cYw+UJ57wxIo3jZB3r61oIrmn/fz3SPRAJZIMHCg0uJ7xPO5WHb
8qErGBChjCKNzHZozUqSIdidMDJNHEb1p8QfNZgleNzPzOgsct2R+7/yljtnG5LM
U75qwwJhGLbhhbV00wxTvdWkDB5ZjF42pT63CeKQrtp9C1mlT+zfyUOx3ce0CXZN
NPA21rrGKLzA5T6xPZxkn+pv3uav97JcD3BAwK4SbkRWM3FpCC/hc4VM6exGh3YC
1UNHBTsSfTaTn3m8M0Lqnmnsi71a1Y+wN7kk4Zghy+ncNz8yMW+gMBOLjp4kXeCl
dWb3qQLSndz22A==
-----END CERTIFICATE-----
