Certificate:
    Data:
        Version: 3 (0x2)
        Serial Number: 268435657 (0x100000c9)
    Signature Algorithm: sha1WithRSAEncryption
        Issuer: C=DE, ST=Hessen, O=privacyidea, CN=CA001
        Validity
            Not Before: Jan 22 10:40:01 2017 GMT
            Not After : Jan 22 10:40:01 2018 GMT
        Subject: C=DE, ST=Hessen, O=privacyidea, CN=requester.localdomain
        Subject Public Key Info:
            Public Key Algorithm: rsaEncryption
                Public-Key: (2048 bit)
                Modulus:
                    00:cd:be:14:4f:fa:ce:01:3f:42:22:1b:1d:9c:af:
                    dd:92:d2:7f:db:6c:b7:3e:39:43:43:6b:13:03:f1:
                    05:f4:07:74:bc:76:69:28:0b:af:19:8e:d7:fc:e3:
                    cd:c6:58:f2:ca:7f:08:6d:53:fc:07:02:44:24:c6:
                    b4:34:4c:8c:04:fe:33:0e:40:e2:20:ba:02:73:5a:
                    f7:f5:4f:63:6e:cc:c6:b6:df:54:1d:37:39:7d:51:
                    36:26:5f:bd:dc:3f:a8:8b:6b:a2:ae:b6:9d:d6:21:
                    e7:df:41:b8:7a:28:2a:68:48:ca:a8:2d:ed:e1:e9:
                    46:5e:5a:72:6d:b4:84:38:87:91:fd:94:11:0b:28:
                    84:c6:c2:2f:2a:fb:01:f9:36:7a:09:75:d1:33:88:
                    3c:73:41:5b:c8:bf:94:89:70:a1:f0:c0:b9:2e:50:
                    53:1e:b1:17:64:69:f4:2d:81:e0:a9:0d:0e:32:e9:
                    ba:55:8a:85:f1:1b:6f:49:79:b4:7f:88:c3:0d:3e:
                    54:88:9b:3d:1f:38:8c:04:f3:ee:6a:63:2b:f5:c6:
                    db:b4:83:aa:c4:78:41:3a:7d:4b:e1:c8:3e:71:ca:
                    1b:61:59:ea:c6:c4:ca:32:5e:c9:e9:bf:12:29:e6:
                    c6:c3:63:fe:a0:55:da:7a:f1:60:98:4d:26:ed:fa:
                    70:2d
                Exponent: 65537 (0x10001)
        X509v3 extensions:
            X509v3 Key Usage: 
                Digital Signature, Key Encipherment
            X509v3 Basic Constraints: 
                CA:FALSE
            Netscape Cert Type: 
                SSL Server
            Netscape Comment: 
                OpenSSL Generated Server Certificate
            X509v3 Subject Key Identifier: 
                53:3F:ED:5D:09:07:B3:65:7B:AB:45:C9:24:5B:09:77:80:0A:96:ED
            X509v3 Authority Key Identifier: 
                keyid:F4:A7:C0:CC:91:46:AF:64:F3:91:F2:27:F8:C8:B2:6F:8A:87:32:73
                DirName:/C=DE/ST=Hessen/O=privacyidea/CN=CA001
                serial:FB:C8:EB:AC:83:CD:12:07

            X509v3 Extended Key Usage: 
                TLS Web Server Authentication
    Signature Algorithm: sha1WithRSAEncryption
         9d:b9:53:b1:c5:8d:0f:77:bf:f8:10:0d:27:35:62:a1:4e:41:
         90:9d:e8:46:3f:08:61:ed:df:be:3b:c6:0b:04:f0:06:b5:76:
         4d:64:99:a7:84:fa:0c:6a:b7:34:7b:ec:89:59:10:35:e0:59:
         c5:c6:75:23:1d:25:c9:4e:81:81:92:7b:4c:e9:3f:df:1f:a7:
         e1:4c:47:bb:69:58:0e:a7:09:a5:5c:59:61:93:26:e3:2a:b2:
         31:79:eb:ac:2a:64:35:76:49:ca:7a:a1:d0:de:4a:13:21:79:
         1e:55:bc:59:45:ec:37:dc:02:27:f9:3d:fc:56:f9:94:05:10:
         60:80:cd:fe:84:56:0b:42:cf:ec:05:90:7e:99:89:73:ac:65:
         c1:e2:35:e4:b2:4c:12:6e:6e:49:d2:a4:87:cd:06:37:16:82:
         16:92:e5:e4:14:76:7f:0c:76:b8:c2:ca:b5:2d:22:de:35:e6:
         ae:cf:78:8b:7c:fe:4d:8d:13:fb:af:72:9b:c2:57:16:7e:26:
         2c:99:96:22:dd:b2:7c:75:96:0c:1c:c6:b8:17:8b:fe:9e:e1:
         60:ad:c8:87:85:55:04:7b:da:80:cc:e4:a8:27:80:84:0c:35:
         b2:e8:6a:ce:31:32:d0:2d:9f:84:4a:1c:3a:95:43:4c:53:a5:
         76:5b:ca:e9
-----BEGIN CERTIFICATE-----
MIIEJjCCAw6gAwIBAgIEEAAAyTANBgkqhkiG9w0BAQUFADBEMQswCQYDVQQGEwJE
RTEPMA0GA1UECAwGSGVzc2VuMRQwEgYDVQQKDAtwcml2YWN5aWRlYTEOMAwGA1UE
AwwFQ0EwMDEwHhcNMTcwMTIyMTA0MDAxWhcNMTgwMTIyMTA0MDAxWjBUMQswCQYD
VQQGEwJERTEPMA0GA1UECAwGSGVzc2VuMRQwEgYDVQQKDAtwcml2YWN5aWRlYTEe
MBwGA1UEAwwVcmVxdWVzdGVyLmxvY2FsZG9tYWluMIIBIjANBgkqhkiG9w0BAQEF
AAOCAQ8AMIIBCgKCAQEAzb4UT/rOAT9CIhsdnK/dktJ/22y3PjlDQ2sTA/EF9Ad0
vHZpKAuvGY7X/OPNxljyyn8IbVP8BwJEJMa0NEyMBP4zDkDiILoCc1r39U9jbszG
tt9UHTc5fVE2Jl+93D+oi2uirrad1iHn30G4eigqaEjKqC3t4elGXlpybbSEOIeR
/ZQRCyiExsIvKvsB+TZ6CXXRM4g8c0FbyL+UiXCh8MC5LlBTHrEXZGn0LYHgqQ0O
Mum6VYqF8RtvSXm0f4jDDT5UiJs9HziMBPPuamMr9cbbtIOqxHhBOn1L4cg+ccob
YVnqxsTKMl7J6b8SKebGw2P+oFXaevFgmE0m7fpwLQIDAQABo4IBDjCCAQowCwYD
VR0PBAQDAgWgMAkGA1UdEwQCMAAwEQYJYIZIAYb4QgEBBAQDAgZAMDMGCWCGSAGG
+EIBDQQmFiRPcGVuU1NMIEdlbmVyYXRlZCBTZXJ2ZXIgQ2VydGlmaWNhdGUwHQYD
VR0OBBYEFFM/7V0JB7Nle6tFySRbCXeACpbtMHQGA1UdIwRtMGuAFPSnwMyRRq9k
85HyJ/jIsm+KhzJzoUikRjBEMQswCQYDVQQGEwJERTEPMA0GA1UECAwGSGVzc2Vu
MRQwEgYDVQQKDAtwcml2YWN5aWRlYTEOMAwGA1UEAwwFQ0EwMDGCCQD7yOusg80S
BzATBgNVHSUEDDAKBggrBgEFBQcDATANBgkqhkiG9w0BAQUFAAOCAQEAnblTscWN
D3e/+BANJzVioU5BkJ3oRj8IYe3fvjvGCwTwBrV2TWSZp4T6DGq3NHvsiVkQNeBZ
xcZ1Ix0lyU6BgZJ7TOk/3x+n4UxHu2lYDqcJpVxZYZMm4yqyMXnrrCpkNXZJynqh
0N5KEyF5HlW8WUXsN9wCJ/k9/Fb5lAUQYIDN/oRWC0LP7AWQfpmJc6xlweI15LJM
Em5uSdKkh80GNxaCFpLl5BR2fwx2uMLKtS0i3jXmrs94i3z+TY0T+69ym8JXFn4m
LJmWIt2yfHWWDBzGuBeL/p7hYK3Ih4VVBHvagMzkqCeAhAw1suhqzjEy0C2fhEoc
OpVDTFOldlvK6Q==
-----END CERTIFICATE-----
