Certificate:
    Data:
        Version: 3 (0x2)
        Serial Number: 268435742 (0x1000011e)
    Signature Algorithm: sha256WithRSAEncryption
        Issuer: C=DE, ST=Hessen, O=privacyidea, CN=CA001
        Validity
            Not Before: Jan 10 06:27:04 2019 GMT
            Not After : Jan 10 06:27:04 2020 GMT
        Subject: C=DE, ST=Hessen, O=privacyidea, CN=requester.localdomain
        Subject Public Key Info:
            Public Key Algorithm: rsaEncryption
                Public-Key: (2048 bit)
                Modulus:
                    00:cd:be:14:4f:fa:ce:01:3f:42:22:1b:1d:9c:af:
                    dd:92:d2:7f:db:6c:b7:3e:39:43:43:6b:13:03:f1:
                    05:f4:07:74:bc:76:69:28:0b:af:19:8e:d7:fc:e3:
                    cd:c6:58:f2:ca:7f:08:6d:53:fc:07:02:44:24:c6:
                    b4:34:4c:8c:04:fe:33:0e:40:e2:20:ba:02:73:5a:
                    f7:f5:4f:63:6e:cc:c6:b6:df:54:1d:37:39:7d:51:
                    36:26:5f:bd:dc:3f:a8:8b:6b:a2:ae:b6:9d:d6:21:
                    e7:df:41:b8:7a:28:2a:68:48:ca:a8:2d:ed:e1:e9:
                    46:5e:5a:72:6d:b4:84:38:87:91:fd:94:11:0b:28:
                    84:c6:c2:2f:2a:fb:01:f9:36:7a:09:75:d1:33:88:
                    3c:73:41:5b:c8:bf:94:89:70:a1:f0:c0:b9:2e:50:
                    53:1e:b1:17:64:69:f4:2d:81:e0:a9:0d:0e:32:e9:
                    ba:55:8a:85:f1:1b:6f:49:79:b4:7f:88:c3:0d:3e:
                    54:88:9b:3d:1f:38:8c:04:f3:ee:6a:63:2b:f5:c6:
                    db:b4:83:aa:c4:78:41:3a:7d:4b:e1:c8:3e:71:ca:
                    1b:61:59:ea:c6:c4:ca:32:5e:c9:e9:bf:12:29:e6:
                    c6:c3:63:fe:a0:55:da:7a:f1:60:98:4d:26:ed:fa:
                    70:2d
                Exponent: 65537 (0x10001)
        X509v3 extensions:
            X509v3 Key Usage: 
                Digital Signature, Key Encipherment
            X509v3 Basic Constraints: 
                CA:FALSE
            Netscape Cert Type: 
                SSL Server
            Netscape Comment: 
                OpenSSL Generated Server Certificate
            X509v3 Subject Key Identifier: 
                53:3F:ED:5D:09:07:B3:65:7B:AB:45:C9:24:5B:09:77:80:0A:96:ED
            X509v3 Authority Key Identifier: 
                keyid:F4:A7:C0:CC:91:46:AF:64:F3:91:F2:27:F8:C8:B2:6F:8A:87:32:73
                DirName:/C=DE/ST=Hessen/O=privacyidea/CN=CA001
                serial:FB:C8:EB:AC:83:CD:12:07

            X509v3 Extended Key Usage: 
                TLS Web Server Authentication
    Signature Algorithm: sha256WithRSAEncryption
         0f:f0:56:f6:3f:5c:df:32:fc:a7:24:33:2a:67:b7:cb:74:63:
         de:ab:cf:3b:f2:4c:eb:b6:49:16:c0:8f:4b:40:a9:5c:91:69:
         b4:52:d8:c1:2b:09:8e:38:15:6d:78:28:c1:d3:14:ea:8b:6c:
         b8:65:61:6a:48:00:58:03:91:52:28:44:3c:d5:cc:b9:24:e8:
         8d:6c:7a:09:0e:ff:ba:b5:dc:b4:50:50:0d:fd:bf:76:27:8a:
         14:fa:6a:d1:9c:c0:01:96:d3:21:bf:b3:e8:0e:41:e1:e3:e8:
         c4:1d:46:ae:91:01:e9:5a:4a:c8:d7:97:be:30:31:b7:50:88:
         ca:9f:76:25:9a:49:1c:55:6b:14:d7:13:86:bf:b2:65:e9:9c:
         aa:25:b7:46:38:b1:1e:e5:6f:42:f4:2d:94:b2:c2:d1:52:6a:
         d8:26:e0:2f:09:b9:de:75:d3:5c:70:f5:3a:4b:56:82:c3:08:
         48:e2:f6:83:e2:fc:dc:55:0a:59:4d:09:63:ce:f9:39:34:44:
         50:ed:0b:46:e7:d3:20:ec:ad:52:33:a0:ff:1a:97:f0:48:6d:
         82:c4:f8:93:63:8b:74:c0:89:cd:8e:79:21:42:68:fc:95:10:
         0b:c5:36:92:eb:82:d7:4f:44:08:bc:f1:3a:3d:6c:20:82:ea:
         69:15:8d:07
-----BEGIN CERTIFICATE-----
MIIEJjCCAw6gAwIBAgIEEAABHjANBgkqhkiG9w0BAQsFADBEMQswCQYDVQQGEwJE
RTEPMA0GA1UECAwGSGVzc2VuMRQwEgYDVQQKDAtwcml2YWN5aWRlYTEOMAwGA1UE
AwwFQ0EwMDEwHhcNMTkwMTEwMDYyNzA0WhcNMjAwMTEwMDYyNzA0WjBUMQswCQYD
VQQGEwJERTEPMA0GA1UECAwGSGVzc2VuMRQwEgYDVQQKDAtwcml2YWN5aWRlYTEe
MBwGA1UEAwwVcmVxdWVzdGVyLmxvY2FsZG9tYWluMIIBIjANBgkqhkiG9w0BAQEF
AAOCAQ8AMIIBCgKCAQEAzb4UT/rOAT9CIhsdnK/dktJ/22y3PjlDQ2sTA/EF9Ad0
vHZpKAuvGY7X/OPNxljyyn8IbVP8BwJEJMa0NEyMBP4zDkDiILoCc1r39U9jbszG
tt9UHTc5fVE2Jl+93D+oi2uirrad1iHn30G4eigqaEjKqC3t4elGXlpybbSEOIeR
/ZQRCyiExsIvKvsB+TZ6CXXRM4g8c0FbyL+UiXCh8MC5LlBTHrEXZGn0LYHgqQ0O
Mum6VYqF8RtvSXm0f4jDDT5UiJs9HziMBPPuamMr9cbbtIOqxHhBOn1L4cg+ccob
YVnqxsTKMl7J6b8SKebGw2P+oFXaevFgmE0m7fpwLQIDAQABo4IBDjCCAQowCwYD
VR0PBAQDAgWgMAkGA1UdEwQCMAAwEQYJYIZIAYb4QgEBBAQDAgZAMDMGCWCGSAGG
+EIBDQQmFiRPcGVuU1NMIEdlbmVyYXRlZCBTZXJ2ZXIgQ2VydGlmaWNhdGUwHQYD
VR0OBBYEFFM/7V0JB7Nle6tFySRbCXeACpbtMHQGA1UdIwRtMGuAFPSnwMyRRq9k
85HyJ/jIsm+KhzJzoUikRjBEMQswCQYDVQQGEwJERTEPMA0GA1UECAwGSGVzc2Vu
MRQwEgYDVQQKDAtwcml2YWN5aWRlYTEOMAwGA1UEAwwFQ0EwMDGCCQD7yOusg80S
BzATBgNVHSUEDDAKBggrBgEFBQcDATANBgkqhkiG9w0BAQsFAAOCAQEAD/BW9j9c
3zL8pyQzKme3y3Rj3qvPO/JM67ZJFsCPS0CpXJFptFLYwSsJjjgVbXgowdMU6ots
uGVhakgAWAORUihEPNXMuSTojWx6CQ7/urXctFBQDf2/dieKFPpq0ZzAAZbTIb+z
6A5B4ePoxB1GrpEB6VpKyNeXvjAxt1CIyp92JZpJHFVrFNcThr+yZemcqiW3Rjix
HuVvQvQtlLLC0VJq2CbgLwm53nXTXHD1OktWgsMISOL2g+L83FUKWU0JY875OTRE
UO0LRufTIOytUjOg/xqX8EhtgsT4k2OLdMCJzY55IUJo/JUQC8U2kuuC109ECLzx
Oj1sIILqaRWNBw==
-----END CERTIFICATE-----
