Certificate:
    Data:
        Version: 3 (0x2)
        Serial Number: 268435611 (0x1000009b)
    Signature Algorithm: sha1WithRSAEncryption
        Issuer: C=DE, ST=Hessen, O=privacyidea, CN=CA001
        Validity
            Not Before: Sep 27 07:57:25 2015 GMT
            Not After : Sep 26 07:57:25 2016 GMT
        Subject: C=DE, ST=Hessen, O=privacyidea, CN=requester.localdomain
        Subject Public Key Info:
            Public Key Algorithm: rsaEncryption
                Public-Key: (2048 bit)
                Modulus:
                    00:cd:be:14:4f:fa:ce:01:3f:42:22:1b:1d:9c:af:
                    dd:92:d2:7f:db:6c:b7:3e:39:43:43:6b:13:03:f1:
                    05:f4:07:74:bc:76:69:28:0b:af:19:8e:d7:fc:e3:
                    cd:c6:58:f2:ca:7f:08:6d:53:fc:07:02:44:24:c6:
                    b4:34:4c:8c:04:fe:33:0e:40:e2:20:ba:02:73:5a:
                    f7:f5:4f:63:6e:cc:c6:b6:df:54:1d:37:39:7d:51:
                    36:26:5f:bd:dc:3f:a8:8b:6b:a2:ae:b6:9d:d6:21:
                    e7:df:41:b8:7a:28:2a:68:48:ca:a8:2d:ed:e1:e9:
                    46:5e:5a:72:6d:b4:84:38:87:91:fd:94:11:0b:28:
                    84:c6:c2:2f:2a:fb:01:f9:36:7a:09:75:d1:33:88:
                    3c:73:41:5b:c8:bf:94:89:70:a1:f0:c0:b9:2e:50:
                    53:1e:b1:17:64:69:f4:2d:81:e0:a9:0d:0e:32:e9:
                    ba:55:8a:85:f1:1b:6f:49:79:b4:7f:88:c3:0d:3e:
                    54:88:9b:3d:1f:38:8c:04:f3:ee:6a:63:2b:f5:c6:
                    db:b4:83:aa:c4:78:41:3a:7d:4b:e1:c8:3e:71:ca:
                    1b:61:59:ea:c6:c4:ca:32:5e:c9:e9:bf:12:29:e6:
                    c6:c3:63:fe:a0:55:da:7a:f1:60:98:4d:26:ed:fa:
                    70:2d
                Exponent: 65537 (0x10001)
        X509v3 extensions:
            X509v3 Key Usage: 
                Digital Signature, Key Encipherment
            X509v3 Basic Constraints: 
                CA:FALSE
            Netscape Cert Type: 
                SSL Server
            Netscape Comment: 
                OpenSSL Generated Server Certificate
            X509v3 Subject Key Identifier: 
                53:3F:ED:5D:09:07:B3:65:7B:AB:45:C9:24:5B:09:77:80:0A:96:ED
            X509v3 Authority Key Identifier: 
                keyid:F4:A7:C0:CC:91:46:AF:64:F3:91:F2:27:F8:C8:B2:6F:8A:87:32:73
                DirName:/C=DE/ST=Hessen/O=privacyidea/CN=CA001
                serial:FB:C8:EB:AC:83:CD:12:07

            X509v3 Extended Key Usage: 
                TLS Web Server Authentication
    Signature Algorithm: sha1WithRSAEncryption
         a8:6b:a1:51:35:e9:b1:09:04:51:3e:9b:8f:98:4c:ea:90:b0:
         ff:0f:99:d8:08:e3:71:27:53:d5:bf:58:93:91:35:77:bb:ff:
         3a:eb:a2:a5:84:81:32:98:09:ed:ea:b4:b5:78:96:a5:fa:4b:
         d6:ba:68:b5:0a:b9:cc:59:d4:a0:89:f1:d8:21:e4:24:f4:33:
         fb:15:96:fb:27:66:0c:b3:46:f7:90:ed:b4:0a:2a:b6:5d:c9:
         7f:72:bf:93:5d:7e:d5:e3:c1:29:00:12:3a:50:69:fa:6e:b8:
         4e:b1:c0:9d:ad:68:58:08:2f:9e:78:98:52:d4:41:bb:fd:93:
         d9:d3:7d:f4:b6:0b:6d:36:c4:f8:bc:d5:0b:a2:76:e0:10:dc:
         b6:42:6c:cd:00:f5:5c:6b:af:71:61:eb:75:62:f5:c9:41:79:
         e3:23:c2:6e:da:26:8e:11:58:9d:ee:47:08:19:16:83:13:ad:
         f4:c2:f5:26:e7:a8:ca:41:72:7f:e6:03:87:0c:5f:52:df:d8:
         02:4c:17:ea:45:76:9b:1c:69:d6:1b:83:41:e6:97:c2:97:12:
         4d:c0:49:c4:ad:ce:d7:2a:77:df:0a:dc:fc:08:eb:76:93:e4:
         c9:6e:e1:41:f9:a1:76:ed:12:c2:55:f1:64:fc:73:e7:6a:19:
         03:bb:dc:7f
-----BEGIN CERTIFICATE-----
MIIEJjCCAw6gAwIBAgIEEAAAmzANBgkqhkiG9w0BAQUFADBEMQswCQYDVQQGEwJE
RTEPMA0GA1UECAwGSGVzc2VuMRQwEgYDVQQKDAtwcml2YWN5aWRlYTEOMAwGA1UE
AwwFQ0EwMDEwHhcNMTUwOTI3MDc1NzI1WhcNMTYwOTI2MDc1NzI1WjBUMQswCQYD
VQQGEwJERTEPMA0GA1UECAwGSGVzc2VuMRQwEgYDVQQKDAtwcml2YWN5aWRlYTEe
MBwGA1UEAwwVcmVxdWVzdGVyLmxvY2FsZG9tYWluMIIBIjANBgkqhkiG9w0BAQEF
AAOCAQ8AMIIBCgKCAQEAzb4UT/rOAT9CIhsdnK/dktJ/22y3PjlDQ2sTA/EF9Ad0
vHZpKAuvGY7X/OPNxljyyn8IbVP8BwJEJMa0NEyMBP4zDkDiILoCc1r39U9jbszG
tt9UHTc5fVE2Jl+93D+oi2uirrad1iHn30G4eigqaEjKqC3t4elGXlpybbSEOIeR
/ZQRCyiExsIvKvsB+TZ6CXXRM4g8c0FbyL+UiXCh8MC5LlBTHrEXZGn0LYHgqQ0O
Mum6VYqF8RtvSXm0f4jDDT5UiJs9HziMBPPuamMr9cbbtIOqxHhBOn1L4cg+ccob
YVnqxsTKMl7J6b8SKebGw2P+oFXaevFgmE0m7fpwLQIDAQABo4IBDjCCAQowCwYD
VR0PBAQDAgWgMAkGA1UdEwQCMAAwEQYJYIZIAYb4QgEBBAQDAgZAMDMGCWCGSAGG
+EIBDQQmFiRPcGVuU1NMIEdlbmVyYXRlZCBTZXJ2ZXIgQ2VydGlmaWNhdGUwHQYD
VR0OBBYEFFM/7V0JB7Nle6tFySRbCXeACpbtMHQGA1UdIwRtMGuAFPSnwMyRRq9k
85HyJ/jIsm+KhzJzoUikRjBEMQswCQYDVQQGEwJERTEPMA0GA1UECAwGSGVzc2Vu
MRQwEgYDVQQKDAtwcml2YWN5aWRlYTEOMAwGA1UEAwwFQ0EwMDGCCQD7yOusg80S
BzATBgNVHSUEDDAKBggrBgEFBQcDATANBgkqhkiG9w0BAQUFAAOCAQEAqGuhUTXp
sQkEUT6bj5hM6pCw/w+Z2AjjcSdT1b9Yk5E1d7v/OuuipYSBMpgJ7eq0tXiWpfpL
1rpotQq5zFnUoInx2CHkJPQz+xWW+ydmDLNG95DttAoqtl3Jf3K/k11+1ePBKQAS
OlBp+m64TrHAna1oWAgvnniYUtRBu/2T2dN99LYLbTbE+LzVC6J24BDctkJszQD1
XGuvcWHrdWL1yUF54yPCbtomjhFYne5HCBkWgxOt9ML1JueoykFyf+YDhwxfUt/Y
AkwX6kV2mxxp1huDQeaXwpcSTcBJxK3O1yp33wrc/AjrdpPkyW7hQfmhdu0SwlXx
ZPxz52oZA7vcfw==
-----END CERTIFICATE-----
