Certificate:
    Data:
        Version: 3 (0x2)
        Serial Number: 268435750 (0x10000126)
    Signature Algorithm: sha256WithRSAEncryption
        Issuer: C=DE, ST=Hessen, O=privacyidea, CN=CA001
        Validity
            Not Before: Jan 10 08:26:27 2019 GMT
            Not After : Jan 10 08:26:27 2020 GMT
        Subject: C=DE, ST=Hessen, O=privacyidea, CN=requester.localdomain
        Subject Public Key Info:
            Public Key Algorithm: rsaEncryption
                Public-Key: (2048 bit)
                Modulus:
                    00:cd:be:14:4f:fa:ce:01:3f:42:22:1b:1d:9c:af:
                    dd:92:d2:7f:db:6c:b7:3e:39:43:43:6b:13:03:f1:
                    05:f4:07:74:bc:76:69:28:0b:af:19:8e:d7:fc:e3:
                    cd:c6:58:f2:ca:7f:08:6d:53:fc:07:02:44:24:c6:
                    b4:34:4c:8c:04:fe:33:0e:40:e2:20:ba:02:73:5a:
                    f7:f5:4f:63:6e:cc:c6:b6:df:54:1d:37:39:7d:51:
                    36:26:5f:bd:dc:3f:a8:8b:6b:a2:ae:b6:9d:d6:21:
                    e7:df:41:b8:7a:28:2a:68:48:ca:a8:2d:ed:e1:e9:
                    46:5e:5a:72:6d:b4:84:38:87:91:fd:94:11:0b:28:
                    84:c6:c2:2f:2a:fb:01:f9:36:7a:09:75:d1:33:88:
                    3c:73:41:5b:c8:bf:94:89:70:a1:f0:c0:b9:2e:50:
                    53:1e:b1:17:64:69:f4:2d:81:e0:a9:0d:0e:32:e9:
                    ba:55:8a:85:f1:1b:6f:49:79:b4:7f:88:c3:0d:3e:
                    54:88:9b:3d:1f:38:8c:04:f3:ee:6a:63:2b:f5:c6:
                    db:b4:83:aa:c4:78:41:3a:7d:4b:e1:c8:3e:71:ca:
                    1b:61:59:ea:c6:c4:ca:32:5e:c9:e9:bf:12:29:e6:
                    c6:c3:63:fe:a0:55:da:7a:f1:60:98:4d:26:ed:fa:
                    70:2d
                Exponent: 65537 (0x10001)
        X509v3 extensions:
            X509v3 Key Usage: 
                Digital Signature, Key Encipherment
            X509v3 Basic Constraints: 
                CA:FALSE
            Netscape Cert Type: 
                SSL Server
            Netscape Comment: 
                OpenSSL Generated Server Certificate
            X509v3 Subject Key Identifier: 
                53:3F:ED:5D:09:07:B3:65:7B:AB:45:C9:24:5B:09:77:80:0A:96:ED
            X509v3 Authority Key Identifier: 
                keyid:F4:A7:C0:CC:91:46:AF:64:F3:91:F2:27:F8:C8:B2:6F:8A:87:32:73
                DirName:/C=DE/ST=Hessen/O=privacyidea/CN=CA001
                serial:FB:C8:EB:AC:83:CD:12:07

            X509v3 Extended Key Usage: 
                TLS Web Server Authentication
    Signature Algorithm: sha256WithRSAEncryption
         4a:7c:4a:30:1e:bb:56:0f:8c:5d:4a:27:96:41:4b:54:81:11:
         26:cf:a0:c0:b3:af:0c:0f:98:38:29:10:32:00:33:75:27:7b:
         0f:a9:a5:c7:ae:49:b0:78:d6:8b:68:18:c7:3b:69:ca:13:07:
         08:13:d2:cd:b3:f0:2d:4a:4b:3d:06:59:fb:4d:bd:97:9b:c4:
         72:6c:57:b5:44:88:76:ef:79:4c:82:ea:35:58:ac:ad:ba:30:
         79:fd:3c:59:2b:47:a1:9a:b8:f5:33:b8:1f:67:1a:a8:ed:b4:
         85:8a:d2:00:ea:c4:04:fa:11:fc:1e:7a:24:23:e3:fe:67:2a:
         41:d2:a1:b4:72:9b:ad:eb:b6:0e:36:71:40:32:09:26:4a:d6:
         5f:18:78:c2:f7:23:8d:4e:d9:08:35:bf:2f:8e:26:72:b0:ea:
         71:63:db:07:d3:e0:97:7f:97:fe:71:d9:90:e3:ce:fe:16:d4:
         bf:18:1c:97:11:8e:9a:aa:d8:26:47:fe:97:9e:7d:e3:e5:ab:
         2c:11:94:ce:d0:fe:09:57:cb:51:38:07:f2:89:b6:da:a0:cb:
         71:da:f3:ae:a3:49:51:ef:21:d9:53:57:1e:c0:4c:8d:65:ef:
         36:fe:98:77:31:a9:71:dc:9f:5a:68:0f:63:d3:36:8c:53:bc:
         41:e8:ea:5d
-----BEGIN CERTIFICATE-----
MIIEJjCCAw6gAwIBAgIEEAABJjANBgkqhkiG9w0BAQsFADBEMQswCQYDVQQGEwJE
RTEPMA0GA1UECAwGSGVzc2VuMRQwEgYDVQQKDAtwcml2YWN5aWRlYTEOMAwGA1UE
AwwFQ0EwMDEwHhcNMTkwMTEwMDgyNjI3WhcNMjAwMTEwMDgyNjI3WjBUMQswCQYD
VQQGEwJERTEPMA0GA1UECAwGSGVzc2VuMRQwEgYDVQQKDAtwcml2YWN5aWRlYTEe
MBwGA1UEAwwVcmVxdWVzdGVyLmxvY2FsZG9tYWluMIIBIjANBgkqhkiG9w0BAQEF
AAOCAQ8AMIIBCgKCAQEAzb4UT/rOAT9CIhsdnK/dktJ/22y3PjlDQ2sTA/EF9Ad0
vHZpKAuvGY7X/OPNxljyyn8IbVP8BwJEJMa0NEyMBP4zDkDiILoCc1r39U9jbszG
tt9UHTc5fVE2Jl+93D+oi2uirrad1iHn30G4eigqaEjKqC3t4elGXlpybbSEOIeR
/ZQRCyiExsIvKvsB+TZ6CXXRM4g8c0FbyL+UiXCh8MC5LlBTHrEXZGn0LYHgqQ0O
Mum6VYqF8RtvSXm0f4jDDT5UiJs9HziMBPPuamMr9cbbtIOqxHhBOn1L4cg+ccob
YVnqxsTKMl7J6b8SKebGw2P+oFXaevFgmE0m7fpwLQIDAQABo4IBDjCCAQowCwYD
VR0PBAQDAgWgMAkGA1UdEwQCMAAwEQYJYIZIAYb4QgEBBAQDAgZAMDMGCWCGSAGG
+EIBDQQmFiRPcGVuU1NMIEdlbmVyYXRlZCBTZXJ2ZXIgQ2VydGlmaWNhdGUwHQYD
VR0OBBYEFFM/7V0JB7Nle6tFySRbCXeACpbtMHQGA1UdIwRtMGuAFPSnwMyRRq9k
85HyJ/jIsm+KhzJzoUikRjBEMQswCQYDVQQGEwJERTEPMA0GA1UECAwGSGVzc2Vu
MRQwEgYDVQQKDAtwcml2YWN5aWRlYTEOMAwGA1UEAwwFQ0EwMDGCCQD7yOusg80S
BzATBgNVHSUEDDAKBggrBgEFBQcDATANBgkqhkiG9w0BAQsFAAOCAQEASnxKMB67
Vg+MXUonlkFLVIERJs+gwLOvDA+YOCkQMgAzdSd7D6mlx65JsHjWi2gYxztpyhMH
CBPSzbPwLUpLPQZZ+029l5vEcmxXtUSIdu95TILqNVisrbowef08WStHoZq49TO4
H2caqO20hYrSAOrEBPoR/B56JCPj/mcqQdKhtHKbreu2DjZxQDIJJkrWXxh4wvcj
jU7ZCDW/L44mcrDqcWPbB9Pgl3+X/nHZkOPO/hbUvxgclxGOmqrYJkf+l5594+Wr
LBGUztD+CVfLUTgH8om22qDLcdrzrqNJUe8h2VNXHsBMjWXvNv6YdzGpcdyfWmgP
Y9M2jFO8QejqXQ==
-----END CERTIFICATE-----
