Certificate:
    Data:
        Version: 3 (0x2)
        Serial Number: 268435629 (0x100000ad)
    Signature Algorithm: sha1WithRSAEncryption
        Issuer: C=DE, ST=Hessen, O=privacyidea, CN=CA001
        Validity
            Not Before: Sep 12 08:39:12 2015 GMT
            Not After : Sep 11 08:39:12 2016 GMT
        Subject: C=DE, ST=Hessen, O=privacyidea, CN=requester.localdomain
        Subject Public Key Info:
            Public Key Algorithm: rsaEncryption
                Public-Key: (2048 bit)
                Modulus:
                    00:cd:be:14:4f:fa:ce:01:3f:42:22:1b:1d:9c:af:
                    dd:92:d2:7f:db:6c:b7:3e:39:43:43:6b:13:03:f1:
                    05:f4:07:74:bc:76:69:28:0b:af:19:8e:d7:fc:e3:
                    cd:c6:58:f2:ca:7f:08:6d:53:fc:07:02:44:24:c6:
                    b4:34:4c:8c:04:fe:33:0e:40:e2:20:ba:02:73:5a:
                    f7:f5:4f:63:6e:cc:c6:b6:df:54:1d:37:39:7d:51:
                    36:26:5f:bd:dc:3f:a8:8b:6b:a2:ae:b6:9d:d6:21:
                    e7:df:41:b8:7a:28:2a:68:48:ca:a8:2d:ed:e1:e9:
                    46:5e:5a:72:6d:b4:84:38:87:91:fd:94:11:0b:28:
                    84:c6:c2:2f:2a:fb:01:f9:36:7a:09:75:d1:33:88:
                    3c:73:41:5b:c8:bf:94:89:70:a1:f0:c0:b9:2e:50:
                    53:1e:b1:17:64:69:f4:2d:81:e0:a9:0d:0e:32:e9:
                    ba:55:8a:85:f1:1b:6f:49:79:b4:7f:88:c3:0d:3e:
                    54:88:9b:3d:1f:38:8c:04:f3:ee:6a:63:2b:f5:c6:
                    db:b4:83:aa:c4:78:41:3a:7d:4b:e1:c8:3e:71:ca:
                    1b:61:59:ea:c6:c4:ca:32:5e:c9:e9:bf:12:29:e6:
                    c6:c3:63:fe:a0:55:da:7a:f1:60:98:4d:26:ed:fa:
                    70:2d
                Exponent: 65537 (0x10001)
        X509v3 extensions:
            X509v3 Key Usage: 
                Digital Signature, Key Encipherment
            X509v3 Basic Constraints: 
                CA:FALSE
            Netscape Cert Type: 
                SSL Server
            Netscape Comment: 
                OpenSSL Generated Server Certificate
            X509v3 Subject Key Identifier: 
                53:3F:ED:5D:09:07:B3:65:7B:AB:45:C9:24:5B:09:77:80:0A:96:ED
            X509v3 Authority Key Identifier: 
                keyid:F4:A7:C0:CC:91:46:AF:64:F3:91:F2:27:F8:C8:B2:6F:8A:87:32:73
                DirName:/C=DE/ST=Hessen/O=privacyidea/CN=CA001
                serial:FB:C8:EB:AC:83:CD:12:07

            X509v3 Extended Key Usage: 
                TLS Web Server Authentication
    Signature Algorithm: sha1WithRSAEncryption
         af:65:d6:71:51:b2:71:11:85:ac:e7:a0:0d:db:28:35:cf:1e:
         aa:ae:d9:cb:65:e7:c9:e2:82:d1:76:f0:da:52:05:57:cd:15:
         de:de:af:40:da:4c:12:83:42:87:4c:b2:ed:ed:4e:7b:f0:02:
         b4:c2:d3:5c:03:1a:5c:8b:64:c4:4c:cb:aa:a8:25:92:79:ae:
         40:2c:85:1b:93:77:6e:84:60:0a:5c:0d:bd:50:dc:d7:b7:6f:
         8b:dd:08:e8:64:e1:26:e6:ff:d9:f4:d9:a8:da:63:18:09:0e:
         39:5c:94:4c:a2:a0:f3:2e:7f:88:20:30:b6:13:74:15:1a:e4:
         8c:02:03:7f:0b:80:b7:28:79:03:85:93:f5:da:a0:0c:90:bf:
         0a:38:ce:a9:63:73:84:b0:ef:77:53:6a:54:75:a0:01:20:1a:
         63:92:0f:2e:2d:c7:5f:21:29:43:a4:c6:b5:03:7d:44:9b:d2:
         69:95:87:ca:c1:1a:39:a3:86:f2:c8:dd:be:56:fb:2e:0f:18:
         68:54:99:34:52:b9:3a:5b:27:2b:c9:04:25:2d:76:1e:b0:f8:
         f4:ca:0f:92:77:35:e3:fb:d4:38:b1:1f:10:70:d5:17:e0:5f:
         d4:69:cd:55:55:d3:a8:ce:a0:4c:6b:49:55:98:bf:56:1f:d5:
         c2:8a:46:95
-----BEGIN CERTIFICATE-----
MIIEJjCCAw6gAwIBAgIEEAAArTANBgkqhkiG9w0BAQUFADBEMQswCQYDVQQGEwJE
RTEPMA0GA1UECAwGSGVzc2VuMRQwEgYDVQQKDAtwcml2YWN5aWRlYTEOMAwGA1UE
AwwFQ0EwMDEwHhcNMTUwOTEyMDgzOTEyWhcNMTYwOTExMDgzOTEyWjBUMQswCQYD
VQQGEwJERTEPMA0GA1UECAwGSGVzc2VuMRQwEgYDVQQKDAtwcml2YWN5aWRlYTEe
MBwGA1UEAwwVcmVxdWVzdGVyLmxvY2FsZG9tYWluMIIBIjANBgkqhkiG9w0BAQEF
AAOCAQ8AMIIBCgKCAQEAzb4UT/rOAT9CIhsdnK/dktJ/22y3PjlDQ2sTA/EF9Ad0
vHZpKAuvGY7X/OPNxljyyn8IbVP8BwJEJMa0NEyMBP4zDkDiILoCc1r39U9jbszG
tt9UHTc5fVE2Jl+93D+oi2uirrad1iHn30G4eigqaEjKqC3t4elGXlpybbSEOIeR
/ZQRCyiExsIvKvsB+TZ6CXXRM4g8c0FbyL+UiXCh8MC5LlBTHrEXZGn0LYHgqQ0O
Mum6VYqF8RtvSXm0f4jDDT5UiJs9HziMBPPuamMr9cbbtIOqxHhBOn1L4cg+ccob
YVnqxsTKMl7J6b8SKebGw2P+oFXaevFgmE0m7fpwLQIDAQABo4IBDjCCAQowCwYD
VR0PBAQDAgWgMAkGA1UdEwQCMAAwEQYJYIZIAYb4QgEBBAQDAgZAMDMGCWCGSAGG
+EIBDQQmFiRPcGVuU1NMIEdlbmVyYXRlZCBTZXJ2ZXIgQ2VydGlmaWNhdGUwHQYD
VR0OBBYEFFM/7V0JB7Nle6tFySRbCXeACpbtMHQGA1UdIwRtMGuAFPSnwMyRRq9k
85HyJ/jIsm+KhzJzoUikRjBEMQswCQYDVQQGEwJERTEPMA0GA1UECAwGSGVzc2Vu
MRQwEgYDVQQKDAtwcml2YWN5aWRlYTEOMAwGA1UEAwwFQ0EwMDGCCQD7yOusg80S
BzATBgNVHSUEDDAKBggrBgEFBQcDATANBgkqhkiG9w0BAQUFAAOCAQEAr2XWcVGy
cRGFrOegDdsoNc8eqq7Zy2XnyeKC0Xbw2lIFV80V3t6vQNpMEoNCh0yy7e1Oe/AC
tMLTXAMaXItkxEzLqqglknmuQCyFG5N3boRgClwNvVDc17dvi90I6GThJub/2fTZ
qNpjGAkOOVyUTKKg8y5/iCAwthN0FRrkjAIDfwuAtyh5A4WT9dqgDJC/CjjOqWNz
hLDvd1NqVHWgASAaY5IPLi3HXyEpQ6TGtQN9RJvSaZWHysEaOaOG8sjdvlb7Lg8Y
aFSZNFK5OlsnK8kEJS12HrD49MoPknc14/vUOLEfEHDVF+Bf1GnNVVXTqM6gTGtJ
VZi/Vh/VwopGlQ==
-----END CERTIFICATE-----
