Certificate:
    Data:
        Version: 3 (0x2)
        Serial Number: 268435703 (0x100000f7)
        Signature Algorithm: sha256WithRSAEncryption
        Issuer: C=DE, ST=Hessen, O=privacyidea, CN=CA001
        Validity
            Not Before: Aug 14 21:26:00 2019 GMT
            Not After : Aug 13 21:26:00 2020 GMT
        Subject: C=DE, ST=Hessen, O=privacyidea, CN=requester.localdomain
        Subject Public Key Info:
            Public Key Algorithm: rsaEncryption
                RSA Public-Key: (2048 bit)
                Modulus:
                    00:cd:be:14:4f:fa:ce:01:3f:42:22:1b:1d:9c:af:
                    dd:92:d2:7f:db:6c:b7:3e:39:43:43:6b:13:03:f1:
                    05:f4:07:74:bc:76:69:28:0b:af:19:8e:d7:fc:e3:
                    cd:c6:58:f2:ca:7f:08:6d:53:fc:07:02:44:24:c6:
                    b4:34:4c:8c:04:fe:33:0e:40:e2:20:ba:02:73:5a:
                    f7:f5:4f:63:6e:cc:c6:b6:df:54:1d:37:39:7d:51:
                    36:26:5f:bd:dc:3f:a8:8b:6b:a2:ae:b6:9d:d6:21:
                    e7:df:41:b8:7a:28:2a:68:48:ca:a8:2d:ed:e1:e9:
                    46:5e:5a:72:6d:b4:84:38:87:91:fd:94:11:0b:28:
                    84:c6:c2:2f:2a:fb:01:f9:36:7a:09:75:d1:33:88:
                    3c:73:41:5b:c8:bf:94:89:70:a1:f0:c0:b9:2e:50:
                    53:1e:b1:17:64:69:f4:2d:81:e0:a9:0d:0e:32:e9:
                    ba:55:8a:85:f1:1b:6f:49:79:b4:7f:88:c3:0d:3e:
                    54:88:9b:3d:1f:38:8c:04:f3:ee:6a:63:2b:f5:c6:
                    db:b4:83:aa:c4:78:41:3a:7d:4b:e1:c8:3e:71:ca:
                    1b:61:59:ea:c6:c4:ca:32:5e:c9:e9:bf:12:29:e6:
                    c6:c3:63:fe:a0:55:da:7a:f1:60:98:4d:26:ed:fa:
                    70:2d
                Exponent: 65537 (0x10001)
        X509v3 extensions:
            X509v3 Key Usage: 
                Digital Signature, Key Encipherment
            X509v3 Basic Constraints: 
                CA:FALSE
            Netscape Cert Type: 
                SSL Server
            Netscape Comment: 
                OpenSSL Generated Server Certificate
            X509v3 Subject Key Identifier: 
                53:3F:ED:5D:09:07:B3:65:7B:AB:45:C9:24:5B:09:77:80:0A:96:ED
            X509v3 Authority Key Identifier: 
                keyid:F4:A7:C0:CC:91:46:AF:64:F3:91:F2:27:F8:C8:B2:6F:8A:87:32:73
                DirName:/C=DE/ST=Hessen/O=privacyidea/CN=CA001
                serial:FB:C8:EB:AC:83:CD:12:07

            X509v3 Extended Key Usage: 
                TLS Web Server Authentication
    Signature Algorithm: sha256WithRSAEncryption
         b5:d5:98:a2:17:25:31:7c:54:20:09:b3:2a:67:03:2b:3d:3e:
         4f:50:82:9b:6c:9c:8d:e5:0c:ee:51:5f:ef:05:8a:69:2c:9e:
         5e:05:30:1f:60:e1:f0:fa:03:b8:13:1e:43:bc:68:a1:68:fd:
         b3:fd:5e:d8:45:8a:9f:80:6e:af:68:4f:52:8f:e6:7c:0b:f7:
         40:3a:77:84:ee:c4:56:5e:68:74:43:f0:d1:1e:ea:51:5a:b6:
         4d:07:28:80:ea:a4:52:41:25:c2:b0:ce:74:cb:41:e7:87:f1:
         8b:97:b7:14:94:28:97:e2:11:81:dd:4f:4f:68:73:29:b9:02:
         5e:d9:5b:20:26:b4:e9:f4:7a:a4:11:19:6e:cb:14:d3:8c:fb:
         6b:34:ec:82:ca:b8:c5:92:b8:83:d3:f0:c7:09:a8:68:ac:2e:
         ee:8e:a1:3b:77:9e:0c:75:00:2d:7d:de:80:41:56:01:cf:9b:
         07:29:61:93:5b:74:93:1e:d6:1b:22:0a:4e:80:2a:ba:59:f0:
         5d:a1:34:69:0f:c4:74:29:bb:01:e1:e2:22:76:d9:26:28:96:
         ad:a7:96:3c:5e:eb:cb:ee:41:da:43:85:99:4e:05:41:71:73:
         74:7c:f9:cd:7c:e7:38:1b:f0:30:87:2c:8d:1a:a4:7e:21:72:
         11:54:f1:4c
-----BEGIN CERTIFICATE-----
MIIEJjCCAw6gAwIBAgIEEAAA9zANBgkqhkiG9w0BAQsFADBEMQswCQYDVQQGEwJE
RTEPMA0GA1UECAwGSGVzc2VuMRQwEgYDVQQKDAtwcml2YWN5aWRlYTEOMAwGA1UE
AwwFQ0EwMDEwHhcNMTkwODE0MjEyNjAwWhcNMjAwODEzMjEyNjAwWjBUMQswCQYD
VQQGEwJERTEPMA0GA1UECAwGSGVzc2VuMRQwEgYDVQQKDAtwcml2YWN5aWRlYTEe
MBwGA1UEAwwVcmVxdWVzdGVyLmxvY2FsZG9tYWluMIIBIjANBgkqhkiG9w0BAQEF
AAOCAQ8AMIIBCgKCAQEAzb4UT/rOAT9CIhsdnK/dktJ/22y3PjlDQ2sTA/EF9Ad0
vHZpKAuvGY7X/OPNxljyyn8IbVP8BwJEJMa0NEyMBP4zDkDiILoCc1r39U9jbszG
tt9UHTc5fVE2Jl+93D+oi2uirrad1iHn30G4eigqaEjKqC3t4elGXlpybbSEOIeR
/ZQRCyiExsIvKvsB+TZ6CXXRM4g8c0FbyL+UiXCh8MC5LlBTHrEXZGn0LYHgqQ0O
Mum6VYqF8RtvSXm0f4jDDT5UiJs9HziMBPPuamMr9cbbtIOqxHhBOn1L4cg+ccob
YVnqxsTKMl7J6b8SKebGw2P+oFXaevFgmE0m7fpwLQIDAQABo4IBDjCCAQowCwYD
VR0PBAQDAgWgMAkGA1UdEwQCMAAwEQYJYIZIAYb4QgEBBAQDAgZAMDMGCWCGSAGG
+EIBDQQmFiRPcGVuU1NMIEdlbmVyYXRlZCBTZXJ2ZXIgQ2VydGlmaWNhdGUwHQYD
VR0OBBYEFFM/7V0JB7Nle6tFySRbCXeACpbtMHQGA1UdIwRtMGuAFPSnwMyRRq9k
85HyJ/jIsm+KhzJzoUikRjBEMQswCQYDVQQGEwJERTEPMA0GA1UECAwGSGVzc2Vu
MRQwEgYDVQQKDAtwcml2YWN5aWRlYTEOMAwGA1UEAwwFQ0EwMDGCCQD7yOusg80S
BzATBgNVHSUEDDAKBggrBgEFBQcDATANBgkqhkiG9w0BAQsFAAOCAQEAtdWYohcl
MXxUIAmzKmcDKz0+T1CCm2ycjeUM7lFf7wWKaSyeXgUwH2Dh8PoDuBMeQ7xooWj9
s/1e2EWKn4Bur2hPUo/mfAv3QDp3hO7EVl5odEPw0R7qUVq2TQcogOqkUkElwrDO
dMtB54fxi5e3FJQol+IRgd1PT2hzKbkCXtlbICa06fR6pBEZbssU04z7azTsgsq4
xZK4g9PwxwmoaKwu7o6hO3eeDHUALX3egEFWAc+bBylhk1t0kx7WGyIKToAqulnw
XaE0aQ/EdCm7AeHiInbZJiiWraeWPF7ry+5B2kOFmU4FQXFzdHz5zXznOBvwMIcs
jRqkfiFyEVTxTA==
-----END CERTIFICATE-----
