Certificate:
    Data:
        Version: 3 (0x2)
        Serial Number: 268435639 (0x100000b7)
    Signature Algorithm: sha1WithRSAEncryption
        Issuer: C=DE, ST=Hessen, O=privacyidea, CN=CA001
        Validity
            Not Before: Nov 26 22:12:27 2015 GMT
            Not After : Nov 25 22:12:27 2016 GMT
        Subject: C=DE, ST=Hessen, O=privacyidea, CN=requester.localdomain
        Subject Public Key Info:
            Public Key Algorithm: rsaEncryption
                Public-Key: (2048 bit)
                Modulus:
                    00:cd:be:14:4f:fa:ce:01:3f:42:22:1b:1d:9c:af:
                    dd:92:d2:7f:db:6c:b7:3e:39:43:43:6b:13:03:f1:
                    05:f4:07:74:bc:76:69:28:0b:af:19:8e:d7:fc:e3:
                    cd:c6:58:f2:ca:7f:08:6d:53:fc:07:02:44:24:c6:
                    b4:34:4c:8c:04:fe:33:0e:40:e2:20:ba:02:73:5a:
                    f7:f5:4f:63:6e:cc:c6:b6:df:54:1d:37:39:7d:51:
                    36:26:5f:bd:dc:3f:a8:8b:6b:a2:ae:b6:9d:d6:21:
                    e7:df:41:b8:7a:28:2a:68:48:ca:a8:2d:ed:e1:e9:
                    46:5e:5a:72:6d:b4:84:38:87:91:fd:94:11:0b:28:
                    84:c6:c2:2f:2a:fb:01:f9:36:7a:09:75:d1:33:88:
                    3c:73:41:5b:c8:bf:94:89:70:a1:f0:c0:b9:2e:50:
                    53:1e:b1:17:64:69:f4:2d:81:e0:a9:0d:0e:32:e9:
                    ba:55:8a:85:f1:1b:6f:49:79:b4:7f:88:c3:0d:3e:
                    54:88:9b:3d:1f:38:8c:04:f3:ee:6a:63:2b:f5:c6:
                    db:b4:83:aa:c4:78:41:3a:7d:4b:e1:c8:3e:71:ca:
                    1b:61:59:ea:c6:c4:ca:32:5e:c9:e9:bf:12:29:e6:
                    c6:c3:63:fe:a0:55:da:7a:f1:60:98:4d:26:ed:fa:
                    70:2d
                Exponent: 65537 (0x10001)
        X509v3 extensions:
            X509v3 Key Usage: 
                Digital Signature, Key Encipherment
            X509v3 Basic Constraints: 
                CA:FALSE
            Netscape Cert Type: 
                SSL Server
            Netscape Comment: 
                OpenSSL Generated Server Certificate
            X509v3 Subject Key Identifier: 
                53:3F:ED:5D:09:07:B3:65:7B:AB:45:C9:24:5B:09:77:80:0A:96:ED
            X509v3 Authority Key Identifier: 
                keyid:F4:A7:C0:CC:91:46:AF:64:F3:91:F2:27:F8:C8:B2:6F:8A:87:32:73
                DirName:/C=DE/ST=Hessen/O=privacyidea/CN=CA001
                serial:FB:C8:EB:AC:83:CD:12:07

            X509v3 Extended Key Usage: 
                TLS Web Server Authentication
    Signature Algorithm: sha1WithRSAEncryption
         44:d3:d8:ae:61:47:fc:b3:6b:eb:b0:89:e9:e5:88:aa:1a:24:
         43:20:61:6c:29:69:fa:c3:78:53:42:08:49:e9:97:74:fa:74:
         46:c7:56:82:bb:82:b7:6a:4e:35:f0:f0:42:f1:9c:da:c4:b4:
         65:34:b3:9f:7a:84:27:13:e8:70:e3:a2:29:f1:f7:e0:0b:44:
         25:e1:9c:b7:c8:36:69:c3:d0:69:de:76:0a:2d:7a:6d:49:5f:
         39:b9:6c:04:20:b1:09:ba:ce:0f:60:ec:c4:bd:34:56:6c:4c:
         52:98:ac:34:a4:9b:21:c3:3f:75:b8:e2:07:c3:af:80:76:a4:
         f0:d6:64:be:99:30:fa:02:fc:50:53:3a:3d:15:66:c6:64:2c:
         cb:90:1c:ad:86:59:db:e4:13:79:5b:22:52:66:4c:77:39:c5:
         57:94:fd:7d:ca:53:de:74:94:31:09:61:ad:2c:1d:7f:e8:6e:
         0f:4b:b6:dc:56:1b:65:8c:a2:3b:c8:51:97:3a:b3:74:ea:a3:
         d6:f4:22:2b:f9:67:fb:2b:a6:7e:75:61:40:3e:44:29:8c:c1:
         8c:99:c5:1a:8e:dc:7f:bb:2f:cd:ee:95:6e:a9:89:52:ee:d8:
         12:0c:ad:3a:3c:e1:33:28:69:b7:3c:cd:93:61:57:e7:b7:b4:
         10:bf:b3:20
-----BEGIN CERTIFICATE-----
MIIEJjCCAw6gAwIBAgIEEAAAtzANBgkqhkiG9w0BAQUFADBEMQswCQYDVQQGEwJE
RTEPMA0GA1UECAwGSGVzc2VuMRQwEgYDVQQKDAtwcml2YWN5aWRlYTEOMAwGA1UE
AwwFQ0EwMDEwHhcNMTUxMTI2MjIxMjI3WhcNMTYxMTI1MjIxMjI3WjBUMQswCQYD
VQQGEwJERTEPMA0GA1UECAwGSGVzc2VuMRQwEgYDVQQKDAtwcml2YWN5aWRlYTEe
MBwGA1UEAwwVcmVxdWVzdGVyLmxvY2FsZG9tYWluMIIBIjANBgkqhkiG9w0BAQEF
AAOCAQ8AMIIBCgKCAQEAzb4UT/rOAT9CIhsdnK/dktJ/22y3PjlDQ2sTA/EF9Ad0
vHZpKAuvGY7X/OPNxljyyn8IbVP8BwJEJMa0NEyMBP4zDkDiILoCc1r39U9jbszG
tt9UHTc5fVE2Jl+93D+oi2uirrad1iHn30G4eigqaEjKqC3t4elGXlpybbSEOIeR
/ZQRCyiExsIvKvsB+TZ6CXXRM4g8c0FbyL+UiXCh8MC5LlBTHrEXZGn0LYHgqQ0O
Mum6VYqF8RtvSXm0f4jDDT5UiJs9HziMBPPuamMr9cbbtIOqxHhBOn1L4cg+ccob
YVnqxsTKMl7J6b8SKebGw2P+oFXaevFgmE0m7fpwLQIDAQABo4IBDjCCAQowCwYD
VR0PBAQDAgWgMAkGA1UdEwQCMAAwEQYJYIZIAYb4QgEBBAQDAgZAMDMGCWCGSAGG
+EIBDQQmFiRPcGVuU1NMIEdlbmVyYXRlZCBTZXJ2ZXIgQ2VydGlmaWNhdGUwHQYD
VR0OBBYEFFM/7V0JB7Nle6tFySRbCXeACpbtMHQGA1UdIwRtMGuAFPSnwMyRRq9k
85HyJ/jIsm+KhzJzoUikRjBEMQswCQYDVQQGEwJERTEPMA0GA1UECAwGSGVzc2Vu
MRQwEgYDVQQKDAtwcml2YWN5aWRlYTEOMAwGA1UEAwwFQ0EwMDGCCQD7yOusg80S
BzATBgNVHSUEDDAKBggrBgEFBQcDATANBgkqhkiG9w0BAQUFAAOCAQEARNPYrmFH
/LNr67CJ6eWIqhokQyBhbClp+sN4U0IISemXdPp0RsdWgruCt2pONfDwQvGc2sS0
ZTSzn3qEJxPocOOiKfH34AtEJeGct8g2acPQad52Ci16bUlfOblsBCCxCbrOD2Ds
xL00VmxMUpisNKSbIcM/dbjiB8OvgHak8NZkvpkw+gL8UFM6PRVmxmQsy5AcrYZZ
2+QTeVsiUmZMdznFV5T9fcpT3nSUMQlhrSwdf+huD0u23FYbZYyiO8hRlzqzdOqj
1vQiK/ln+yumfnVhQD5EKYzBjJnFGo7cf7svze6VbqmJUu7YEgytOjzhMyhptzzN
k2FX57e0EL+zIA==
-----END CERTIFICATE-----
