Certificate:
    Data:
        Version: 3 (0x2)
        Serial Number: 268435682 (0x100000e2)
        Signature Algorithm: sha256WithRSAEncryption
        Issuer: C=DE, ST=Hessen, O=privacyidea, CN=CA001
        Validity
            Not Before: Oct 24 09:44:15 2019 GMT
            Not After : Oct 23 09:44:15 2020 GMT
        Subject: C=DE, ST=Hessen, O=privacyidea, CN=requester.localdomain
        Subject Public Key Info:
            Public Key Algorithm: rsaEncryption
                RSA Public-Key: (2048 bit)
                Modulus:
                    00:cd:be:14:4f:fa:ce:01:3f:42:22:1b:1d:9c:af:
                    dd:92:d2:7f:db:6c:b7:3e:39:43:43:6b:13:03:f1:
                    05:f4:07:74:bc:76:69:28:0b:af:19:8e:d7:fc:e3:
                    cd:c6:58:f2:ca:7f:08:6d:53:fc:07:02:44:24:c6:
                    b4:34:4c:8c:04:fe:33:0e:40:e2:20:ba:02:73:5a:
                    f7:f5:4f:63:6e:cc:c6:b6:df:54:1d:37:39:7d:51:
                    36:26:5f:bd:dc:3f:a8:8b:6b:a2:ae:b6:9d:d6:21:
                    e7:df:41:b8:7a:28:2a:68:48:ca:a8:2d:ed:e1:e9:
                    46:5e:5a:72:6d:b4:84:38:87:91:fd:94:11:0b:28:
                    84:c6:c2:2f:2a:fb:01:f9:36:7a:09:75:d1:33:88:
                    3c:73:41:5b:c8:bf:94:89:70:a1:f0:c0:b9:2e:50:
                    53:1e:b1:17:64:69:f4:2d:81:e0:a9:0d:0e:32:e9:
                    ba:55:8a:85:f1:1b:6f:49:79:b4:7f:88:c3:0d:3e:
                    54:88:9b:3d:1f:38:8c:04:f3:ee:6a:63:2b:f5:c6:
                    db:b4:83:aa:c4:78:41:3a:7d:4b:e1:c8:3e:71:ca:
                    1b:61:59:ea:c6:c4:ca:32:5e:c9:e9:bf:12:29:e6:
                    c6:c3:63:fe:a0:55:da:7a:f1:60:98:4d:26:ed:fa:
                    70:2d
                Exponent: 65537 (0x10001)
        X509v3 extensions:
            X509v3 Key Usage: 
                Digital Signature, Key Encipherment
            X509v3 Basic Constraints: 
                CA:FALSE
            Netscape Cert Type: 
                SSL Server
            Netscape Comment: 
                OpenSSL Generated Server Certificate
            X509v3 Subject Key Identifier: 
                53:3F:ED:5D:09:07:B3:65:7B:AB:45:C9:24:5B:09:77:80:0A:96:ED
            X509v3 Authority Key Identifier: 
                keyid:F4:A7:C0:CC:91:46:AF:64:F3:91:F2:27:F8:C8:B2:6F:8A:87:32:73
                DirName:/C=DE/ST=Hessen/O=privacyidea/CN=CA001
                serial:FB:C8:EB:AC:83:CD:12:07

            X509v3 Extended Key Usage: 
                TLS Web Server Authentication
    Signature Algorithm: sha256WithRSAEncryption
         76:f7:90:d9:ce:1a:b3:ef:24:7f:60:e7:e0:f1:72:7d:d0:0e:
         7a:1a:1f:35:72:c2:f1:c4:f2:fd:a3:5d:fb:24:2d:07:de:77:
         30:10:02:17:8f:e5:9f:f0:0b:cd:52:b2:99:a3:71:83:40:4c:
         41:e0:0c:ac:d8:7b:fb:c3:a2:60:25:4a:60:18:a4:61:30:da:
         6d:d7:6d:be:9c:25:cd:7a:3c:30:ba:4a:f2:1d:cd:1e:b8:49:
         59:0d:05:a6:bb:f0:be:c3:cd:1c:41:e4:5c:9d:fd:27:a2:ce:
         02:5d:2a:6b:5b:51:8c:49:f0:03:3e:7f:bb:fb:3d:9f:4e:d7:
         21:d8:ce:a0:17:91:f5:44:61:ac:4f:1c:2a:88:64:33:c5:7f:
         7f:15:0d:80:33:f4:e2:ca:8f:4e:62:cd:29:4f:8f:16:19:1c:
         49:0c:aa:d5:8c:05:cb:8d:31:70:ed:f9:6a:2c:ca:00:c9:f5:
         f9:41:62:35:47:6f:7d:51:8b:be:4a:e3:43:54:53:b1:99:d0:
         3f:de:bd:63:ff:b3:a0:c4:93:77:44:88:8f:96:58:84:aa:8f:
         a1:3f:0f:94:2c:30:bc:2f:a9:7c:88:4e:c3:12:c1:18:b7:5e:
         1d:f9:a2:30:70:97:bf:a0:e3:95:c1:98:be:c4:4c:22:11:88:
         14:54:9d:e8
-----BEGIN CERTIFICATE-----
MIIEJjCCAw6gAwIBAgIEEAAA4jANBgkqhkiG9w0BAQsFADBEMQswCQYDVQQGEwJE
RTEPMA0GA1UECAwGSGVzc2VuMRQwEgYDVQQKDAtwcml2YWN5aWRlYTEOMAwGA1UE
AwwFQ0EwMDEwHhcNMTkxMDI0MDk0NDE1WhcNMjAxMDIzMDk0NDE1WjBUMQswCQYD
VQQGEwJERTEPMA0GA1UECAwGSGVzc2VuMRQwEgYDVQQKDAtwcml2YWN5aWRlYTEe
MBwGA1UEAwwVcmVxdWVzdGVyLmxvY2FsZG9tYWluMIIBIjANBgkqhkiG9w0BAQEF
AAOCAQ8AMIIBCgKCAQEAzb4UT/rOAT9CIhsdnK/dktJ/22y3PjlDQ2sTA/EF9Ad0
vHZpKAuvGY7X/OPNxljyyn8IbVP8BwJEJMa0NEyMBP4zDkDiILoCc1r39U9jbszG
tt9UHTc5fVE2Jl+93D+oi2uirrad1iHn30G4eigqaEjKqC3t4elGXlpybbSEOIeR
/ZQRCyiExsIvKvsB+TZ6CXXRM4g8c0FbyL+UiXCh8MC5LlBTHrEXZGn0LYHgqQ0O
Mum6VYqF8RtvSXm0f4jDDT5UiJs9HziMBPPuamMr9cbbtIOqxHhBOn1L4cg+ccob
YVnqxsTKMl7J6b8SKebGw2P+oFXaevFgmE0m7fpwLQIDAQABo4IBDjCCAQowCwYD
VR0PBAQDAgWgMAkGA1UdEwQCMAAwEQYJYIZIAYb4QgEBBAQDAgZAMDMGCWCGSAGG
+EIBDQQmFiRPcGVuU1NMIEdlbmVyYXRlZCBTZXJ2ZXIgQ2VydGlmaWNhdGUwHQYD
VR0OBBYEFFM/7V0JB7Nle6tFySRbCXeACpbtMHQGA1UdIwRtMGuAFPSnwMyRRq9k
85HyJ/jIsm+KhzJzoUikRjBEMQswCQYDVQQGEwJERTEPMA0GA1UECAwGSGVzc2Vu
MRQwEgYDVQQKDAtwcml2YWN5aWRlYTEOMAwGA1UEAwwFQ0EwMDGCCQD7yOusg80S
BzATBgNVHSUEDDAKBggrBgEFBQcDATANBgkqhkiG9w0BAQsFAAOCAQEAdveQ2c4a
s+8kf2Dn4PFyfdAOehofNXLC8cTy/aNd+yQtB953MBACF4/ln/ALzVKymaNxg0BM
QeAMrNh7+8OiYCVKYBikYTDabddtvpwlzXo8MLpK8h3NHrhJWQ0FprvwvsPNHEHk
XJ39J6LOAl0qa1tRjEnwAz5/u/s9n07XIdjOoBeR9URhrE8cKohkM8V/fxUNgDP0
4sqPTmLNKU+PFhkcSQyq1YwFy40xcO35aizKAMn1+UFiNUdvfVGLvkrjQ1RTsZnQ
P969Y/+zoMSTd0SIj5ZYhKqPoT8PlCwwvC+pfIhOwxLBGLdeHfmiMHCXv6DjlcGY
vsRMIhGIFFSd6A==
-----END CERTIFICATE-----
