Certificate:
    Data:
        Version: 3 (0x2)
        Serial Number: 268435630 (0x100000ae)
    Signature Algorithm: sha1WithRSAEncryption
        Issuer: C=DE, ST=Hessen, O=privacyidea, CN=CA001
        Validity
            Not Before: Sep 12 08:40:11 2015 GMT
            Not After : Sep 11 08:40:11 2016 GMT
        Subject: CN=selfservice,CN=user,O=realm1/emailAddress=meine
        Subject Public Key Info:
            Public Key Algorithm: rsaEncryption
                Public-Key: (2048 bit)
                Modulus:
                    00:cf:3c:d4:33:0e:12:c4:e6:da:cd:b6:56:a1:1c:
                    26:bb:26:1c:8a:4a:73:a8:58:8a:b6:1e:b3:8b:99:
                    d2:1d:07:c2:92:89:79:c0:69:d8:c8:df:28:61:98:
                    1e:b3:fe:ae:2b:bd:78:a9:f7:6e:47:dc:a3:a0:16:
                    8c:85:02:c1:4e:92:fd:72:6e:f0:c8:03:29:9b:b8:
                    00:6e:c0:83:95:c8:34:20:36:9c:b3:e5:e4:e6:76:
                    73:a3:1a:ad:40:96:e0:53:54:00:ec:76:79:9a:c6:
                    0d:7e:b6:bd:29:ec:83:f3:cb:89:a4:cb:6c:00:ba:
                    0c:c5:78:0f:ff:69:b8:94:f4:04:70:43:3f:d8:9e:
                    d7:a7:fb:5d:ce:75:8e:da:e7:c4:07:b1:9d:de:6f:
                    88:4b:b6:4d:9a:cf:f9:bc:fa:9f:cd:32:6d:f6:3a:
                    0b:0d:23:42:78:ec:97:42:bf:0e:4d:60:56:e1:d3:
                    02:f2:19:cb:84:57:90:e5:70:a1:a2:83:35:86:e2:
                    da:86:9f:f9:8a:c4:79:b3:52:28:da:cb:bb:34:ca:
                    d3:da:91:4a:cf:8d:76:a2:b2:6b:9b:f9:96:fd:09:
                    2a:da:11:23:4d:f0:cb:d6:b2:b1:0e:12:6c:9a:19:
                    65:98:87:ca:e4:ee:24:ce:44:ac:90:8f:9d:1b:c5:
                    2a:9d
                Exponent: 65537 (0x10001)
        X509v3 extensions:
            X509v3 Key Usage: 
                Digital Signature, Key Encipherment
            X509v3 Basic Constraints: 
                CA:FALSE
            Netscape Cert Type: 
                SSL Server
            Netscape Comment: 
                OpenSSL Generated Server Certificate
            X509v3 Subject Key Identifier: 
                4D:07:90:AD:FF:1D:0D:E7:1A:DD:D6:2E:FA:BA:34:CB:AA:1F:24:C6
            X509v3 Authority Key Identifier: 
                keyid:F4:A7:C0:CC:91:46:AF:64:F3:91:F2:27:F8:C8:B2:6F:8A:87:32:73
                DirName:/C=DE/ST=Hessen/O=privacyidea/CN=CA001
                serial:FB:C8:EB:AC:83:CD:12:07

            X509v3 Extended Key Usage: 
                TLS Web Server Authentication
    Signature Algorithm: sha1WithRSAEncryption
         2c:1f:63:e5:a4:78:e3:bd:37:a7:5b:39:6d:e0:b5:bd:52:03:
         1d:40:0b:d1:13:c9:e3:bc:cd:30:7f:82:cd:60:bb:e5:1d:39:
         1f:68:90:36:70:28:da:9c:d3:a6:e5:d4:1e:7a:3b:a4:19:97:
         4e:ac:b1:93:db:cc:f1:1f:8f:52:f1:2d:5f:02:9e:6c:92:a3:
         18:de:14:68:b4:cb:26:23:1d:18:25:fd:b4:25:ac:8d:9b:bd:
         76:d6:f1:d5:e3:3a:4a:c4:45:6d:05:3a:fd:7b:9b:9d:fe:a7:
         08:d1:7f:d7:4e:0c:38:bf:7b:ab:69:0c:25:7e:a8:1e:22:cb:
         27:62:d1:b9:57:f1:d0:a4:3a:29:24:f2:0a:0b:a4:05:dd:96:
         fc:e1:10:01:2c:71:d3:c7:fb:e8:10:b8:f9:be:1c:59:3b:ee:
         aa:02:1a:83:82:4d:ad:42:df:c9:fa:7e:fd:26:b5:39:50:c0:
         e8:3e:8f:fa:5b:d2:cf:9a:5b:ee:a7:bf:9b:65:eb:57:d6:54:
         a9:38:0a:fe:79:db:1a:9e:1c:b2:c3:e1:53:14:db:b5:9c:2c:
         90:50:4c:7f:c4:6b:36:99:47:2c:1c:21:53:05:37:7d:a4:80:
         97:66:38:e7:2e:fa:15:08:74:08:12:36:ba:4f:90:12:fa:41:
         3e:8b:b2:2c
-----BEGIN CERTIFICATE-----
MIIEDzCCAvegAwIBAgIEEAAArjANBgkqhkiG9w0BAQUFADBEMQswCQYDVQQGEwJE
RTEPMA0GA1UECAwGSGVzc2VuMRQwEgYDVQQKDAtwcml2YWN5aWRlYTEOMAwGA1UE
AwwFQ0EwMDEwHhcNMTUwOTEyMDg0MDExWhcNMTYwOTExMDg0MDExWjA9MSUwIwYD
VQQDExxzZWxmc2VydmljZSxDTj11c2VyLE89cmVhbG0xMRQwEgYJKoZIhvcNAQkB
FgVtZWluZTCCASIwDQYJKoZIhvcNAQEBBQADggEPADCCAQoCggEBAM881DMOEsTm
2s22VqEcJrsmHIpKc6hYirYes4uZ0h0HwpKJecBp2MjfKGGYHrP+riu9eKn3bkfc
o6AWjIUCwU6S/XJu8MgDKZu4AG7Ag5XINCA2nLPl5OZ2c6MarUCW4FNUAOx2eZrG
DX62vSnsg/PLiaTLbAC6DMV4D/9puJT0BHBDP9ie16f7Xc51jtrnxAexnd5viEu2
TZrP+bz6n80ybfY6Cw0jQnjsl0K/Dk1gVuHTAvIZy4RXkOVwoaKDNYbi2oaf+YrE
ebNSKNrLuzTK09qRSs+NdqKya5v5lv0JKtoRI03wy9aysQ4SbJoZZZiHyuTuJM5E
rJCPnRvFKp0CAwEAAaOCAQ4wggEKMAsGA1UdDwQEAwIFoDAJBgNVHRMEAjAAMBEG
CWCGSAGG+EIBAQQEAwIGQDAzBglghkgBhvhCAQ0EJhYkT3BlblNTTCBHZW5lcmF0
ZWQgU2VydmVyIENlcnRpZmljYXRlMB0GA1UdDgQWBBRNB5Ct/x0N5xrd1i76ujTL
qh8kxjB0BgNVHSMEbTBrgBT0p8DMkUavZPOR8if4yLJviocyc6FIpEYwRDELMAkG
A1UEBhMCREUxDzANBgNVBAgMBkhlc3NlbjEUMBIGA1UECgwLcHJpdmFjeWlkZWEx
DjAMBgNVBAMMBUNBMDAxggkA+8jrrIPNEgcwEwYDVR0lBAwwCgYIKwYBBQUHAwEw
DQYJKoZIhvcNAQEFBQADggEBACwfY+WkeOO9N6dbOW3gtb1SAx1AC9ETyeO8zTB/
gs1gu+UdOR9okDZwKNqc06bl1B56O6QZl06ssZPbzPEfj1LxLV8CnmySoxjeFGi0
yyYjHRgl/bQlrI2bvXbW8dXjOkrERW0FOv17m53+pwjRf9dODDi/e6tpDCV+qB4i
yydi0blX8dCkOikk8goLpAXdlvzhEAEscdPH++gQuPm+HFk77qoCGoOCTa1C38n6
fv0mtTlQwOg+j/pb0s+aW+6nv5tl61fWVKk4Cv552xqeHLLD4VMU27WcLJBQTH/E
azaZRywcIVMFN32kgJdmOOcu+hUIdAgSNrpPkBL6QT6Lsiw=
-----END CERTIFICATE-----
