Certificate:
    Data:
        Version: 3 (0x2)
        Serial Number: 268435671 (0x100000d7)
        Signature Algorithm: sha256WithRSAEncryption
        Issuer: C=DE, ST=Hessen, O=privacyidea, CN=CA001
        Validity
            Not Before: Nov 17 10:22:56 2019 GMT
            Not After : Nov 16 10:22:56 2020 GMT
        Subject: OU=realm1, CN=cornelius/emailAddress=user@localhost.localdomain
        Subject Public Key Info:
            Public Key Algorithm: rsaEncryption
                RSA Public-Key: (2048 bit)
                Modulus:
                    00:d8:35:a6:24:6d:df:1d:c3:28:7b:b8:31:61:bf:
                    d4:e2:6b:40:92:14:e6:80:81:20:c0:5a:d5:10:a9:
                    9d:17:e7:6c:7d:e5:76:50:d3:a3:f0:b6:56:b4:67:
                    0a:8d:b0:11:bf:4b:27:34:6b:e1:4b:77:bf:e2:43:
                    ec:17:f6:07:7e:25:45:01:15:a5:b2:02:63:08:49:
                    af:89:00:db:cd:3d:d8:27:63:12:9e:81:20:39:2d:
                    66:ae:36:c8:69:a1:2f:57:c4:7c:e5:b2:b9:85:12:
                    2b:12:5d:c1:ad:b3:ce:21:5f:f2:fe:e0:f1:d8:cf:
                    2f:fc:d2:7a:0f:18:d7:72:a5:87:b4:e7:95:cf:51:
                    ee:97:ca:7b:6b:43:60:d5:be:9f:7e:eb:53:a2:79:
                    c1:42:b6:e2:59:12:88:2a:de:c1:1c:1e:c3:88:b7:
                    28:d3:e0:db:aa:be:67:b4:3a:d0:b7:52:e3:c8:67:
                    17:29:85:65:62:16:0d:f0:4f:77:07:6a:b2:86:d4:
                    0e:3c:4d:7c:84:47:0a:d6:a7:83:ac:1c:1f:66:90:
                    69:5d:ed:89:f3:f4:d5:8d:07:83:11:d8:58:42:0f:
                    b9:85:67:be:ce:03:7d:4b:b6:e7:36:00:2a:13:1f:
                    7b:ae:1d:0a:5d:f8:b5:08:f3:73:67:63:56:6d:03:
                    ce:c7
                Exponent: 65537 (0x10001)
        X509v3 extensions:
            X509v3 Key Usage: 
                Digital Signature, Key Encipherment
            X509v3 Basic Constraints: 
                CA:FALSE
            Netscape Cert Type: 
                SSL Server
            Netscape Comment: 
                OpenSSL Generated Server Certificate
            X509v3 Subject Key Identifier: 
                5F:49:85:A4:DD:7B:69:8A:33:5B:FA:20:C7:4D:D3:4F:48:F9:29:D7
            X509v3 Authority Key Identifier: 
                keyid:F4:A7:C0:CC:91:46:AF:64:F3:91:F2:27:F8:C8:B2:6F:8A:87:32:73
                DirName:/C=DE/ST=Hessen/O=privacyidea/CN=CA001
                serial:FB:C8:EB:AC:83:CD:12:07

            X509v3 Extended Key Usage: 
                TLS Web Server Authentication
    Signature Algorithm: sha256WithRSAEncryption
         a2:e9:74:4a:e1:e4:c6:a5:d8:60:40:3d:e5:f8:52:1b:8e:7b:
         a6:c2:25:1c:74:58:16:57:b2:02:08:e8:1b:51:d4:d6:d4:ff:
         53:c4:f2:00:e2:0f:03:ad:1b:0e:1c:18:64:f4:1a:96:e8:0c:
         35:95:61:bf:69:fb:b5:87:8d:94:9f:31:bf:ac:c8:6b:4d:8c:
         77:60:99:db:30:11:cd:aa:8e:8a:34:84:50:a4:3c:c7:1f:b5:
         e7:ff:04:52:76:da:06:41:f3:fd:98:2f:37:0f:57:61:4b:4b:
         41:ea:6f:36:0d:bb:97:2e:71:78:4f:1d:8a:a2:36:ba:9e:8c:
         1f:2d:84:83:b1:47:0c:34:6e:94:a0:31:2d:80:72:85:c0:a6:
         d0:43:05:00:d8:40:0d:59:36:38:de:35:0a:49:fa:20:b7:31:
         a2:d6:ae:41:77:ff:7a:c2:8d:eb:e0:1d:60:f8:1b:d9:93:1f:
         c3:f9:dd:3c:e4:30:c7:1f:c8:4f:db:01:f0:96:5b:fe:f9:7d:
         74:e3:e6:1d:b4:dd:0e:83:43:56:bf:a5:fa:21:84:60:8c:ab:
         e7:fd:43:62:50:96:76:be:fa:bb:e4:18:d4:25:18:71:fa:c4:
         d5:9f:50:2a:cf:95:ef:cf:b0:67:a3:24:01:42:36:bb:bf:63:
         f8:5a:c9:0a
-----BEGIN CERTIFICATE-----
MIIEIjCCAwqgAwIBAgIEEAAA1zANBgkqhkiG9w0BAQsFADBEMQswCQYDVQQGEwJE
RTEPMA0GA1UECAwGSGVzc2VuMRQwEgYDVQQKDAtwcml2YWN5aWRlYTEOMAwGA1UE
AwwFQ0EwMDEwHhcNMTkxMTE3MTAyMjU2WhcNMjAxMTE2MTAyMjU2WjBQMQ8wDQYD
VQQLDAZyZWFsbTExEjAQBgNVBAMMCWNvcm5lbGl1czEpMCcGCSqGSIb3DQEJARYa
dXNlckBsb2NhbGhvc3QubG9jYWxkb21haW4wggEiMA0GCSqGSIb3DQEBAQUAA4IB
DwAwggEKAoIBAQDYNaYkbd8dwyh7uDFhv9Tia0CSFOaAgSDAWtUQqZ0X52x95XZQ
06Pwtla0ZwqNsBG/Syc0a+FLd7/iQ+wX9gd+JUUBFaWyAmMISa+JANvNPdgnYxKe
gSA5LWauNshpoS9XxHzlsrmFEisSXcGts84hX/L+4PHYzy/80noPGNdypYe055XP
Ue6XyntrQ2DVvp9+61OiecFCtuJZEogq3sEcHsOItyjT4Nuqvme0OtC3UuPIZxcp
hWViFg3wT3cHarKG1A48TXyERwrWp4OsHB9mkGld7Ynz9NWNB4MR2FhCD7mFZ77O
A31Ltuc2ACoTH3uuHQpd+LUI83NnY1ZtA87HAgMBAAGjggEOMIIBCjALBgNVHQ8E
BAMCBaAwCQYDVR0TBAIwADARBglghkgBhvhCAQEEBAMCBkAwMwYJYIZIAYb4QgEN
BCYWJE9wZW5TU0wgR2VuZXJhdGVkIFNlcnZlciBDZXJ0aWZpY2F0ZTAdBgNVHQ4E
FgQUX0mFpN17aYozW/ogx03TT0j5KdcwdAYDVR0jBG0wa4AU9KfAzJFGr2TzkfIn
+Miyb4qHMnOhSKRGMEQxCzAJBgNVBAYTAkRFMQ8wDQYDVQQIDAZIZXNzZW4xFDAS
BgNVBAoMC3ByaXZhY3lpZGVhMQ4wDAYDVQQDDAVDQTAwMYIJAPvI66yDzRIHMBMG
A1UdJQQMMAoGCCsGAQUFBwMBMA0GCSqGSIb3DQEBCwUAA4IBAQCi6XRK4eTGpdhg
QD3l+FIbjnumwiUcdFgWV7ICCOgbUdTW1P9TxPIA4g8DrRsOHBhk9BqW6Aw1lWG/
afu1h42UnzG/rMhrTYx3YJnbMBHNqo6KNIRQpDzHH7Xn/wRSdtoGQfP9mC83D1dh
S0tB6m82DbuXLnF4Tx2Koja6nowfLYSDsUcMNG6UoDEtgHKFwKbQQwUA2EANWTY4
3jUKSfogtzGi1q5Bd/96wo3r4B1g+BvZkx/D+d085DDHH8hP2wHwllv++X104+Yd
tN0Og0NWv6X6IYRgjKvn/UNiUJZ2vvq75BjUJRhx+sTVn1Aqz5Xvz7BnoyQBQja7
v2P4WskK
-----END CERTIFICATE-----
