Certificate:
    Data:
        Version: 3 (0x2)
        Serial Number: 268435719 (0x10000107)
    Signature Algorithm: sha256WithRSAEncryption
        Issuer: C=DE, ST=Hessen, O=privacyidea, CN=CA001
        Validity
            Not Before: Jan  9 23:01:11 2019 GMT
            Not After : Jan  9 23:01:11 2020 GMT
        Subject: C=DE, ST=Hessen, O=privacyidea, CN=requester.localdomain
        Subject Public Key Info:
            Public Key Algorithm: rsaEncryption
                Public-Key: (2048 bit)
                Modulus:
                    00:cd:be:14:4f:fa:ce:01:3f:42:22:1b:1d:9c:af:
                    dd:92:d2:7f:db:6c:b7:3e:39:43:43:6b:13:03:f1:
                    05:f4:07:74:bc:76:69:28:0b:af:19:8e:d7:fc:e3:
                    cd:c6:58:f2:ca:7f:08:6d:53:fc:07:02:44:24:c6:
                    b4:34:4c:8c:04:fe:33:0e:40:e2:20:ba:02:73:5a:
                    f7:f5:4f:63:6e:cc:c6:b6:df:54:1d:37:39:7d:51:
                    36:26:5f:bd:dc:3f:a8:8b:6b:a2:ae:b6:9d:d6:21:
                    e7:df:41:b8:7a:28:2a:68:48:ca:a8:2d:ed:e1:e9:
                    46:5e:5a:72:6d:b4:84:38:87:91:fd:94:11:0b:28:
                    84:c6:c2:2f:2a:fb:01:f9:36:7a:09:75:d1:33:88:
                    3c:73:41:5b:c8:bf:94:89:70:a1:f0:c0:b9:2e:50:
                    53:1e:b1:17:64:69:f4:2d:81:e0:a9:0d:0e:32:e9:
                    ba:55:8a:85:f1:1b:6f:49:79:b4:7f:88:c3:0d:3e:
                    54:88:9b:3d:1f:38:8c:04:f3:ee:6a:63:2b:f5:c6:
                    db:b4:83:aa:c4:78:41:3a:7d:4b:e1:c8:3e:71:ca:
                    1b:61:59:ea:c6:c4:ca:32:5e:c9:e9:bf:12:29:e6:
                    c6:c3:63:fe:a0:55:da:7a:f1:60:98:4d:26:ed:fa:
                    70:2d
                Exponent: 65537 (0x10001)
        X509v3 extensions:
            X509v3 Key Usage: 
                Digital Signature, Key Encipherment
            X509v3 Basic Constraints: 
                CA:FALSE
            Netscape Cert Type: 
                SSL Server
            Netscape Comment: 
                OpenSSL Generated Server Certificate
            X509v3 Subject Key Identifier: 
                53:3F:ED:5D:09:07:B3:65:7B:AB:45:C9:24:5B:09:77:80:0A:96:ED
            X509v3 Authority Key Identifier: 
                keyid:F4:A7:C0:CC:91:46:AF:64:F3:91:F2:27:F8:C8:B2:6F:8A:87:32:73
                DirName:/C=DE/ST=Hessen/O=privacyidea/CN=CA001
                serial:FB:C8:EB:AC:83:CD:12:07

            X509v3 Extended Key Usage: 
                TLS Web Server Authentication
    Signature Algorithm: sha256WithRSAEncryption
         aa:7d:a8:39:28:c0:e3:0a:12:86:74:38:be:83:d7:d2:cf:f9:
         cc:2e:21:c7:24:e0:6f:79:ff:c3:97:53:38:87:00:36:9c:11:
         81:de:fc:f5:2c:19:71:58:29:13:eb:3b:a6:40:cd:db:3c:48:
         84:76:cb:c7:b0:47:2f:d9:5a:7b:57:3c:0b:f5:b9:e8:73:cb:
         f5:cc:9c:80:53:71:f2:72:bb:5e:5b:5d:4b:f9:91:3e:05:cb:
         0a:33:2f:f3:f1:09:04:5f:f1:eb:3d:94:3d:ab:f1:f7:0f:d0:
         a4:07:7d:e7:d3:9c:6b:f3:80:d2:1c:4a:83:0f:3b:31:02:e5:
         56:42:e5:14:51:05:58:24:dd:88:f3:2a:5b:19:5a:af:79:15:
         c1:d1:bd:0a:25:d9:f5:44:dc:cb:83:8e:99:56:68:ef:85:7b:
         c4:20:0d:57:86:d4:ca:64:35:75:c2:f9:5e:02:ce:9a:87:86:
         b1:a2:50:fd:61:01:45:6e:d1:e8:6c:19:11:f1:3a:ec:3b:c7:
         58:4b:ac:c7:9c:ad:19:df:c6:d4:0f:33:b0:a5:4f:f9:34:51:
         bd:f2:85:0a:7e:5d:c3:28:d9:0d:78:f3:c6:fa:2c:e3:c0:db:
         1e:68:48:f1:24:70:09:db:b1:eb:f3:d7:ee:78:93:4c:67:2b:
         47:8e:3e:43
-----BEGIN CERTIFICATE-----
MIIEJjCCAw6gAwIBAgIEEAABBzANBgkqhkiG9w0BAQsFADBEMQswCQYDVQQGEwJE
RTEPMA0GA1UECAwGSGVzc2VuMRQwEgYDVQQKDAtwcml2YWN5aWRlYTEOMAwGA1UE
AwwFQ0EwMDEwHhcNMTkwMTA5MjMwMTExWhcNMjAwMTA5MjMwMTExWjBUMQswCQYD
VQQGEwJERTEPMA0GA1UECAwGSGVzc2VuMRQwEgYDVQQKDAtwcml2YWN5aWRlYTEe
MBwGA1UEAwwVcmVxdWVzdGVyLmxvY2FsZG9tYWluMIIBIjANBgkqhkiG9w0BAQEF
AAOCAQ8AMIIBCgKCAQEAzb4UT/rOAT9CIhsdnK/dktJ/22y3PjlDQ2sTA/EF9Ad0
vHZpKAuvGY7X/OPNxljyyn8IbVP8BwJEJMa0NEyMBP4zDkDiILoCc1r39U9jbszG
tt9UHTc5fVE2Jl+93D+oi2uirrad1iHn30G4eigqaEjKqC3t4elGXlpybbSEOIeR
/ZQRCyiExsIvKvsB+TZ6CXXRM4g8c0FbyL+UiXCh8MC5LlBTHrEXZGn0LYHgqQ0O
Mum6VYqF8RtvSXm0f4jDDT5UiJs9HziMBPPuamMr9cbbtIOqxHhBOn1L4cg+ccob
YVnqxsTKMl7J6b8SKebGw2P+oFXaevFgmE0m7fpwLQIDAQABo4IBDjCCAQowCwYD
VR0PBAQDAgWgMAkGA1UdEwQCMAAwEQYJYIZIAYb4QgEBBAQDAgZAMDMGCWCGSAGG
+EIBDQQmFiRPcGVuU1NMIEdlbmVyYXRlZCBTZXJ2ZXIgQ2VydGlmaWNhdGUwHQYD
VR0OBBYEFFM/7V0JB7Nle6tFySRbCXeACpbtMHQGA1UdIwRtMGuAFPSnwMyRRq9k
85HyJ/jIsm+KhzJzoUikRjBEMQswCQYDVQQGEwJERTEPMA0GA1UECAwGSGVzc2Vu
MRQwEgYDVQQKDAtwcml2YWN5aWRlYTEOMAwGA1UEAwwFQ0EwMDGCCQD7yOusg80S
BzATBgNVHSUEDDAKBggrBgEFBQcDATANBgkqhkiG9w0BAQsFAAOCAQEAqn2oOSjA
4woShnQ4voPX0s/5zC4hxyTgb3n/w5dTOIcANpwRgd789SwZcVgpE+s7pkDN2zxI
hHbLx7BHL9lae1c8C/W56HPL9cycgFNx8nK7XltdS/mRPgXLCjMv8/EJBF/x6z2U
Pavx9w/QpAd959Oca/OA0hxKgw87MQLlVkLlFFEFWCTdiPMqWxlar3kVwdG9CiXZ
9UTcy4OOmVZo74V7xCANV4bUymQ1dcL5XgLOmoeGsaJQ/WEBRW7R6GwZEfE67DvH
WEusx5ytGd/G1A8zsKVP+TRRvfKFCn5dwyjZDXjzxvos48DbHmhI8SRwCdux6/PX
7niTTGcrR44+Qw==
-----END CERTIFICATE-----
