Certificate:
    Data:
        Version: 3 (0x2)
        Serial Number: 268435649 (0x100000c1)
    Signature Algorithm: sha1WithRSAEncryption
        Issuer: C=DE, ST=Hessen, O=privacyidea, CN=CA001
        Validity
            Not Before: Jan 16 16:17:41 2016 GMT
            Not After : Jan 15 16:17:41 2017 GMT
        Subject: C=DE, ST=Hessen, O=privacyidea, CN=requester.localdomain
        Subject Public Key Info:
            Public Key Algorithm: rsaEncryption
                Public-Key: (2048 bit)
                Modulus:
                    00:cd:be:14:4f:fa:ce:01:3f:42:22:1b:1d:9c:af:
                    dd:92:d2:7f:db:6c:b7:3e:39:43:43:6b:13:03:f1:
                    05:f4:07:74:bc:76:69:28:0b:af:19:8e:d7:fc:e3:
                    cd:c6:58:f2:ca:7f:08:6d:53:fc:07:02:44:24:c6:
                    b4:34:4c:8c:04:fe:33:0e:40:e2:20:ba:02:73:5a:
                    f7:f5:4f:63:6e:cc:c6:b6:df:54:1d:37:39:7d:51:
                    36:26:5f:bd:dc:3f:a8:8b:6b:a2:ae:b6:9d:d6:21:
                    e7:df:41:b8:7a:28:2a:68:48:ca:a8:2d:ed:e1:e9:
                    46:5e:5a:72:6d:b4:84:38:87:91:fd:94:11:0b:28:
                    84:c6:c2:2f:2a:fb:01:f9:36:7a:09:75:d1:33:88:
                    3c:73:41:5b:c8:bf:94:89:70:a1:f0:c0:b9:2e:50:
                    53:1e:b1:17:64:69:f4:2d:81:e0:a9:0d:0e:32:e9:
                    ba:55:8a:85:f1:1b:6f:49:79:b4:7f:88:c3:0d:3e:
                    54:88:9b:3d:1f:38:8c:04:f3:ee:6a:63:2b:f5:c6:
                    db:b4:83:aa:c4:78:41:3a:7d:4b:e1:c8:3e:71:ca:
                    1b:61:59:ea:c6:c4:ca:32:5e:c9:e9:bf:12:29:e6:
                    c6:c3:63:fe:a0:55:da:7a:f1:60:98:4d:26:ed:fa:
                    70:2d
                Exponent: 65537 (0x10001)
        X509v3 extensions:
            X509v3 Key Usage: 
                Digital Signature, Key Encipherment
            X509v3 Basic Constraints: 
                CA:FALSE
            Netscape Cert Type: 
                SSL Server
            Netscape Comment: 
                OpenSSL Generated Server Certificate
            X509v3 Subject Key Identifier: 
                53:3F:ED:5D:09:07:B3:65:7B:AB:45:C9:24:5B:09:77:80:0A:96:ED
            X509v3 Authority Key Identifier: 
                keyid:F4:A7:C0:CC:91:46:AF:64:F3:91:F2:27:F8:C8:B2:6F:8A:87:32:73
                DirName:/C=DE/ST=Hessen/O=privacyidea/CN=CA001
                serial:FB:C8:EB:AC:83:CD:12:07

            X509v3 Extended Key Usage: 
                TLS Web Server Authentication
    Signature Algorithm: sha1WithRSAEncryption
         74:bd:d0:42:0f:cc:99:9d:1f:ef:d5:fb:7d:b7:de:46:4a:99:
         12:ae:1a:22:29:8b:3f:1c:19:dc:83:56:e3:3e:62:89:84:88:
         65:a1:75:e7:c8:12:40:07:18:45:27:f2:97:f5:5a:04:b7:61:
         ea:2b:1d:68:76:3b:5a:d1:b9:93:0a:a3:5c:11:4b:b3:2a:94:
         a8:5d:cb:41:6b:47:e7:a7:b6:be:b0:4b:29:71:8e:6b:37:0c:
         3d:0c:48:fa:85:54:98:56:e0:50:2c:27:ec:89:7a:be:62:66:
         dc:5e:15:82:0a:db:67:55:79:7f:a2:ba:94:75:15:6a:a1:b9:
         d4:55:15:38:25:d4:a2:fe:46:b3:d9:c8:77:72:ea:aa:a5:a2:
         3d:16:f9:32:b0:17:5a:cb:39:c4:86:47:21:ce:4c:62:2f:8f:
         83:66:a1:48:c2:bc:18:1a:87:9d:63:d6:dc:37:97:b1:a7:ec:
         c7:e0:91:5a:94:47:b1:b8:cf:c9:07:b4:17:62:f5:08:ac:23:
         1b:a1:3c:2a:e4:f8:48:b1:45:a9:c7:21:dd:2b:c8:23:96:26:
         46:85:df:09:e8:a3:e0:85:da:77:51:3e:8f:26:2c:af:12:93:
         74:c7:41:45:a6:20:fb:a8:20:fa:8c:72:df:b8:33:13:70:5b:
         12:65:b6:b5
-----BEGIN CERTIFICATE-----
MIIEJjCCAw6gAwIBAgIEEAAAwTANBgkqhkiG9w0BAQUFADBEMQswCQYDVQQGEwJE
RTEPMA0GA1UECAwGSGVzc2VuMRQwEgYDVQQKDAtwcml2YWN5aWRlYTEOMAwGA1UE
AwwFQ0EwMDEwHhcNMTYwMTE2MTYxNzQxWhcNMTcwMTE1MTYxNzQxWjBUMQswCQYD
VQQGEwJERTEPMA0GA1UECAwGSGVzc2VuMRQwEgYDVQQKDAtwcml2YWN5aWRlYTEe
MBwGA1UEAwwVcmVxdWVzdGVyLmxvY2FsZG9tYWluMIIBIjANBgkqhkiG9w0BAQEF
AAOCAQ8AMIIBCgKCAQEAzb4UT/rOAT9CIhsdnK/dktJ/22y3PjlDQ2sTA/EF9Ad0
vHZpKAuvGY7X/OPNxljyyn8IbVP8BwJEJMa0NEyMBP4zDkDiILoCc1r39U9jbszG
tt9UHTc5fVE2Jl+93D+oi2uirrad1iHn30G4eigqaEjKqC3t4elGXlpybbSEOIeR
/ZQRCyiExsIvKvsB+TZ6CXXRM4g8c0FbyL+UiXCh8MC5LlBTHrEXZGn0LYHgqQ0O
Mum6VYqF8RtvSXm0f4jDDT5UiJs9HziMBPPuamMr9cbbtIOqxHhBOn1L4cg+ccob
YVnqxsTKMl7J6b8SKebGw2P+oFXaevFgmE0m7fpwLQIDAQABo4IBDjCCAQowCwYD
VR0PBAQDAgWgMAkGA1UdEwQCMAAwEQYJYIZIAYb4QgEBBAQDAgZAMDMGCWCGSAGG
+EIBDQQmFiRPcGVuU1NMIEdlbmVyYXRlZCBTZXJ2ZXIgQ2VydGlmaWNhdGUwHQYD
VR0OBBYEFFM/7V0JB7Nle6tFySRbCXeACpbtMHQGA1UdIwRtMGuAFPSnwMyRRq9k
85HyJ/jIsm+KhzJzoUikRjBEMQswCQYDVQQGEwJERTEPMA0GA1UECAwGSGVzc2Vu
MRQwEgYDVQQKDAtwcml2YWN5aWRlYTEOMAwGA1UEAwwFQ0EwMDGCCQD7yOusg80S
BzATBgNVHSUEDDAKBggrBgEFBQcDATANBgkqhkiG9w0BAQUFAAOCAQEAdL3QQg/M
mZ0f79X7fbfeRkqZEq4aIimLPxwZ3INW4z5iiYSIZaF158gSQAcYRSfyl/VaBLdh
6isdaHY7WtG5kwqjXBFLsyqUqF3LQWtH56e2vrBLKXGOazcMPQxI+oVUmFbgUCwn
7Il6vmJm3F4VggrbZ1V5f6K6lHUVaqG51FUVOCXUov5Gs9nId3LqqqWiPRb5MrAX
Wss5xIZHIc5MYi+Pg2ahSMK8GBqHnWPW3DeXsafsx+CRWpRHsbjPyQe0F2L1CKwj
G6E8KuT4SLFFqcch3SvII5YmRoXfCeij4IXad1E+jyYsrxKTdMdBRaYg+6gg+oxy
37gzE3BbEmW2tQ==
-----END CERTIFICATE-----
