Certificate:
    Data:
        Version: 3 (0x2)
        Serial Number: 268435622 (0x100000a6)
    Signature Algorithm: sha1WithRSAEncryption
        Issuer: C=DE, ST=Hessen, O=privacyidea, CN=CA001
        Validity
            Not Before: Sep 12 08:32:06 2015 GMT
            Not After : Sep 11 08:32:06 2016 GMT
        Subject: CN=Steve Test/emailAddress=steve@openssl.org
        Subject Public Key Info:
            Public Key Algorithm: rsaEncryption
                Public-Key: (2048 bit)
                Modulus:
                    00:d2:81:89:20:51:48:0f:73:f4:11:32:24:d5:1f:
                    1c:fd:5c:f5:b6:e6:c5:f0:52:81:dc:d2:af:66:4a:
                    7c:93:31:61:5c:af:d1:6d:06:70:03:60:7c:72:0c:
                    88:dd:49:cd:9e:02:6c:d2:5a:d7:53:0f:f3:da:be:
                    69:64:b5:0f:0c:00:e3:b3:50:47:a3:b3:9b:ba:13:
                    50:d6:58:5a:4b:ab:39:e0:11:ca:0a:27:67:03:78:
                    22:66:6d:92:1e:1b:5c:49:ae:e6:6b:d1:8e:3b:9d:
                    06:d3:c6:ac:4d:53:43:10:ab:e8:96:c1:87:82:97:
                    99:8f:20:d3:99:12:37:31:84:e1:8a:ff:29:03:5f:
                    22:90:3e:7f:9b:e0:20:c1:ad:dc:ae:4c:39:1a:31:
                    96:17:02:8c:b2:d9:b4:0d:20:12:9b:7d:86:54:fd:
                    33:fd:c1:2a:62:46:f8:60:96:cf:6e:01:6f:22:df:
                    13:47:e7:97:ec:05:72:23:a3:62:f8:fa:ef:ac:9c:
                    72:f0:37:cb:2f:37:cf:90:a8:27:51:86:c6:d7:78:
                    08:8f:7e:25:a2:15:70:a2:fb:1c:b6:15:5e:a0:97:
                    8b:81:4c:09:28:8a:27:3b:94:bc:71:db:5b:71:37:
                    9a:2b:16:e0:6f:b5:c9:f5:4b:4f:20:ba:65:cf:af:
                    ad:ad
                Exponent: 65537 (0x10001)
        X509v3 extensions:
            X509v3 Key Usage: 
                Digital Signature, Key Encipherment
            X509v3 Basic Constraints: 
                CA:FALSE
            Netscape Cert Type: 
                SSL Server
            Netscape Comment: 
                OpenSSL Generated Server Certificate
            X509v3 Subject Key Identifier: 
                E5:25:6D:3E:AF:0D:DD:3F:4C:F2:45:19:39:D5:14:DB:7E:9C:C0:AD
            X509v3 Authority Key Identifier: 
                keyid:F4:A7:C0:CC:91:46:AF:64:F3:91:F2:27:F8:C8:B2:6F:8A:87:32:73
                DirName:/C=DE/ST=Hessen/O=privacyidea/CN=CA001
                serial:FB:C8:EB:AC:83:CD:12:07

            X509v3 Extended Key Usage: 
                TLS Web Server Authentication
    Signature Algorithm: sha1WithRSAEncryption
         9c:2c:ad:c2:20:72:fd:01:c3:c9:0d:6f:24:07:1c:4e:88:e9:
         62:ea:fa:12:81:24:8c:f2:5d:ca:48:b8:f7:4d:96:35:c4:27:
         8d:7f:72:4d:2d:fd:58:ba:4e:d2:dc:85:17:80:f3:63:d7:16:
         81:8f:cd:5a:e7:f6:ea:7b:8a:7d:c9:0d:2d:71:6b:d5:c5:89:
         5a:cc:e2:4c:df:69:11:88:53:18:2b:70:d9:88:51:c9:2d:02:
         85:b9:fd:1e:4f:7b:de:8d:01:74:05:8e:12:26:55:01:a8:30:
         4a:b3:67:e6:7f:3b:a1:54:b4:a7:33:06:5d:5d:55:bb:a6:43:
         96:3e:b6:a9:50:6a:1c:83:c5:27:42:ae:eb:b9:50:0f:47:d6:
         f0:1b:1b:6b:fe:4b:71:20:78:c4:28:78:b9:28:76:d1:c0:74:
         d9:5a:47:28:a6:9e:d2:31:69:04:dc:b1:39:8e:23:7c:f9:cf:
         64:32:c2:ce:ec:99:4b:ba:6d:64:c4:50:80:f8:25:0f:a0:1c:
         6c:f5:b6:e6:a0:8c:b8:4b:43:1a:86:f3:d8:67:1e:08:a2:a6:
         c5:f7:e8:14:47:ed:68:eb:43:56:ee:e1:8c:12:cf:d0:ac:67:
         d6:78:02:03:61:20:06:fe:f8:dd:9f:90:0d:13:ea:12:8b:c4:
         ed:74:b6:b8
-----BEGIN CERTIFICATE-----
MIIECTCCAvGgAwIBAgIEEAAApjANBgkqhkiG9w0BAQUFADBEMQswCQYDVQQGEwJE
RTEPMA0GA1UECAwGSGVzc2VuMRQwEgYDVQQKDAtwcml2YWN5aWRlYTEOMAwGA1UE
AwwFQ0EwMDEwHhcNMTUwOTEyMDgzMjA2WhcNMTYwOTExMDgzMjA2WjA3MRMwEQYD
VQQDEwpTdGV2ZSBUZXN0MSAwHgYJKoZIhvcNAQkBFhFzdGV2ZUBvcGVuc3NsLm9y
ZzCCASIwDQYJKoZIhvcNAQEBBQADggEPADCCAQoCggEBANKBiSBRSA9z9BEyJNUf
HP1c9bbmxfBSgdzSr2ZKfJMxYVyv0W0GcANgfHIMiN1JzZ4CbNJa11MP89q+aWS1
DwwA47NQR6Ozm7oTUNZYWkurOeARygonZwN4ImZtkh4bXEmu5mvRjjudBtPGrE1T
QxCr6JbBh4KXmY8g05kSNzGE4Yr/KQNfIpA+f5vgIMGt3K5MORoxlhcCjLLZtA0g
Ept9hlT9M/3BKmJG+GCWz24BbyLfE0fnl+wFciOjYvj676yccvA3yy83z5CoJ1GG
xtd4CI9+JaIVcKL7HLYVXqCXi4FMCSiKJzuUvHHbW3E3misW4G+1yfVLTyC6Zc+v
ra0CAwEAAaOCAQ4wggEKMAsGA1UdDwQEAwIFoDAJBgNVHRMEAjAAMBEGCWCGSAGG
+EIBAQQEAwIGQDAzBglghkgBhvhCAQ0EJhYkT3BlblNTTCBHZW5lcmF0ZWQgU2Vy
dmVyIENlcnRpZmljYXRlMB0GA1UdDgQWBBTlJW0+rw3dP0zyRRk51RTbfpzArTB0
BgNVHSMEbTBrgBT0p8DMkUavZPOR8if4yLJviocyc6FIpEYwRDELMAkGA1UEBhMC
REUxDzANBgNVBAgMBkhlc3NlbjEUMBIGA1UECgwLcHJpdmFjeWlkZWExDjAMBgNV
BAMMBUNBMDAxggkA+8jrrIPNEgcwEwYDVR0lBAwwCgYIKwYBBQUHAwEwDQYJKoZI
hvcNAQEFBQADggEBAJwsrcIgcv0Bw8kNbyQHHE6I6WLq+hKBJIzyXcpIuPdNljXE
J41/ck0t/Vi6TtLchReA82PXFoGPzVrn9up7in3JDS1xa9XFiVrM4kzfaRGIUxgr
cNmIUcktAoW5/R5Pe96NAXQFjhImVQGoMEqzZ+Z/O6FUtKczBl1dVbumQ5Y+tqlQ
ahyDxSdCruu5UA9H1vAbG2v+S3EgeMQoeLkodtHAdNlaRyimntIxaQTcsTmOI3z5
z2Qyws7smUu6bWTEUID4JQ+gHGz1tuagjLhLQxqG89hnHgiipsX36BRH7WjrQ1bu
4YwSz9CsZ9Z4AgNhIAb++N2fkA0T6hKLxO10trg=
-----END CERTIFICATE-----
