Certificate:
    Data:
        Version: 3 (0x2)
        Serial Number: 268435631 (0x100000af)
    Signature Algorithm: sha1WithRSAEncryption
        Issuer: C=DE, ST=Hessen, O=privacyidea, CN=CA001
        Validity
            Not Before: Sep 12 09:41:37 2015 GMT
            Not After : Sep 11 09:41:37 2016 GMT
        Subject: C=DE, ST=Hessen, O=privacyidea, CN=requester.localdomain
        Subject Public Key Info:
            Public Key Algorithm: rsaEncryption
                Public-Key: (2048 bit)
                Modulus:
                    00:cd:be:14:4f:fa:ce:01:3f:42:22:1b:1d:9c:af:
                    dd:92:d2:7f:db:6c:b7:3e:39:43:43:6b:13:03:f1:
                    05:f4:07:74:bc:76:69:28:0b:af:19:8e:d7:fc:e3:
                    cd:c6:58:f2:ca:7f:08:6d:53:fc:07:02:44:24:c6:
                    b4:34:4c:8c:04:fe:33:0e:40:e2:20:ba:02:73:5a:
                    f7:f5:4f:63:6e:cc:c6:b6:df:54:1d:37:39:7d:51:
                    36:26:5f:bd:dc:3f:a8:8b:6b:a2:ae:b6:9d:d6:21:
                    e7:df:41:b8:7a:28:2a:68:48:ca:a8:2d:ed:e1:e9:
                    46:5e:5a:72:6d:b4:84:38:87:91:fd:94:11:0b:28:
                    84:c6:c2:2f:2a:fb:01:f9:36:7a:09:75:d1:33:88:
                    3c:73:41:5b:c8:bf:94:89:70:a1:f0:c0:b9:2e:50:
                    53:1e:b1:17:64:69:f4:2d:81:e0:a9:0d:0e:32:e9:
                    ba:55:8a:85:f1:1b:6f:49:79:b4:7f:88:c3:0d:3e:
                    54:88:9b:3d:1f:38:8c:04:f3:ee:6a:63:2b:f5:c6:
                    db:b4:83:aa:c4:78:41:3a:7d:4b:e1:c8:3e:71:ca:
                    1b:61:59:ea:c6:c4:ca:32:5e:c9:e9:bf:12:29:e6:
                    c6:c3:63:fe:a0:55:da:7a:f1:60:98:4d:26:ed:fa:
                    70:2d
                Exponent: 65537 (0x10001)
        X509v3 extensions:
            X509v3 Key Usage: 
                Digital Signature, Key Encipherment
            X509v3 Basic Constraints: 
                CA:FALSE
            Netscape Cert Type: 
                SSL Server
            Netscape Comment: 
                OpenSSL Generated Server Certificate
            X509v3 Subject Key Identifier: 
                53:3F:ED:5D:09:07:B3:65:7B:AB:45:C9:24:5B:09:77:80:0A:96:ED
            X509v3 Authority Key Identifier: 
                keyid:F4:A7:C0:CC:91:46:AF:64:F3:91:F2:27:F8:C8:B2:6F:8A:87:32:73
                DirName:/C=DE/ST=Hessen/O=privacyidea/CN=CA001
                serial:FB:C8:EB:AC:83:CD:12:07

            X509v3 Extended Key Usage: 
                TLS Web Server Authentication
    Signature Algorithm: sha1WithRSAEncryption
         82:34:c2:58:00:22:b5:bb:20:70:45:32:91:1f:9d:67:dd:7a:
         3d:73:96:88:b2:03:34:39:fc:2b:2f:5b:04:38:b5:b1:dd:81:
         b9:93:0b:8e:f8:2e:a6:f5:74:4d:17:e1:66:3f:01:a5:7e:a5:
         24:45:e4:88:65:42:76:a1:9f:e2:8d:7a:04:fe:7e:97:14:ae:
         27:a9:64:b4:d0:7f:ab:b9:c6:e8:15:20:40:1e:28:b1:26:6d:
         8a:ad:d4:d6:57:27:6d:ac:54:fa:fc:f4:64:f9:a2:e5:c0:d2:
         93:b3:fa:8e:4a:c6:11:78:d7:66:28:81:fd:94:c1:89:33:12:
         47:eb:ae:e4:a7:bb:74:06:6a:74:90:04:13:94:80:8b:95:ea:
         79:8a:3e:a5:0f:67:cb:d0:c3:4e:97:e7:4d:ac:e4:ac:14:6e:
         6d:4e:97:58:1b:1c:db:d0:f2:c1:3b:65:7d:de:29:cc:59:8a:
         62:93:fc:06:52:a9:af:dd:70:8b:b4:e1:ef:20:13:d0:cd:f0:
         9a:b7:2f:9f:97:9f:0e:d0:0a:21:a8:73:21:3b:08:14:48:65:
         64:e7:c1:cd:b6:cd:c5:7c:29:c6:8d:17:71:3a:b1:c0:c2:0f:
         93:b4:0d:85:a8:1d:c1:02:66:ad:09:08:06:5c:a0:33:f9:95:
         c3:9a:5e:26
-----BEGIN CERTIFICATE-----
MIIEJjCCAw6gAwIBAgIEEAAArzANBgkqhkiG9w0BAQUFADBEMQswCQYDVQQGEwJE
RTEPMA0GA1UECAwGSGVzc2VuMRQwEgYDVQQKDAtwcml2YWN5aWRlYTEOMAwGA1UE
AwwFQ0EwMDEwHhcNMTUwOTEyMDk0MTM3WhcNMTYwOTExMDk0MTM3WjBUMQswCQYD
VQQGEwJERTEPMA0GA1UECAwGSGVzc2VuMRQwEgYDVQQKDAtwcml2YWN5aWRlYTEe
MBwGA1UEAwwVcmVxdWVzdGVyLmxvY2FsZG9tYWluMIIBIjANBgkqhkiG9w0BAQEF
AAOCAQ8AMIIBCgKCAQEAzb4UT/rOAT9CIhsdnK/dktJ/22y3PjlDQ2sTA/EF9Ad0
vHZpKAuvGY7X/OPNxljyyn8IbVP8BwJEJMa0NEyMBP4zDkDiILoCc1r39U9jbszG
tt9UHTc5fVE2Jl+93D+oi2uirrad1iHn30G4eigqaEjKqC3t4elGXlpybbSEOIeR
/ZQRCyiExsIvKvsB+TZ6CXXRM4g8c0FbyL+UiXCh8MC5LlBTHrEXZGn0LYHgqQ0O
Mum6VYqF8RtvSXm0f4jDDT5UiJs9HziMBPPuamMr9cbbtIOqxHhBOn1L4cg+ccob
YVnqxsTKMl7J6b8SKebGw2P+oFXaevFgmE0m7fpwLQIDAQABo4IBDjCCAQowCwYD
VR0PBAQDAgWgMAkGA1UdEwQCMAAwEQYJYIZIAYb4QgEBBAQDAgZAMDMGCWCGSAGG
+EIBDQQmFiRPcGVuU1NMIEdlbmVyYXRlZCBTZXJ2ZXIgQ2VydGlmaWNhdGUwHQYD
VR0OBBYEFFM/7V0JB7Nle6tFySRbCXeACpbtMHQGA1UdIwRtMGuAFPSnwMyRRq9k
85HyJ/jIsm+KhzJzoUikRjBEMQswCQYDVQQGEwJERTEPMA0GA1UECAwGSGVzc2Vu
MRQwEgYDVQQKDAtwcml2YWN5aWRlYTEOMAwGA1UEAwwFQ0EwMDGCCQD7yOusg80S
BzATBgNVHSUEDDAKBggrBgEFBQcDATANBgkqhkiG9w0BAQUFAAOCAQEAgjTCWAAi
tbsgcEUykR+dZ916PXOWiLIDNDn8Ky9bBDi1sd2BuZMLjvgupvV0TRfhZj8BpX6l
JEXkiGVCdqGf4o16BP5+lxSuJ6lktNB/q7nG6BUgQB4osSZtiq3U1lcnbaxU+vz0
ZPmi5cDSk7P6jkrGEXjXZiiB/ZTBiTMSR+uu5Ke7dAZqdJAEE5SAi5XqeYo+pQ9n
y9DDTpfnTazkrBRubU6XWBsc29DywTtlfd4pzFmKYpP8BlKpr91wi7Th7yAT0M3w
mrcvn5efDtAKIahzITsIFEhlZOfBzbbNxXwpxo0XcTqxwMIPk7QNhagdwQJmrQkI
BlygM/mVw5peJg==
-----END CERTIFICATE-----
