Certificate:
    Data:
        Version: 3 (0x2)
        Serial Number: 268435733 (0x10000115)
    Signature Algorithm: sha256WithRSAEncryption
        Issuer: C=DE, ST=Hessen, O=privacyidea, CN=CA001
        Validity
            Not Before: Jan  9 23:45:38 2019 GMT
            Not After : Jan  9 23:45:38 2020 GMT
        Subject: CN=selfservice,CN=user,O=realm1/emailAddress=meine
        Subject Public Key Info:
            Public Key Algorithm: rsaEncryption
                Public-Key: (2048 bit)
                Modulus:
                    00:cf:3c:d4:33:0e:12:c4:e6:da:cd:b6:56:a1:1c:
                    26:bb:26:1c:8a:4a:73:a8:58:8a:b6:1e:b3:8b:99:
                    d2:1d:07:c2:92:89:79:c0:69:d8:c8:df:28:61:98:
                    1e:b3:fe:ae:2b:bd:78:a9:f7:6e:47:dc:a3:a0:16:
                    8c:85:02:c1:4e:92:fd:72:6e:f0:c8:03:29:9b:b8:
                    00:6e:c0:83:95:c8:34:20:36:9c:b3:e5:e4:e6:76:
                    73:a3:1a:ad:40:96:e0:53:54:00:ec:76:79:9a:c6:
                    0d:7e:b6:bd:29:ec:83:f3:cb:89:a4:cb:6c:00:ba:
                    0c:c5:78:0f:ff:69:b8:94:f4:04:70:43:3f:d8:9e:
                    d7:a7:fb:5d:ce:75:8e:da:e7:c4:07:b1:9d:de:6f:
                    88:4b:b6:4d:9a:cf:f9:bc:fa:9f:cd:32:6d:f6:3a:
                    0b:0d:23:42:78:ec:97:42:bf:0e:4d:60:56:e1:d3:
                    02:f2:19:cb:84:57:90:e5:70:a1:a2:83:35:86:e2:
                    da:86:9f:f9:8a:c4:79:b3:52:28:da:cb:bb:34:ca:
                    d3:da:91:4a:cf:8d:76:a2:b2:6b:9b:f9:96:fd:09:
                    2a:da:11:23:4d:f0:cb:d6:b2:b1:0e:12:6c:9a:19:
                    65:98:87:ca:e4:ee:24:ce:44:ac:90:8f:9d:1b:c5:
                    2a:9d
                Exponent: 65537 (0x10001)
        X509v3 extensions:
            X509v3 Key Usage: 
                Digital Signature, Key Encipherment
            X509v3 Basic Constraints: 
                CA:FALSE
            Netscape Cert Type: 
                SSL Server
            Netscape Comment: 
                OpenSSL Generated Server Certificate
            X509v3 Subject Key Identifier: 
                4D:07:90:AD:FF:1D:0D:E7:1A:DD:D6:2E:FA:BA:34:CB:AA:1F:24:C6
            X509v3 Authority Key Identifier: 
                keyid:F4:A7:C0:CC:91:46:AF:64:F3:91:F2:27:F8:C8:B2:6F:8A:87:32:73
                DirName:/C=DE/ST=Hessen/O=privacyidea/CN=CA001
                serial:FB:C8:EB:AC:83:CD:12:07

            X509v3 Extended Key Usage: 
                TLS Web Server Authentication
    Signature Algorithm: sha256WithRSAEncryption
         93:c0:a6:ed:49:c4:20:c2:05:76:ec:4e:f1:01:88:e2:11:64:
         7b:f4:cc:c7:81:6a:7a:ac:9f:16:bb:cb:0a:77:36:c7:08:28:
         fe:02:06:8c:3c:a0:ec:50:00:53:83:4b:3e:7a:00:da:d3:6a:
         c0:a3:14:b1:c1:fe:3b:c1:7d:6e:a2:4f:15:e9:24:da:a0:cf:
         69:d0:bc:3f:6f:b2:a5:2e:8e:00:19:48:42:b0:ba:c7:7f:17:
         66:09:e0:1e:ce:da:fe:cb:93:8f:2d:8c:e6:40:e8:24:4f:9e:
         2d:82:31:31:86:8d:4a:47:2f:57:54:e0:b3:2f:ef:01:50:97:
         4b:58:f9:31:d1:cf:13:00:be:34:a2:78:9d:68:17:d1:59:3c:
         3c:dd:7b:88:e0:c9:bd:22:ba:40:26:97:a9:50:8a:bb:41:4d:
         49:42:cf:1e:bd:35:70:87:b7:be:4d:45:39:a3:3e:24:7c:24:
         87:cb:8a:53:ec:6c:91:71:27:41:11:cc:a7:b6:5b:fb:a5:9f:
         97:45:ac:a1:71:94:dc:84:03:9f:4a:4e:26:aa:08:af:c5:c4:
         63:e1:ac:c8:8d:25:4a:ef:98:3b:41:30:97:ac:bc:a2:35:e5:
         34:67:bd:fc:1e:38:42:05:42:d5:1e:4c:29:99:bf:2c:97:f8:
         35:7d:f9:8b
-----BEGIN CERTIFICATE-----
MIIEDzCCAvegAwIBAgIEEAABFTANBgkqhkiG9w0BAQsFADBEMQswCQYDVQQGEwJE
RTEPMA0GA1UECAwGSGVzc2VuMRQwEgYDVQQKDAtwcml2YWN5aWRlYTEOMAwGA1UE
AwwFQ0EwMDEwHhcNMTkwMTA5MjM0NTM4WhcNMjAwMTA5MjM0NTM4WjA9MSUwIwYD
VQQDDBxzZWxmc2VydmljZSxDTj11c2VyLE89cmVhbG0xMRQwEgYJKoZIhvcNAQkB
FgVtZWluZTCCASIwDQYJKoZIhvcNAQEBBQADggEPADCCAQoCggEBAM881DMOEsTm
2s22VqEcJrsmHIpKc6hYirYes4uZ0h0HwpKJecBp2MjfKGGYHrP+riu9eKn3bkfc
o6AWjIUCwU6S/XJu8MgDKZu4AG7Ag5XINCA2nLPl5OZ2c6MarUCW4FNUAOx2eZrG
DX62vSnsg/PLiaTLbAC6DMV4D/9puJT0BHBDP9ie16f7Xc51jtrnxAexnd5viEu2
TZrP+bz6n80ybfY6Cw0jQnjsl0K/Dk1gVuHTAvIZy4RXkOVwoaKDNYbi2oaf+YrE
ebNSKNrLuzTK09qRSs+NdqKya5v5lv0JKtoRI03wy9aysQ4SbJoZZZiHyuTuJM5E
rJCPnRvFKp0CAwEAAaOCAQ4wggEKMAsGA1UdDwQEAwIFoDAJBgNVHRMEAjAAMBEG
CWCGSAGG+EIBAQQEAwIGQDAzBglghkgBhvhCAQ0EJhYkT3BlblNTTCBHZW5lcmF0
ZWQgU2VydmVyIENlcnRpZmljYXRlMB0GA1UdDgQWBBRNB5Ct/x0N5xrd1i76ujTL
qh8kxjB0BgNVHSMEbTBrgBT0p8DMkUavZPOR8if4yLJviocyc6FIpEYwRDELMAkG
A1UEBhMCREUxDzANBgNVBAgMBkhlc3NlbjEUMBIGA1UECgwLcHJpdmFjeWlkZWEx
DjAMBgNVBAMMBUNBMDAxggkA+8jrrIPNEgcwEwYDVR0lBAwwCgYIKwYBBQUHAwEw
DQYJKoZIhvcNAQELBQADggEBAJPApu1JxCDCBXbsTvEBiOIRZHv0zMeBanqsnxa7
ywp3NscIKP4CBow8oOxQAFODSz56ANrTasCjFLHB/jvBfW6iTxXpJNqgz2nQvD9v
sqUujgAZSEKwusd/F2YJ4B7O2v7Lk48tjOZA6CRPni2CMTGGjUpHL1dU4LMv7wFQ
l0tY+THRzxMAvjSieJ1oF9FZPDzde4jgyb0iukAml6lQirtBTUlCzx69NXCHt75N
RTmjPiR8JIfLilPsbJFxJ0ERzKe2W/uln5dFrKFxlNyEA59KTiaqCK/FxGPhrMiN
JUrvmDtBMJesvKI15TRnvfweOEIFQtUeTCmZvyyX+DV9+Ys=
-----END CERTIFICATE-----
