Certificate:
    Data:
        Version: 3 (0x2)
        Serial Number: 268435672 (0x100000d8)
        Signature Algorithm: sha256WithRSAEncryption
        Issuer: C=DE, ST=Hessen, O=privacyidea, CN=CA001
        Validity
            Not Before: Nov 17 10:24:40 2019 GMT
            Not After : Nov 16 10:24:40 2020 GMT
        Subject: CN=selfservice,CN=user,O=realm1/emailAddress=meine
        Subject Public Key Info:
            Public Key Algorithm: rsaEncryption
                RSA Public-Key: (2048 bit)
                Modulus:
                    00:cf:3c:d4:33:0e:12:c4:e6:da:cd:b6:56:a1:1c:
                    26:bb:26:1c:8a:4a:73:a8:58:8a:b6:1e:b3:8b:99:
                    d2:1d:07:c2:92:89:79:c0:69:d8:c8:df:28:61:98:
                    1e:b3:fe:ae:2b:bd:78:a9:f7:6e:47:dc:a3:a0:16:
                    8c:85:02:c1:4e:92:fd:72:6e:f0:c8:03:29:9b:b8:
                    00:6e:c0:83:95:c8:34:20:36:9c:b3:e5:e4:e6:76:
                    73:a3:1a:ad:40:96:e0:53:54:00:ec:76:79:9a:c6:
                    0d:7e:b6:bd:29:ec:83:f3:cb:89:a4:cb:6c:00:ba:
                    0c:c5:78:0f:ff:69:b8:94:f4:04:70:43:3f:d8:9e:
                    d7:a7:fb:5d:ce:75:8e:da:e7:c4:07:b1:9d:de:6f:
                    88:4b:b6:4d:9a:cf:f9:bc:fa:9f:cd:32:6d:f6:3a:
                    0b:0d:23:42:78:ec:97:42:bf:0e:4d:60:56:e1:d3:
                    02:f2:19:cb:84:57:90:e5:70:a1:a2:83:35:86:e2:
                    da:86:9f:f9:8a:c4:79:b3:52:28:da:cb:bb:34:ca:
                    d3:da:91:4a:cf:8d:76:a2:b2:6b:9b:f9:96:fd:09:
                    2a:da:11:23:4d:f0:cb:d6:b2:b1:0e:12:6c:9a:19:
                    65:98:87:ca:e4:ee:24:ce:44:ac:90:8f:9d:1b:c5:
                    2a:9d
                Exponent: 65537 (0x10001)
        X509v3 extensions:
            X509v3 Key Usage: 
                Digital Signature, Key Encipherment
            X509v3 Basic Constraints: 
                CA:FALSE
            Netscape Cert Type: 
                SSL Server
            Netscape Comment: 
                OpenSSL Generated Server Certificate
            X509v3 Subject Key Identifier: 
                4D:07:90:AD:FF:1D:0D:E7:1A:DD:D6:2E:FA:BA:34:CB:AA:1F:24:C6
            X509v3 Authority Key Identifier: 
                keyid:F4:A7:C0:CC:91:46:AF:64:F3:91:F2:27:F8:C8:B2:6F:8A:87:32:73
                DirName:/C=DE/ST=Hessen/O=privacyidea/CN=CA001
                serial:FB:C8:EB:AC:83:CD:12:07

            X509v3 Extended Key Usage: 
                TLS Web Server Authentication
    Signature Algorithm: sha256WithRSAEncryption
         48:93:c3:0e:72:0e:87:b7:50:15:b7:85:7b:0a:c2:ba:53:0e:
         69:c9:1e:69:46:56:da:65:94:e9:a5:99:56:56:73:d9:c9:54:
         77:5e:c8:24:83:cc:5e:10:81:83:48:23:1f:5d:9d:a5:3a:2c:
         0e:b7:aa:c8:5e:80:2f:d0:97:5d:6f:d2:70:c6:64:76:1b:4d:
         05:fe:13:28:41:9d:e6:24:da:c0:61:eb:7a:46:dc:6b:67:16:
         cd:bf:b5:cc:87:97:1d:7d:bf:ae:ed:25:dc:e4:e1:41:4e:66:
         af:9b:ec:d3:ee:9f:1c:13:3c:84:ab:27:31:b5:02:59:6d:cf:
         1e:c3:ee:56:49:43:73:3e:0e:ba:ce:21:8e:53:07:29:3b:52:
         f2:82:7b:ac:f6:44:d7:e1:b9:82:d4:64:97:55:88:cb:5c:b3:
         98:55:d2:9b:88:97:bc:24:37:da:f4:01:05:b2:d4:10:18:3d:
         c8:36:ee:d6:5b:de:cc:2f:0c:7e:87:09:38:ea:bb:5b:a4:38:
         1c:e7:0c:ed:f8:61:a8:0d:70:55:93:84:18:85:82:f5:8a:80:
         c4:53:86:1b:55:f8:25:97:62:a4:2e:b4:ba:aa:fa:8b:40:6c:
         b8:d3:f8:22:3b:7e:fb:a1:00:4b:c0:e6:c8:c7:6c:b5:1a:56:
         4f:54:7a:8b
-----BEGIN CERTIFICATE-----
MIIEDzCCAvegAwIBAgIEEAAA2DANBgkqhkiG9w0BAQsFADBEMQswCQYDVQQGEwJE
RTEPMA0GA1UECAwGSGVzc2VuMRQwEgYDVQQKDAtwcml2YWN5aWRlYTEOMAwGA1UE
AwwFQ0EwMDEwHhcNMTkxMTE3MTAyNDQwWhcNMjAxMTE2MTAyNDQwWjA9MSUwIwYD
VQQDDBxzZWxmc2VydmljZSxDTj11c2VyLE89cmVhbG0xMRQwEgYJKoZIhvcNAQkB
FgVtZWluZTCCASIwDQYJKoZIhvcNAQEBBQADggEPADCCAQoCggEBAM881DMOEsTm
2s22VqEcJrsmHIpKc6hYirYes4uZ0h0HwpKJecBp2MjfKGGYHrP+riu9eKn3bkfc
o6AWjIUCwU6S/XJu8MgDKZu4AG7Ag5XINCA2nLPl5OZ2c6MarUCW4FNUAOx2eZrG
DX62vSnsg/PLiaTLbAC6DMV4D/9puJT0BHBDP9ie16f7Xc51jtrnxAexnd5viEu2
TZrP+bz6n80ybfY6Cw0jQnjsl0K/Dk1gVuHTAvIZy4RXkOVwoaKDNYbi2oaf+YrE
ebNSKNrLuzTK09qRSs+NdqKya5v5lv0JKtoRI03wy9aysQ4SbJoZZZiHyuTuJM5E
rJCPnRvFKp0CAwEAAaOCAQ4wggEKMAsGA1UdDwQEAwIFoDAJBgNVHRMEAjAAMBEG
CWCGSAGG+EIBAQQEAwIGQDAzBglghkgBhvhCAQ0EJhYkT3BlblNTTCBHZW5lcmF0
ZWQgU2VydmVyIENlcnRpZmljYXRlMB0GA1UdDgQWBBRNB5Ct/x0N5xrd1i76ujTL
qh8kxjB0BgNVHSMEbTBrgBT0p8DMkUavZPOR8if4yLJviocyc6FIpEYwRDELMAkG
A1UEBhMCREUxDzANBgNVBAgMBkhlc3NlbjEUMBIGA1UECgwLcHJpdmFjeWlkZWEx
DjAMBgNVBAMMBUNBMDAxggkA+8jrrIPNEgcwEwYDVR0lBAwwCgYIKwYBBQUHAwEw
DQYJKoZIhvcNAQELBQADggEBAEiTww5yDoe3UBW3hXsKwrpTDmnJHmlGVtpllOml
mVZWc9nJVHdeyCSDzF4QgYNIIx9dnaU6LA63qshegC/Ql11v0nDGZHYbTQX+EyhB
neYk2sBh63pG3GtnFs2/tcyHlx19v67tJdzk4UFOZq+b7NPunxwTPISrJzG1Allt
zx7D7lZJQ3M+DrrOIY5TByk7UvKCe6z2RNfhuYLUZJdViMtcs5hV0puIl7wkN9r0
AQWy1BAYPcg27tZb3swvDH6HCTjqu1ukOBznDO34YagNcFWThBiFgvWKgMRThhtV
+CWXYqQutLqq+otAbLjT+CI7fvuhAEvA5sjHbLUaVk9Ueos=
-----END CERTIFICATE-----
