Certificate:
    Data:
        Version: 3 (0x2)
        Serial Number: 268435739 (0x1000011b)
    Signature Algorithm: sha256WithRSAEncryption
        Issuer: C=DE, ST=Hessen, O=privacyidea, CN=CA001
        Validity
            Not Before: Jan 10 00:00:05 2019 GMT
            Not After : Jan 10 00:00:05 2020 GMT
        Subject: C=DE, ST=Hessen, O=privacyidea, CN=requester.localdomain
        Subject Public Key Info:
            Public Key Algorithm: rsaEncryption
                Public-Key: (2048 bit)
                Modulus:
                    00:cd:be:14:4f:fa:ce:01:3f:42:22:1b:1d:9c:af:
                    dd:92:d2:7f:db:6c:b7:3e:39:43:43:6b:13:03:f1:
                    05:f4:07:74:bc:76:69:28:0b:af:19:8e:d7:fc:e3:
                    cd:c6:58:f2:ca:7f:08:6d:53:fc:07:02:44:24:c6:
                    b4:34:4c:8c:04:fe:33:0e:40:e2:20:ba:02:73:5a:
                    f7:f5:4f:63:6e:cc:c6:b6:df:54:1d:37:39:7d:51:
                    36:26:5f:bd:dc:3f:a8:8b:6b:a2:ae:b6:9d:d6:21:
                    e7:df:41:b8:7a:28:2a:68:48:ca:a8:2d:ed:e1:e9:
                    46:5e:5a:72:6d:b4:84:38:87:91:fd:94:11:0b:28:
                    84:c6:c2:2f:2a:fb:01:f9:36:7a:09:75:d1:33:88:
                    3c:73:41:5b:c8:bf:94:89:70:a1:f0:c0:b9:2e:50:
                    53:1e:b1:17:64:69:f4:2d:81:e0:a9:0d:0e:32:e9:
                    ba:55:8a:85:f1:1b:6f:49:79:b4:7f:88:c3:0d:3e:
                    54:88:9b:3d:1f:38:8c:04:f3:ee:6a:63:2b:f5:c6:
                    db:b4:83:aa:c4:78:41:3a:7d:4b:e1:c8:3e:71:ca:
                    1b:61:59:ea:c6:c4:ca:32:5e:c9:e9:bf:12:29:e6:
                    c6:c3:63:fe:a0:55:da:7a:f1:60:98:4d:26:ed:fa:
                    70:2d
                Exponent: 65537 (0x10001)
        X509v3 extensions:
            X509v3 Key Usage: 
                Digital Signature, Key Encipherment
            X509v3 Basic Constraints: 
                CA:FALSE
            Netscape Cert Type: 
                SSL Server
            Netscape Comment: 
                OpenSSL Generated Server Certificate
            X509v3 Subject Key Identifier: 
                53:3F:ED:5D:09:07:B3:65:7B:AB:45:C9:24:5B:09:77:80:0A:96:ED
            X509v3 Authority Key Identifier: 
                keyid:F4:A7:C0:CC:91:46:AF:64:F3:91:F2:27:F8:C8:B2:6F:8A:87:32:73
                DirName:/C=DE/ST=Hessen/O=privacyidea/CN=CA001
                serial:FB:C8:EB:AC:83:CD:12:07

            X509v3 Extended Key Usage: 
                TLS Web Server Authentication
    Signature Algorithm: sha256WithRSAEncryption
         03:57:a6:ad:c3:5b:ca:9e:97:d8:68:9b:52:0d:64:81:aa:e0:
         3c:fd:5e:c5:6c:a8:e2:87:40:12:b5:d9:a2:68:96:49:80:04:
         2c:6a:c2:0c:83:0d:05:35:2e:0d:3e:02:6d:2c:c9:cb:a9:d5:
         d5:ab:20:eb:a9:5c:28:3f:63:93:31:91:4c:44:c7:51:92:1e:
         80:e6:d2:6e:a0:fc:d1:ce:36:c0:28:c6:27:7d:ac:d7:5b:ea:
         08:8e:c3:65:2d:7d:a2:a0:88:b2:a5:2c:c0:67:b1:ff:d9:9a:
         3e:3a:00:8d:84:23:a9:f2:7d:6a:42:f4:31:35:f3:5e:f5:dc:
         d6:28:d9:4d:1a:c0:94:bb:6e:d8:f7:d7:03:0f:35:00:8e:39:
         24:d8:f1:33:a3:bd:3e:d3:38:e5:86:e8:21:64:8a:0b:95:d5:
         8b:69:a1:cc:a3:23:c6:b5:bf:32:71:20:f1:3c:1d:61:89:66:
         e4:7e:ce:d8:38:83:7b:9f:4c:10:0f:9d:38:4a:5c:d4:8c:9d:
         f8:4f:3e:48:cd:32:89:07:57:e1:3b:b6:6d:9c:5a:2c:8b:9f:
         1a:f5:f5:53:f8:b5:ab:2b:67:69:3f:db:82:99:35:77:f9:bd:
         11:c2:00:bc:28:02:11:22:7b:ac:ca:9d:33:e3:c1:16:01:a9:
         e2:29:93:6b
-----BEGIN CERTIFICATE-----
MIIEJjCCAw6gAwIBAgIEEAABGzANBgkqhkiG9w0BAQsFADBEMQswCQYDVQQGEwJE
RTEPMA0GA1UECAwGSGVzc2VuMRQwEgYDVQQKDAtwcml2YWN5aWRlYTEOMAwGA1UE
AwwFQ0EwMDEwHhcNMTkwMTEwMDAwMDA1WhcNMjAwMTEwMDAwMDA1WjBUMQswCQYD
VQQGEwJERTEPMA0GA1UECAwGSGVzc2VuMRQwEgYDVQQKDAtwcml2YWN5aWRlYTEe
MBwGA1UEAwwVcmVxdWVzdGVyLmxvY2FsZG9tYWluMIIBIjANBgkqhkiG9w0BAQEF
AAOCAQ8AMIIBCgKCAQEAzb4UT/rOAT9CIhsdnK/dktJ/22y3PjlDQ2sTA/EF9Ad0
vHZpKAuvGY7X/OPNxljyyn8IbVP8BwJEJMa0NEyMBP4zDkDiILoCc1r39U9jbszG
tt9UHTc5fVE2Jl+93D+oi2uirrad1iHn30G4eigqaEjKqC3t4elGXlpybbSEOIeR
/ZQRCyiExsIvKvsB+TZ6CXXRM4g8c0FbyL+UiXCh8MC5LlBTHrEXZGn0LYHgqQ0O
Mum6VYqF8RtvSXm0f4jDDT5UiJs9HziMBPPuamMr9cbbtIOqxHhBOn1L4cg+ccob
YVnqxsTKMl7J6b8SKebGw2P+oFXaevFgmE0m7fpwLQIDAQABo4IBDjCCAQowCwYD
VR0PBAQDAgWgMAkGA1UdEwQCMAAwEQYJYIZIAYb4QgEBBAQDAgZAMDMGCWCGSAGG
+EIBDQQmFiRPcGVuU1NMIEdlbmVyYXRlZCBTZXJ2ZXIgQ2VydGlmaWNhdGUwHQYD
VR0OBBYEFFM/7V0JB7Nle6tFySRbCXeACpbtMHQGA1UdIwRtMGuAFPSnwMyRRq9k
85HyJ/jIsm+KhzJzoUikRjBEMQswCQYDVQQGEwJERTEPMA0GA1UECAwGSGVzc2Vu
MRQwEgYDVQQKDAtwcml2YWN5aWRlYTEOMAwGA1UEAwwFQ0EwMDGCCQD7yOusg80S
BzATBgNVHSUEDDAKBggrBgEFBQcDATANBgkqhkiG9w0BAQsFAAOCAQEAA1emrcNb
yp6X2GibUg1kgargPP1exWyo4odAErXZomiWSYAELGrCDIMNBTUuDT4CbSzJy6nV
1asg66lcKD9jkzGRTETHUZIegObSbqD80c42wCjGJ32s11vqCI7DZS19oqCIsqUs
wGex/9maPjoAjYQjqfJ9akL0MTXzXvXc1ijZTRrAlLtu2PfXAw81AI45JNjxM6O9
PtM45YboIWSKC5XVi2mhzKMjxrW/MnEg8TwdYYlm5H7O2DiDe59MEA+dOEpc1Iyd
+E8+SM0yiQdX4Tu2bZxaLIufGvX1U/i1qytnaT/bgpk1d/m9EcIAvCgCESJ7rMqd
M+PBFgGp4imTaw==
-----END CERTIFICATE-----
