Certificate:
    Data:
        Version: 3 (0x2)
        Serial Number: 268435625 (0x100000a9)
    Signature Algorithm: sha1WithRSAEncryption
        Issuer: C=DE, ST=Hessen, O=privacyidea, CN=CA001
        Validity
            Not Before: Sep 12 08:37:54 2015 GMT
            Not After : Sep 11 08:37:54 2016 GMT
        Subject: C=DE, ST=Hessen, O=privacyidea, CN=requester.localdomain
        Subject Public Key Info:
            Public Key Algorithm: rsaEncryption
                Public-Key: (2048 bit)
                Modulus:
                    00:cd:be:14:4f:fa:ce:01:3f:42:22:1b:1d:9c:af:
                    dd:92:d2:7f:db:6c:b7:3e:39:43:43:6b:13:03:f1:
                    05:f4:07:74:bc:76:69:28:0b:af:19:8e:d7:fc:e3:
                    cd:c6:58:f2:ca:7f:08:6d:53:fc:07:02:44:24:c6:
                    b4:34:4c:8c:04:fe:33:0e:40:e2:20:ba:02:73:5a:
                    f7:f5:4f:63:6e:cc:c6:b6:df:54:1d:37:39:7d:51:
                    36:26:5f:bd:dc:3f:a8:8b:6b:a2:ae:b6:9d:d6:21:
                    e7:df:41:b8:7a:28:2a:68:48:ca:a8:2d:ed:e1:e9:
                    46:5e:5a:72:6d:b4:84:38:87:91:fd:94:11:0b:28:
                    84:c6:c2:2f:2a:fb:01:f9:36:7a:09:75:d1:33:88:
                    3c:73:41:5b:c8:bf:94:89:70:a1:f0:c0:b9:2e:50:
                    53:1e:b1:17:64:69:f4:2d:81:e0:a9:0d:0e:32:e9:
                    ba:55:8a:85:f1:1b:6f:49:79:b4:7f:88:c3:0d:3e:
                    54:88:9b:3d:1f:38:8c:04:f3:ee:6a:63:2b:f5:c6:
                    db:b4:83:aa:c4:78:41:3a:7d:4b:e1:c8:3e:71:ca:
                    1b:61:59:ea:c6:c4:ca:32:5e:c9:e9:bf:12:29:e6:
                    c6:c3:63:fe:a0:55:da:7a:f1:60:98:4d:26:ed:fa:
                    70:2d
                Exponent: 65537 (0x10001)
        X509v3 extensions:
            X509v3 Key Usage: 
                Digital Signature, Key Encipherment
            X509v3 Basic Constraints: 
                CA:FALSE
            Netscape Cert Type: 
                SSL Server
            Netscape Comment: 
                OpenSSL Generated Server Certificate
            X509v3 Subject Key Identifier: 
                53:3F:ED:5D:09:07:B3:65:7B:AB:45:C9:24:5B:09:77:80:0A:96:ED
            X509v3 Authority Key Identifier: 
                keyid:F4:A7:C0:CC:91:46:AF:64:F3:91:F2:27:F8:C8:B2:6F:8A:87:32:73
                DirName:/C=DE/ST=Hessen/O=privacyidea/CN=CA001
                serial:FB:C8:EB:AC:83:CD:12:07

            X509v3 Extended Key Usage: 
                TLS Web Server Authentication
    Signature Algorithm: sha1WithRSAEncryption
         b8:7a:b7:1f:72:5c:5b:4d:a5:3f:00:ce:7b:9e:7a:d2:39:d9:
         39:bc:fd:8d:e1:07:62:dc:14:77:0b:c7:d0:9a:4b:03:42:ac:
         48:ab:e0:9c:3f:56:0a:5d:f7:1a:a8:fc:00:7b:6f:bc:6c:e0:
         b9:f9:71:de:55:df:24:f0:38:fc:a5:59:50:e7:d6:45:9b:21:
         90:b7:e1:cc:e6:d6:74:3a:e3:ac:e8:c4:27:ab:64:05:f8:48:
         b7:e0:14:c0:a9:7d:54:55:e7:14:6e:7a:d2:3d:88:b6:2d:c1:
         98:e1:3d:54:95:52:eb:54:e7:33:a3:70:c1:3a:a6:0f:c1:6f:
         d9:ab:29:0e:30:ee:e0:ee:ee:81:aa:1c:8a:0e:0b:6f:25:03:
         45:63:58:4f:8c:68:0e:d4:9b:0a:41:23:0e:e6:e8:a3:85:81:
         38:d1:09:ad:65:ea:aa:5f:fc:1c:88:eb:52:d6:bb:fe:94:70:
         23:62:0e:f3:85:d0:a4:5c:a5:15:53:cd:19:82:c2:3f:fb:09:
         d3:e1:ba:86:7d:8b:fd:96:a9:35:0a:00:aa:ab:46:2e:37:fa:
         2c:75:58:b8:df:0a:86:91:4a:30:3d:04:aa:29:fd:ec:c0:3d:
         92:04:d6:92:75:59:74:f8:64:f7:1d:b1:4d:c0:99:70:1c:9f:
         51:6c:41:cd
-----BEGIN CERTIFICATE-----
MIIEJjCCAw6gAwIBAgIEEAAAqTANBgkqhkiG9w0BAQUFADBEMQswCQYDVQQGEwJE
RTEPMA0GA1UECAwGSGVzc2VuMRQwEgYDVQQKDAtwcml2YWN5aWRlYTEOMAwGA1UE
AwwFQ0EwMDEwHhcNMTUwOTEyMDgzNzU0WhcNMTYwOTExMDgzNzU0WjBUMQswCQYD
VQQGEwJERTEPMA0GA1UECAwGSGVzc2VuMRQwEgYDVQQKDAtwcml2YWN5aWRlYTEe
MBwGA1UEAwwVcmVxdWVzdGVyLmxvY2FsZG9tYWluMIIBIjANBgkqhkiG9w0BAQEF
AAOCAQ8AMIIBCgKCAQEAzb4UT/rOAT9CIhsdnK/dktJ/22y3PjlDQ2sTA/EF9Ad0
vHZpKAuvGY7X/OPNxljyyn8IbVP8BwJEJMa0NEyMBP4zDkDiILoCc1r39U9jbszG
tt9UHTc5fVE2Jl+93D+oi2uirrad1iHn30G4eigqaEjKqC3t4elGXlpybbSEOIeR
/ZQRCyiExsIvKvsB+TZ6CXXRM4g8c0FbyL+UiXCh8MC5LlBTHrEXZGn0LYHgqQ0O
Mum6VYqF8RtvSXm0f4jDDT5UiJs9HziMBPPuamMr9cbbtIOqxHhBOn1L4cg+ccob
YVnqxsTKMl7J6b8SKebGw2P+oFXaevFgmE0m7fpwLQIDAQABo4IBDjCCAQowCwYD
VR0PBAQDAgWgMAkGA1UdEwQCMAAwEQYJYIZIAYb4QgEBBAQDAgZAMDMGCWCGSAGG
+EIBDQQmFiRPcGVuU1NMIEdlbmVyYXRlZCBTZXJ2ZXIgQ2VydGlmaWNhdGUwHQYD
VR0OBBYEFFM/7V0JB7Nle6tFySRbCXeACpbtMHQGA1UdIwRtMGuAFPSnwMyRRq9k
85HyJ/jIsm+KhzJzoUikRjBEMQswCQYDVQQGEwJERTEPMA0GA1UECAwGSGVzc2Vu
MRQwEgYDVQQKDAtwcml2YWN5aWRlYTEOMAwGA1UEAwwFQ0EwMDGCCQD7yOusg80S
BzATBgNVHSUEDDAKBggrBgEFBQcDATANBgkqhkiG9w0BAQUFAAOCAQEAuHq3H3Jc
W02lPwDOe5560jnZObz9jeEHYtwUdwvH0JpLA0KsSKvgnD9WCl33Gqj8AHtvvGzg
uflx3lXfJPA4/KVZUOfWRZshkLfhzObWdDrjrOjEJ6tkBfhIt+AUwKl9VFXnFG56
0j2Iti3BmOE9VJVS61TnM6NwwTqmD8Fv2aspDjDu4O7ugaocig4LbyUDRWNYT4xo
DtSbCkEjDuboo4WBONEJrWXqql/8HIjrUta7/pRwI2IO84XQpFylFVPNGYLCP/sJ
0+G6hn2L/ZapNQoAqqtGLjf6LHVYuN8KhpFKMD0Eqin97MA9kgTWknVZdPhk9x2x
TcCZcByfUWxBzQ==
-----END CERTIFICATE-----
