Certificate:
    Data:
        Version: 3 (0x2)
        Serial Number: 268435668 (0x100000d4)
        Signature Algorithm: sha256WithRSAEncryption
        Issuer: C=DE, ST=Hessen, O=privacyidea, CN=CA001
        Validity
            Not Before: Nov 17 10:20:37 2019 GMT
            Not After : Nov 16 10:20:37 2020 GMT
        Subject: CN=Steve Test/emailAddress=steve@openssl.org
        Subject Public Key Info:
            Public Key Algorithm: rsaEncryption
                RSA Public-Key: (2048 bit)
                Modulus:
                    00:d2:81:89:20:51:48:0f:73:f4:11:32:24:d5:1f:
                    1c:fd:5c:f5:b6:e6:c5:f0:52:81:dc:d2:af:66:4a:
                    7c:93:31:61:5c:af:d1:6d:06:70:03:60:7c:72:0c:
                    88:dd:49:cd:9e:02:6c:d2:5a:d7:53:0f:f3:da:be:
                    69:64:b5:0f:0c:00:e3:b3:50:47:a3:b3:9b:ba:13:
                    50:d6:58:5a:4b:ab:39:e0:11:ca:0a:27:67:03:78:
                    22:66:6d:92:1e:1b:5c:49:ae:e6:6b:d1:8e:3b:9d:
                    06:d3:c6:ac:4d:53:43:10:ab:e8:96:c1:87:82:97:
                    99:8f:20:d3:99:12:37:31:84:e1:8a:ff:29:03:5f:
                    22:90:3e:7f:9b:e0:20:c1:ad:dc:ae:4c:39:1a:31:
                    96:17:02:8c:b2:d9:b4:0d:20:12:9b:7d:86:54:fd:
                    33:fd:c1:2a:62:46:f8:60:96:cf:6e:01:6f:22:df:
                    13:47:e7:97:ec:05:72:23:a3:62:f8:fa:ef:ac:9c:
                    72:f0:37:cb:2f:37:cf:90:a8:27:51:86:c6:d7:78:
                    08:8f:7e:25:a2:15:70:a2:fb:1c:b6:15:5e:a0:97:
                    8b:81:4c:09:28:8a:27:3b:94:bc:71:db:5b:71:37:
                    9a:2b:16:e0:6f:b5:c9:f5:4b:4f:20:ba:65:cf:af:
                    ad:ad
                Exponent: 65537 (0x10001)
        X509v3 extensions:
            X509v3 Key Usage: 
                Digital Signature, Key Encipherment
            X509v3 Basic Constraints: 
                CA:FALSE
            Netscape Cert Type: 
                SSL Server
            Netscape Comment: 
                OpenSSL Generated Server Certificate
            X509v3 Subject Key Identifier: 
                E5:25:6D:3E:AF:0D:DD:3F:4C:F2:45:19:39:D5:14:DB:7E:9C:C0:AD
            X509v3 Authority Key Identifier: 
                keyid:F4:A7:C0:CC:91:46:AF:64:F3:91:F2:27:F8:C8:B2:6F:8A:87:32:73
                DirName:/C=DE/ST=Hessen/O=privacyidea/CN=CA001
                serial:FB:C8:EB:AC:83:CD:12:07

            X509v3 Extended Key Usage: 
                TLS Web Server Authentication
    Signature Algorithm: sha256WithRSAEncryption
         0c:20:af:95:9e:73:f8:b7:02:68:be:18:be:3f:84:22:b0:5c:
         7f:0c:ff:a5:39:3c:1b:0f:6f:59:d9:87:9b:bf:f5:3d:eb:b4:
         12:26:62:ed:a7:ad:5c:c8:ea:fe:dc:3c:e4:60:42:08:c5:3a:
         a4:14:9f:44:b8:b6:a5:d3:99:5e:cd:19:d6:43:3f:eb:eb:ad:
         ec:cb:cc:40:a4:c0:28:f4:22:dd:77:c0:1c:6d:11:24:ad:40:
         01:30:78:1b:ab:0d:d6:15:62:cb:6d:cd:7f:1d:05:2a:42:04:
         b2:d5:0b:c6:47:00:2a:5f:fe:3e:a9:68:01:e0:f4:ab:e5:bd:
         93:c9:d7:ab:38:a2:54:67:6b:3b:0a:67:14:1f:b4:0c:75:b7:
         8f:6b:dc:92:4b:f6:76:fa:30:71:f3:ae:d7:8b:e7:a8:3f:d3:
         50:94:44:7b:9b:1f:4e:6a:ab:36:c7:6a:7f:53:41:f7:62:d2:
         e3:57:07:80:67:09:46:44:6e:a3:e3:7f:6c:e2:70:51:a3:77:
         cf:43:80:7f:47:84:6f:ac:6c:27:42:24:21:3f:a9:36:c3:42:
         58:7b:9a:43:2c:9b:82:b9:b4:73:ca:3a:c1:55:05:29:0f:28:
         27:12:78:65:b9:80:d7:5b:81:d6:88:d7:b9:63:a4:8c:02:1a:
         b5:e5:e8:eb
-----BEGIN CERTIFICATE-----
MIIECTCCAvGgAwIBAgIEEAAA1DANBgkqhkiG9w0BAQsFADBEMQswCQYDVQQGEwJE
RTEPMA0GA1UECAwGSGVzc2VuMRQwEgYDVQQKDAtwcml2YWN5aWRlYTEOMAwGA1UE
AwwFQ0EwMDEwHhcNMTkxMTE3MTAyMDM3WhcNMjAxMTE2MTAyMDM3WjA3MRMwEQYD
VQQDDApTdGV2ZSBUZXN0MSAwHgYJKoZIhvcNAQkBFhFzdGV2ZUBvcGVuc3NsLm9y
ZzCCASIwDQYJKoZIhvcNAQEBBQADggEPADCCAQoCggEBANKBiSBRSA9z9BEyJNUf
HP1c9bbmxfBSgdzSr2ZKfJMxYVyv0W0GcANgfHIMiN1JzZ4CbNJa11MP89q+aWS1
DwwA47NQR6Ozm7oTUNZYWkurOeARygonZwN4ImZtkh4bXEmu5mvRjjudBtPGrE1T
QxCr6JbBh4KXmY8g05kSNzGE4Yr/KQNfIpA+f5vgIMGt3K5MORoxlhcCjLLZtA0g
Ept9hlT9M/3BKmJG+GCWz24BbyLfE0fnl+wFciOjYvj676yccvA3yy83z5CoJ1GG
xtd4CI9+JaIVcKL7HLYVXqCXi4FMCSiKJzuUvHHbW3E3misW4G+1yfVLTyC6Zc+v
ra0CAwEAAaOCAQ4wggEKMAsGA1UdDwQEAwIFoDAJBgNVHRMEAjAAMBEGCWCGSAGG
+EIBAQQEAwIGQDAzBglghkgBhvhCAQ0EJhYkT3BlblNTTCBHZW5lcmF0ZWQgU2Vy
dmVyIENlcnRpZmljYXRlMB0GA1UdDgQWBBTlJW0+rw3dP0zyRRk51RTbfpzArTB0
BgNVHSMEbTBrgBT0p8DMkUavZPOR8if4yLJviocyc6FIpEYwRDELMAkGA1UEBhMC
REUxDzANBgNVBAgMBkhlc3NlbjEUMBIGA1UECgwLcHJpdmFjeWlkZWExDjAMBgNV
BAMMBUNBMDAxggkA+8jrrIPNEgcwEwYDVR0lBAwwCgYIKwYBBQUHAwEwDQYJKoZI
hvcNAQELBQADggEBAAwgr5Wec/i3Ami+GL4/hCKwXH8M/6U5PBsPb1nZh5u/9T3r
tBImYu2nrVzI6v7cPORgQgjFOqQUn0S4tqXTmV7NGdZDP+vrrezLzECkwCj0It13
wBxtESStQAEweBurDdYVYsttzX8dBSpCBLLVC8ZHACpf/j6paAHg9KvlvZPJ16s4
olRnazsKZxQftAx1t49r3JJL9nb6MHHzrteL56g/01CURHubH05qqzbHan9TQfdi
0uNXB4BnCUZEbqPjf2zicFGjd89DgH9HhG+sbCdCJCE/qTbDQlh7mkMsm4K5tHPK
OsFVBSkPKCcSeGW5gNdbgdaI17ljpIwCGrXl6Os=
-----END CERTIFICATE-----
