Certificate:
    Data:
        Version: 3 (0x2)
        Serial Number: 268435689 (0x100000e9)
        Signature Algorithm: sha256WithRSAEncryption
        Issuer: C=DE, ST=Hessen, O=privacyidea, CN=CA001
        Validity
            Not Before: Oct 24 12:31:51 2019 GMT
            Not After : Oct 23 12:31:51 2020 GMT
        Subject: CN=Steve Test/emailAddress=steve@openssl.org
        Subject Public Key Info:
            Public Key Algorithm: rsaEncryption
                RSA Public-Key: (2048 bit)
                Modulus:
                    00:d2:81:89:20:51:48:0f:73:f4:11:32:24:d5:1f:
                    1c:fd:5c:f5:b6:e6:c5:f0:52:81:dc:d2:af:66:4a:
                    7c:93:31:61:5c:af:d1:6d:06:70:03:60:7c:72:0c:
                    88:dd:49:cd:9e:02:6c:d2:5a:d7:53:0f:f3:da:be:
                    69:64:b5:0f:0c:00:e3:b3:50:47:a3:b3:9b:ba:13:
                    50:d6:58:5a:4b:ab:39:e0:11:ca:0a:27:67:03:78:
                    22:66:6d:92:1e:1b:5c:49:ae:e6:6b:d1:8e:3b:9d:
                    06:d3:c6:ac:4d:53:43:10:ab:e8:96:c1:87:82:97:
                    99:8f:20:d3:99:12:37:31:84:e1:8a:ff:29:03:5f:
                    22:90:3e:7f:9b:e0:20:c1:ad:dc:ae:4c:39:1a:31:
                    96:17:02:8c:b2:d9:b4:0d:20:12:9b:7d:86:54:fd:
                    33:fd:c1:2a:62:46:f8:60:96:cf:6e:01:6f:22:df:
                    13:47:e7:97:ec:05:72:23:a3:62:f8:fa:ef:ac:9c:
                    72:f0:37:cb:2f:37:cf:90:a8:27:51:86:c6:d7:78:
                    08:8f:7e:25:a2:15:70:a2:fb:1c:b6:15:5e:a0:97:
                    8b:81:4c:09:28:8a:27:3b:94:bc:71:db:5b:71:37:
                    9a:2b:16:e0:6f:b5:c9:f5:4b:4f:20:ba:65:cf:af:
                    ad:ad
                Exponent: 65537 (0x10001)
        X509v3 extensions:
            X509v3 Key Usage: 
                Digital Signature, Key Encipherment
            X509v3 Basic Constraints: 
                CA:FALSE
            Netscape Cert Type: 
                SSL Server
            Netscape Comment: 
                OpenSSL Generated Server Certificate
            X509v3 Subject Key Identifier: 
                E5:25:6D:3E:AF:0D:DD:3F:4C:F2:45:19:39:D5:14:DB:7E:9C:C0:AD
            X509v3 Authority Key Identifier: 
                keyid:F4:A7:C0:CC:91:46:AF:64:F3:91:F2:27:F8:C8:B2:6F:8A:87:32:73
                DirName:/C=DE/ST=Hessen/O=privacyidea/CN=CA001
                serial:FB:C8:EB:AC:83:CD:12:07

            X509v3 Extended Key Usage: 
                TLS Web Server Authentication
    Signature Algorithm: sha256WithRSAEncryption
         00:dd:98:b9:dc:75:3d:9e:f1:f5:d3:fc:5f:f7:7e:cb:eb:cf:
         a5:fe:21:1c:a4:12:95:e7:e8:76:3b:5c:f4:c5:2b:ee:23:48:
         c9:75:05:ee:e0:28:58:02:68:46:cb:f6:c7:f0:3b:3d:40:20:
         92:60:a2:b3:90:06:6e:b6:41:91:96:23:31:cf:4f:d0:a8:d9:
         08:c1:c4:c6:75:66:75:e0:09:cf:d8:0f:39:6c:e1:57:b4:87:
         07:82:3d:a2:b3:ba:ad:90:fd:0f:ef:1c:41:1c:ac:04:d7:d3:
         0b:1b:29:5e:ad:95:65:df:f5:6d:44:c5:6b:6e:bf:84:3e:e4:
         a2:b5:b0:08:8d:87:82:2d:26:9f:a6:78:cb:ac:c9:f8:f7:5c:
         b3:08:43:aa:b8:18:99:2c:c1:56:e6:4f:b3:9d:96:76:2b:b5:
         e4:58:db:32:cf:7c:d7:a7:71:07:e7:6c:b6:9c:2f:e1:9a:63:
         57:6a:70:e6:eb:d2:2d:7f:36:2f:bb:16:84:b8:7a:61:30:08:
         24:7a:7c:48:30:c6:eb:7c:b8:67:1b:e4:3a:f9:0f:75:fe:7a:
         99:be:3f:80:c8:62:7f:90:8b:c9:ec:dc:32:72:8e:2c:4b:84:
         4c:dd:ef:d7:84:5a:db:14:54:3d:02:b9:7b:b4:d8:08:d7:38:
         1b:3b:21:58
-----BEGIN CERTIFICATE-----
MIIECTCCAvGgAwIBAgIEEAAA6TANBgkqhkiG9w0BAQsFADBEMQswCQYDVQQGEwJE
RTEPMA0GA1UECAwGSGVzc2VuMRQwEgYDVQQKDAtwcml2YWN5aWRlYTEOMAwGA1UE
AwwFQ0EwMDEwHhcNMTkxMDI0MTIzMTUxWhcNMjAxMDIzMTIzMTUxWjA3MRMwEQYD
VQQDDApTdGV2ZSBUZXN0MSAwHgYJKoZIhvcNAQkBFhFzdGV2ZUBvcGVuc3NsLm9y
ZzCCASIwDQYJKoZIhvcNAQEBBQADggEPADCCAQoCggEBANKBiSBRSA9z9BEyJNUf
HP1c9bbmxfBSgdzSr2ZKfJMxYVyv0W0GcANgfHIMiN1JzZ4CbNJa11MP89q+aWS1
DwwA47NQR6Ozm7oTUNZYWkurOeARygonZwN4ImZtkh4bXEmu5mvRjjudBtPGrE1T
QxCr6JbBh4KXmY8g05kSNzGE4Yr/KQNfIpA+f5vgIMGt3K5MORoxlhcCjLLZtA0g
Ept9hlT9M/3BKmJG+GCWz24BbyLfE0fnl+wFciOjYvj676yccvA3yy83z5CoJ1GG
xtd4CI9+JaIVcKL7HLYVXqCXi4FMCSiKJzuUvHHbW3E3misW4G+1yfVLTyC6Zc+v
ra0CAwEAAaOCAQ4wggEKMAsGA1UdDwQEAwIFoDAJBgNVHRMEAjAAMBEGCWCGSAGG
+EIBAQQEAwIGQDAzBglghkgBhvhCAQ0EJhYkT3BlblNTTCBHZW5lcmF0ZWQgU2Vy
dmVyIENlcnRpZmljYXRlMB0GA1UdDgQWBBTlJW0+rw3dP0zyRRk51RTbfpzArTB0
BgNVHSMEbTBrgBT0p8DMkUavZPOR8if4yLJviocyc6FIpEYwRDELMAkGA1UEBhMC
REUxDzANBgNVBAgMBkhlc3NlbjEUMBIGA1UECgwLcHJpdmFjeWlkZWExDjAMBgNV
BAMMBUNBMDAxggkA+8jrrIPNEgcwEwYDVR0lBAwwCgYIKwYBBQUHAwEwDQYJKoZI
hvcNAQELBQADggEBAADdmLncdT2e8fXT/F/3fsvrz6X+IRykEpXn6HY7XPTFK+4j
SMl1Be7gKFgCaEbL9sfwOz1AIJJgorOQBm62QZGWIzHPT9Co2QjBxMZ1ZnXgCc/Y
Dzls4Ve0hweCPaKzuq2Q/Q/vHEEcrATX0wsbKV6tlWXf9W1ExWtuv4Q+5KK1sAiN
h4ItJp+meMusyfj3XLMIQ6q4GJkswVbmT7OdlnYrteRY2zLPfNencQfnbLacL+Ga
Y1dqcObr0i1/Ni+7FoS4emEwCCR6fEgwxut8uGcb5Dr5D3X+epm+P4DIYn+Qi8ns
3DJyjixLhEzd79eEWtsUVD0CuXu02AjXOBs7IVg=
-----END CERTIFICATE-----
