Certificate:
    Data:
        Version: 3 (0x2)
        Serial Number: 268435673 (0x100000d9)
        Signature Algorithm: sha256WithRSAEncryption
        Issuer: C=DE, ST=Hessen, O=privacyidea, CN=CA001
        Validity
            Not Before: Nov 15 18:52:00 2019 GMT
            Not After : Nov 14 18:52:00 2020 GMT
        Subject: C=DE, ST=Hessen, O=privacyidea, CN=usercert
        Subject Public Key Info:
            Public Key Algorithm: rsaEncryption
                RSA Public-Key: (2048 bit)
                Modulus:
                    00:dc:2f:d1:5f:29:97:d4:7c:c3:53:c8:30:bd:4b:
                    67:70:2c:24:6b:b8:5e:eb:21:7a:48:12:56:7c:81:
                    5c:48:75:b6:68:eb:f6:f2:98:4e:50:51:d1:7f:6c:
                    73:f3:0a:a7:ae:be:48:5e:e5:d6:e1:d9:2a:7c:32:
                    6e:4e:fd:08:f6:5a:54:49:23:73:c3:b9:07:18:d1:
                    ef:b3:ac:f8:8a:dc:94:96:a4:90:3a:8e:74:df:e6:
                    0d:37:1b:bd:5b:b7:25:1a:56:39:da:6f:91:aa:5e:
                    1c:74:f3:f9:7c:14:01:83:12:65:76:c7:bb:fe:36:
                    5b:95:e9:72:65:83:ed:3e:98:30:71:fa:87:dd:a3:
                    36:5a:30:03:2e:26:e0:61:d1:bf:02:3f:b6:06:1f:
                    4a:89:28:1c:5c:a2:ff:4e:be:94:e6:8c:e0:da:82:
                    f1:9d:29:32:48:30:73:b4:04:f6:42:1e:be:f7:e2:
                    32:32:27:3c:9d:89:2f:70:3e:85:9a:6f:5c:c5:09:
                    c0:8c:32:2f:72:22:c9:d2:95:1f:b6:ac:72:60:72:
                    b7:82:4d:6b:ce:5b:e3:00:d0:d2:2f:58:c6:e0:10:
                    e5:51:ca:4d:3b:2e:e6:7e:ab:84:d6:56:f1:93:35:
                    a0:93:64:26:81:75:2f:91:b5:16:06:38:0b:db:cc:
                    2d:07
                Exponent: 65537 (0x10001)
        X509v3 extensions:
            X509v3 Key Usage: 
                Digital Signature, Key Encipherment
            X509v3 Basic Constraints: 
                CA:FALSE
            Netscape Cert Type: 
                SSL Server
            Netscape Comment: 
                OpenSSL Generated Server Certificate
            X509v3 Subject Key Identifier: 
                FC:14:D1:F0:4B:8D:00:90:F2:F5:B8:71:9E:4E:97:C3:92:54:AD:0B
            X509v3 Authority Key Identifier: 
                keyid:F4:A7:C0:CC:91:46:AF:64:F3:91:F2:27:F8:C8:B2:6F:8A:87:32:73
                DirName:/C=DE/ST=Hessen/O=privacyidea/CN=CA001
                serial:FB:C8:EB:AC:83:CD:12:07

            X509v3 Extended Key Usage: 
                TLS Web Server Authentication
    Signature Algorithm: sha256WithRSAEncryption
         b4:9b:ad:de:8e:af:6e:6d:4f:e3:a9:a4:68:d1:b8:4e:dc:9f:
         14:58:a5:0e:db:98:01:54:87:df:94:72:5d:92:c2:63:53:cd:
         f0:dc:61:7f:1e:f3:23:9b:92:36:cd:d3:66:36:cf:15:fd:d0:
         35:87:59:8b:f1:f0:c3:dc:0b:11:c6:0c:c7:ea:27:49:b4:6d:
         26:5c:c1:1e:08:a9:84:2f:12:a8:ef:87:24:42:c1:d1:dd:c9:
         8c:d8:40:47:32:87:ed:5c:3a:91:3c:1d:a9:54:26:e8:02:88:
         f2:70:2a:5f:ab:08:86:c7:c8:4f:ff:4f:53:0a:11:4e:47:01:
         6b:ad:88:d2:62:54:11:75:c4:ed:1c:84:5e:d2:d0:df:9c:ec:
         59:f5:d9:36:6e:18:1f:3e:9b:b3:b6:3e:4f:1d:5b:e7:52:c4:
         12:59:cc:1f:21:42:34:f2:32:b1:54:33:05:3d:11:75:d2:ec:
         14:cc:29:9f:af:b0:72:98:48:2c:b0:61:ad:d8:a8:52:17:b0:
         3c:57:2a:0c:e2:a9:d0:f5:d1:ef:1e:84:9d:15:f4:b4:00:72:
         d2:55:94:46:f9:2b:d1:87:9b:6d:88:8e:5d:73:e1:5d:ad:3f:
         74:e3:9f:79:c7:b1:41:ce:63:16:b3:71:4f:f0:a3:31:cb:80:
         3c:0b:74:49
-----BEGIN CERTIFICATE-----
MIIEGTCCAwGgAwIBAgIEEAAA2TANBgkqhkiG9w0BAQsFADBEMQswCQYDVQQGEwJE
RTEPMA0GA1UECAwGSGVzc2VuMRQwEgYDVQQKDAtwcml2YWN5aWRlYTEOMAwGA1UE
AwwFQ0EwMDEwHhcNMTkxMTE1MTg1MjAwWhcNMjAxMTE0MTg1MjAwWjBHMQswCQYD
VQQGEwJERTEPMA0GA1UECAwGSGVzc2VuMRQwEgYDVQQKDAtwcml2YWN5aWRlYTER
MA8GA1UEAwwIdXNlcmNlcnQwggEiMA0GCSqGSIb3DQEBAQUAA4IBDwAwggEKAoIB
AQDcL9FfKZfUfMNTyDC9S2dwLCRruF7rIXpIElZ8gVxIdbZo6/bymE5QUdF/bHPz
Cqeuvkhe5dbh2Sp8Mm5O/Qj2WlRJI3PDuQcY0e+zrPiK3JSWpJA6jnTf5g03G71b
tyUaVjnab5GqXhx08/l8FAGDEmV2x7v+NluV6XJlg+0+mDBx+ofdozZaMAMuJuBh
0b8CP7YGH0qJKBxcov9OvpTmjODagvGdKTJIMHO0BPZCHr734jIyJzydiS9wPoWa
b1zFCcCMMi9yIsnSlR+2rHJgcreCTWvOW+MA0NIvWMbgEOVRyk07LuZ+q4TWVvGT
NaCTZCaBdS+RtRYGOAvbzC0HAgMBAAGjggEOMIIBCjALBgNVHQ8EBAMCBaAwCQYD
VR0TBAIwADARBglghkgBhvhCAQEEBAMCBkAwMwYJYIZIAYb4QgENBCYWJE9wZW5T
U0wgR2VuZXJhdGVkIFNlcnZlciBDZXJ0aWZpY2F0ZTAdBgNVHQ4EFgQU/BTR8EuN
AJDy9bhxnk6Xw5JUrQswdAYDVR0jBG0wa4AU9KfAzJFGr2TzkfIn+Miyb4qHMnOh
SKRGMEQxCzAJBgNVBAYTAkRFMQ8wDQYDVQQIDAZIZXNzZW4xFDASBgNVBAoMC3By
aXZhY3lpZGVhMQ4wDAYDVQQDDAVDQTAwMYIJAPvI66yDzRIHMBMGA1UdJQQMMAoG
CCsGAQUFBwMBMA0GCSqGSIb3DQEBCwUAA4IBAQC0m63ejq9ubU/jqaRo0bhO3J8U
WKUO25gBVIfflHJdksJjU83w3GF/HvMjm5I2zdNmNs8V/dA1h1mL8fDD3AsRxgzH
6idJtG0mXMEeCKmELxKo74ckQsHR3cmM2EBHMoftXDqRPB2pVCboAojycCpfqwiG
x8hP/09TChFORwFrrYjSYlQRdcTtHIRe0tDfnOxZ9dk2bhgfPpuztj5PHVvnUsQS
WcwfIUI08jKxVDMFPRF10uwUzCmfr7BymEgssGGt2KhSF7A8VyoM4qnQ9dHvHoSd
FfS0AHLSVZRG+SvRh5ttiI5dc+FdrT904595x7FBzmMWs3FP8KMxy4A8C3RJ
-----END CERTIFICATE-----
