Certificate:
    Data:
        Version: 3 (0x2)
        Serial Number: 268435757 (0x1000012d)
    Signature Algorithm: sha256WithRSAEncryption
        Issuer: C=DE, ST=Hessen, O=privacyidea, CN=CA001
        Validity
            Not Before: Jan 10 08:42:06 2019 GMT
            Not After : Jan 10 08:42:06 2020 GMT
        Subject: CN=selfservice,CN=user,O=realm1/emailAddress=meine
        Subject Public Key Info:
            Public Key Algorithm: rsaEncryption
                Public-Key: (2048 bit)
                Modulus:
                    00:cf:3c:d4:33:0e:12:c4:e6:da:cd:b6:56:a1:1c:
                    26:bb:26:1c:8a:4a:73:a8:58:8a:b6:1e:b3:8b:99:
                    d2:1d:07:c2:92:89:79:c0:69:d8:c8:df:28:61:98:
                    1e:b3:fe:ae:2b:bd:78:a9:f7:6e:47:dc:a3:a0:16:
                    8c:85:02:c1:4e:92:fd:72:6e:f0:c8:03:29:9b:b8:
                    00:6e:c0:83:95:c8:34:20:36:9c:b3:e5:e4:e6:76:
                    73:a3:1a:ad:40:96:e0:53:54:00:ec:76:79:9a:c6:
                    0d:7e:b6:bd:29:ec:83:f3:cb:89:a4:cb:6c:00:ba:
                    0c:c5:78:0f:ff:69:b8:94:f4:04:70:43:3f:d8:9e:
                    d7:a7:fb:5d:ce:75:8e:da:e7:c4:07:b1:9d:de:6f:
                    88:4b:b6:4d:9a:cf:f9:bc:fa:9f:cd:32:6d:f6:3a:
                    0b:0d:23:42:78:ec:97:42:bf:0e:4d:60:56:e1:d3:
                    02:f2:19:cb:84:57:90:e5:70:a1:a2:83:35:86:e2:
                    da:86:9f:f9:8a:c4:79:b3:52:28:da:cb:bb:34:ca:
                    d3:da:91:4a:cf:8d:76:a2:b2:6b:9b:f9:96:fd:09:
                    2a:da:11:23:4d:f0:cb:d6:b2:b1:0e:12:6c:9a:19:
                    65:98:87:ca:e4:ee:24:ce:44:ac:90:8f:9d:1b:c5:
                    2a:9d
                Exponent: 65537 (0x10001)
        X509v3 extensions:
            X509v3 Key Usage: 
                Digital Signature, Key Encipherment
            X509v3 Basic Constraints: 
                CA:FALSE
            Netscape Cert Type: 
                SSL Server
            Netscape Comment: 
                OpenSSL Generated Server Certificate
            X509v3 Subject Key Identifier: 
                4D:07:90:AD:FF:1D:0D:E7:1A:DD:D6:2E:FA:BA:34:CB:AA:1F:24:C6
            X509v3 Authority Key Identifier: 
                keyid:F4:A7:C0:CC:91:46:AF:64:F3:91:F2:27:F8:C8:B2:6F:8A:87:32:73
                DirName:/C=DE/ST=Hessen/O=privacyidea/CN=CA001
                serial:FB:C8:EB:AC:83:CD:12:07

            X509v3 Extended Key Usage: 
                TLS Web Server Authentication
    Signature Algorithm: sha256WithRSAEncryption
         86:96:35:63:80:56:ff:d0:46:e3:63:0e:0b:06:74:23:35:25:
         42:9f:b6:58:3a:71:0a:a0:90:3a:e2:44:1c:6d:12:bb:8d:cd:
         b4:98:ae:83:d1:45:14:3c:3c:ce:0a:f1:0d:13:1e:b0:95:9d:
         22:97:0a:08:0b:f9:9a:c9:5e:a3:7d:56:5b:a2:3e:ad:37:51:
         9b:ae:76:73:88:cb:02:04:21:7d:c2:23:6e:ae:a6:69:cb:9d:
         65:a1:15:ac:dd:82:c6:85:e7:37:02:2a:14:56:3e:bd:ec:95:
         65:b6:5f:21:9b:09:79:9d:0a:2b:f5:1b:ce:9e:ad:48:66:b3:
         db:64:1d:47:05:79:9d:b5:6c:bd:a2:75:6f:e8:ed:be:e5:95:
         b8:bc:5d:fb:c1:41:19:62:42:fd:9d:03:4a:bc:81:af:ec:08:
         ec:32:ca:6a:67:19:75:8a:5a:b2:e0:d4:a4:49:64:cb:9c:a3:
         a6:a5:7c:90:59:3a:aa:fd:9c:11:0f:7b:b4:12:e9:e3:ac:57:
         10:9a:c9:8a:74:24:12:2e:8e:5b:81:63:f3:e5:d5:8a:95:da:
         1d:c1:ba:3c:24:1a:dd:ac:dc:af:28:ef:ca:a5:bc:94:e6:f3:
         11:17:72:a6:6a:f8:fb:9b:73:74:78:86:d8:b4:5a:17:b4:ba:
         c3:6b:8c:49
-----BEGIN CERTIFICATE-----
MIIEDzCCAvegAwIBAgIEEAABLTANBgkqhkiG9w0BAQsFADBEMQswCQYDVQQGEwJE
RTEPMA0GA1UECAwGSGVzc2VuMRQwEgYDVQQKDAtwcml2YWN5aWRlYTEOMAwGA1UE
AwwFQ0EwMDEwHhcNMTkwMTEwMDg0MjA2WhcNMjAwMTEwMDg0MjA2WjA9MSUwIwYD
VQQDDBxzZWxmc2VydmljZSxDTj11c2VyLE89cmVhbG0xMRQwEgYJKoZIhvcNAQkB
FgVtZWluZTCCASIwDQYJKoZIhvcNAQEBBQADggEPADCCAQoCggEBAM881DMOEsTm
2s22VqEcJrsmHIpKc6hYirYes4uZ0h0HwpKJecBp2MjfKGGYHrP+riu9eKn3bkfc
o6AWjIUCwU6S/XJu8MgDKZu4AG7Ag5XINCA2nLPl5OZ2c6MarUCW4FNUAOx2eZrG
DX62vSnsg/PLiaTLbAC6DMV4D/9puJT0BHBDP9ie16f7Xc51jtrnxAexnd5viEu2
TZrP+bz6n80ybfY6Cw0jQnjsl0K/Dk1gVuHTAvIZy4RXkOVwoaKDNYbi2oaf+YrE
ebNSKNrLuzTK09qRSs+NdqKya5v5lv0JKtoRI03wy9aysQ4SbJoZZZiHyuTuJM5E
rJCPnRvFKp0CAwEAAaOCAQ4wggEKMAsGA1UdDwQEAwIFoDAJBgNVHRMEAjAAMBEG
CWCGSAGG+EIBAQQEAwIGQDAzBglghkgBhvhCAQ0EJhYkT3BlblNTTCBHZW5lcmF0
ZWQgU2VydmVyIENlcnRpZmljYXRlMB0GA1UdDgQWBBRNB5Ct/x0N5xrd1i76ujTL
qh8kxjB0BgNVHSMEbTBrgBT0p8DMkUavZPOR8if4yLJviocyc6FIpEYwRDELMAkG
A1UEBhMCREUxDzANBgNVBAgMBkhlc3NlbjEUMBIGA1UECgwLcHJpdmFjeWlkZWEx
DjAMBgNVBAMMBUNBMDAxggkA+8jrrIPNEgcwEwYDVR0lBAwwCgYIKwYBBQUHAwEw
DQYJKoZIhvcNAQELBQADggEBAIaWNWOAVv/QRuNjDgsGdCM1JUKftlg6cQqgkDri
RBxtEruNzbSYroPRRRQ8PM4K8Q0THrCVnSKXCggL+ZrJXqN9VluiPq03UZuudnOI
ywIEIX3CI26upmnLnWWhFazdgsaF5zcCKhRWPr3slWW2XyGbCXmdCiv1G86erUhm
s9tkHUcFeZ21bL2idW/o7b7llbi8XfvBQRliQv2dA0q8ga/sCOwyympnGXWKWrLg
1KRJZMuco6alfJBZOqr9nBEPe7QS6eOsVxCayYp0JBIujluBY/Pl1YqV2h3Bujwk
Gt2s3K8o78qlvJTm8xEXcqZq+Pubc3R4hti0Whe0usNrjEk=
-----END CERTIFICATE-----
