Certificate:
    Data:
        Version: 3 (0x2)
        Serial Number: 268435697 (0x100000f1)
        Signature Algorithm: sha256WithRSAEncryption
        Issuer: C=DE, ST=Hessen, O=privacyidea, CN=CA001
        Validity
            Not Before: Oct 24 12:55:11 2019 GMT
            Not After : Oct 23 12:55:11 2020 GMT
        Subject: C=DE, ST=Hessen, O=privacyidea, CN=usercert
        Subject Public Key Info:
            Public Key Algorithm: rsaEncryption
                RSA Public-Key: (2048 bit)
                Modulus:
                    00:dc:2f:d1:5f:29:97:d4:7c:c3:53:c8:30:bd:4b:
                    67:70:2c:24:6b:b8:5e:eb:21:7a:48:12:56:7c:81:
                    5c:48:75:b6:68:eb:f6:f2:98:4e:50:51:d1:7f:6c:
                    73:f3:0a:a7:ae:be:48:5e:e5:d6:e1:d9:2a:7c:32:
                    6e:4e:fd:08:f6:5a:54:49:23:73:c3:b9:07:18:d1:
                    ef:b3:ac:f8:8a:dc:94:96:a4:90:3a:8e:74:df:e6:
                    0d:37:1b:bd:5b:b7:25:1a:56:39:da:6f:91:aa:5e:
                    1c:74:f3:f9:7c:14:01:83:12:65:76:c7:bb:fe:36:
                    5b:95:e9:72:65:83:ed:3e:98:30:71:fa:87:dd:a3:
                    36:5a:30:03:2e:26:e0:61:d1:bf:02:3f:b6:06:1f:
                    4a:89:28:1c:5c:a2:ff:4e:be:94:e6:8c:e0:da:82:
                    f1:9d:29:32:48:30:73:b4:04:f6:42:1e:be:f7:e2:
                    32:32:27:3c:9d:89:2f:70:3e:85:9a:6f:5c:c5:09:
                    c0:8c:32:2f:72:22:c9:d2:95:1f:b6:ac:72:60:72:
                    b7:82:4d:6b:ce:5b:e3:00:d0:d2:2f:58:c6:e0:10:
                    e5:51:ca:4d:3b:2e:e6:7e:ab:84:d6:56:f1:93:35:
                    a0:93:64:26:81:75:2f:91:b5:16:06:38:0b:db:cc:
                    2d:07
                Exponent: 65537 (0x10001)
        X509v3 extensions:
            X509v3 Key Usage: 
                Digital Signature, Key Encipherment
            X509v3 Basic Constraints: 
                CA:FALSE
            Netscape Cert Type: 
                SSL Server
            Netscape Comment: 
                OpenSSL Generated Server Certificate
            X509v3 Subject Key Identifier: 
                FC:14:D1:F0:4B:8D:00:90:F2:F5:B8:71:9E:4E:97:C3:92:54:AD:0B
            X509v3 Authority Key Identifier: 
                keyid:F4:A7:C0:CC:91:46:AF:64:F3:91:F2:27:F8:C8:B2:6F:8A:87:32:73
                DirName:/C=DE/ST=Hessen/O=privacyidea/CN=CA001
                serial:FB:C8:EB:AC:83:CD:12:07

            X509v3 Extended Key Usage: 
                TLS Web Server Authentication
    Signature Algorithm: sha256WithRSAEncryption
         a4:4d:a5:49:04:d8:a1:1e:06:d1:8b:7c:f9:f0:20:5f:9b:c9:
         c2:20:0d:35:0e:b8:fa:fd:ea:6d:97:ef:28:b6:72:8a:59:23:
         5d:02:9a:7e:d4:f6:b7:31:f1:2d:47:0f:ff:46:ec:87:6f:fe:
         3b:80:4d:3b:85:20:2c:32:79:2a:a9:f7:f0:b5:71:aa:ec:6b:
         71:4e:22:e2:89:70:34:2b:ee:f3:f4:7a:cc:e7:9f:16:26:07:
         43:9e:a1:b4:c1:12:35:df:fc:dd:35:e9:a7:fc:6b:e5:0f:98:
         9a:2f:57:2c:bd:98:17:ae:e2:aa:70:e6:3f:ff:8a:1f:e7:db:
         05:d3:7d:7c:24:c7:66:fe:86:b1:cb:ad:72:5b:9d:5e:3d:e1:
         14:08:06:e9:3f:94:bb:7b:55:49:ef:0c:2b:c4:ee:0b:2a:f5:
         51:7d:51:7c:8d:f4:db:a7:60:a5:e2:a9:98:8f:13:6a:64:32:
         1a:51:ac:9e:4d:13:ad:2a:ef:2a:b8:c0:48:87:c4:ca:dc:ea:
         f2:00:b8:cb:70:23:02:eb:37:12:af:cf:6e:91:88:66:1c:fb:
         89:05:65:c6:35:d6:38:53:4a:14:7d:0c:f7:fd:2b:ca:9d:ea:
         06:ef:4e:a4:b1:94:47:b9:f5:b6:df:01:01:e3:4e:b4:70:7b:
         75:ae:41:02
-----BEGIN CERTIFICATE-----
MIIEGTCCAwGgAwIBAgIEEAAA8TANBgkqhkiG9w0BAQsFADBEMQswCQYDVQQGEwJE
RTEPMA0GA1UECAwGSGVzc2VuMRQwEgYDVQQKDAtwcml2YWN5aWRlYTEOMAwGA1UE
AwwFQ0EwMDEwHhcNMTkxMDI0MTI1NTExWhcNMjAxMDIzMTI1NTExWjBHMQswCQYD
VQQGEwJERTEPMA0GA1UECAwGSGVzc2VuMRQwEgYDVQQKDAtwcml2YWN5aWRlYTER
MA8GA1UEAwwIdXNlcmNlcnQwggEiMA0GCSqGSIb3DQEBAQUAA4IBDwAwggEKAoIB
AQDcL9FfKZfUfMNTyDC9S2dwLCRruF7rIXpIElZ8gVxIdbZo6/bymE5QUdF/bHPz
Cqeuvkhe5dbh2Sp8Mm5O/Qj2WlRJI3PDuQcY0e+zrPiK3JSWpJA6jnTf5g03G71b
tyUaVjnab5GqXhx08/l8FAGDEmV2x7v+NluV6XJlg+0+mDBx+ofdozZaMAMuJuBh
0b8CP7YGH0qJKBxcov9OvpTmjODagvGdKTJIMHO0BPZCHr734jIyJzydiS9wPoWa
b1zFCcCMMi9yIsnSlR+2rHJgcreCTWvOW+MA0NIvWMbgEOVRyk07LuZ+q4TWVvGT
NaCTZCaBdS+RtRYGOAvbzC0HAgMBAAGjggEOMIIBCjALBgNVHQ8EBAMCBaAwCQYD
VR0TBAIwADARBglghkgBhvhCAQEEBAMCBkAwMwYJYIZIAYb4QgENBCYWJE9wZW5T
U0wgR2VuZXJhdGVkIFNlcnZlciBDZXJ0aWZpY2F0ZTAdBgNVHQ4EFgQU/BTR8EuN
AJDy9bhxnk6Xw5JUrQswdAYDVR0jBG0wa4AU9KfAzJFGr2TzkfIn+Miyb4qHMnOh
SKRGMEQxCzAJBgNVBAYTAkRFMQ8wDQYDVQQIDAZIZXNzZW4xFDASBgNVBAoMC3By
aXZhY3lpZGVhMQ4wDAYDVQQDDAVDQTAwMYIJAPvI66yDzRIHMBMGA1UdJQQMMAoG
CCsGAQUFBwMBMA0GCSqGSIb3DQEBCwUAA4IBAQCkTaVJBNihHgbRi3z58CBfm8nC
IA01Drj6/eptl+8otnKKWSNdApp+1Pa3MfEtRw//RuyHb/47gE07hSAsMnkqqffw
tXGq7GtxTiLiiXA0K+7z9HrM558WJgdDnqG0wRI13/zdNemn/GvlD5iaL1csvZgX
ruKqcOY//4of59sF0318JMdm/oaxy61yW51ePeEUCAbpP5S7e1VJ7wwrxO4LKvVR
fVF8jfTbp2Cl4qmYjxNqZDIaUayeTROtKu8quMBIh8TK3OryALjLcCMC6zcSr89u
kYhmHPuJBWXGNdY4U0oUfQz3/SvKneoG706ksZRHufW23wEB4060cHt1rkEC
-----END CERTIFICATE-----
