Certificate:
    Data:
        Version: 3 (0x2)
        Serial Number: 268435644 (0x100000bc)
    Signature Algorithm: sha1WithRSAEncryption
        Issuer: C=DE, ST=Hessen, O=privacyidea, CN=CA001
        Validity
            Not Before: Dec 12 18:19:19 2015 GMT
            Not After : Dec 11 18:19:19 2016 GMT
        Subject: C=DE, ST=Hessen, O=privacyidea, CN=requester.localdomain
        Subject Public Key Info:
            Public Key Algorithm: rsaEncryption
                Public-Key: (2048 bit)
                Modulus:
                    00:cd:be:14:4f:fa:ce:01:3f:42:22:1b:1d:9c:af:
                    dd:92:d2:7f:db:6c:b7:3e:39:43:43:6b:13:03:f1:
                    05:f4:07:74:bc:76:69:28:0b:af:19:8e:d7:fc:e3:
                    cd:c6:58:f2:ca:7f:08:6d:53:fc:07:02:44:24:c6:
                    b4:34:4c:8c:04:fe:33:0e:40:e2:20:ba:02:73:5a:
                    f7:f5:4f:63:6e:cc:c6:b6:df:54:1d:37:39:7d:51:
                    36:26:5f:bd:dc:3f:a8:8b:6b:a2:ae:b6:9d:d6:21:
                    e7:df:41:b8:7a:28:2a:68:48:ca:a8:2d:ed:e1:e9:
                    46:5e:5a:72:6d:b4:84:38:87:91:fd:94:11:0b:28:
                    84:c6:c2:2f:2a:fb:01:f9:36:7a:09:75:d1:33:88:
                    3c:73:41:5b:c8:bf:94:89:70:a1:f0:c0:b9:2e:50:
                    53:1e:b1:17:64:69:f4:2d:81:e0:a9:0d:0e:32:e9:
                    ba:55:8a:85:f1:1b:6f:49:79:b4:7f:88:c3:0d:3e:
                    54:88:9b:3d:1f:38:8c:04:f3:ee:6a:63:2b:f5:c6:
                    db:b4:83:aa:c4:78:41:3a:7d:4b:e1:c8:3e:71:ca:
                    1b:61:59:ea:c6:c4:ca:32:5e:c9:e9:bf:12:29:e6:
                    c6:c3:63:fe:a0:55:da:7a:f1:60:98:4d:26:ed:fa:
                    70:2d
                Exponent: 65537 (0x10001)
        X509v3 extensions:
            X509v3 Key Usage: 
                Digital Signature, Key Encipherment
            X509v3 Basic Constraints: 
                CA:FALSE
            Netscape Cert Type: 
                SSL Server
            Netscape Comment: 
                OpenSSL Generated Server Certificate
            X509v3 Subject Key Identifier: 
                53:3F:ED:5D:09:07:B3:65:7B:AB:45:C9:24:5B:09:77:80:0A:96:ED
            X509v3 Authority Key Identifier: 
                keyid:F4:A7:C0:CC:91:46:AF:64:F3:91:F2:27:F8:C8:B2:6F:8A:87:32:73
                DirName:/C=DE/ST=Hessen/O=privacyidea/CN=CA001
                serial:FB:C8:EB:AC:83:CD:12:07

            X509v3 Extended Key Usage: 
                TLS Web Server Authentication
    Signature Algorithm: sha1WithRSAEncryption
         36:1d:2e:51:70:59:a0:2e:42:1d:38:61:d6:8d:36:5f:54:08:
         ce:e5:b4:8c:d0:2a:42:5a:7f:19:39:0d:f6:0a:9a:15:34:5f:
         b6:07:53:c0:08:24:56:0a:5f:1c:b8:cf:0b:b6:65:f8:32:bf:
         ab:9a:b5:49:2d:5f:a6:0c:fb:f5:6a:fd:cd:8a:ea:59:fe:21:
         82:61:2a:16:bf:3b:6c:d1:f6:83:ec:1d:fb:30:50:a8:1e:b1:
         ac:2b:23:8a:6a:a9:57:49:0e:b6:46:b4:83:ae:b2:c6:01:df:
         d1:58:ab:1b:1b:a5:2e:7d:f5:3e:17:9c:92:34:f1:d4:6d:1c:
         35:31:e9:dc:96:11:11:43:2f:15:0b:04:38:70:ee:23:f0:fc:
         35:ee:5a:2e:6a:6f:76:93:94:da:95:b4:d8:6b:ab:56:aa:7e:
         72:40:1b:72:93:8f:e1:96:b1:42:37:99:55:2c:58:f5:d5:4d:
         b8:9b:db:cf:aa:0d:31:52:ee:b3:83:42:8b:db:0d:8d:e2:f7:
         d1:83:b5:62:94:dc:f2:35:e3:ac:27:69:61:86:d8:e0:37:76:
         5a:ff:71:01:ab:5e:09:93:79:d5:3c:4b:4e:f7:8f:70:eb:9e:
         bb:3b:2e:af:83:28:22:7c:41:ca:49:b1:41:55:83:d7:90:d6:
         89:e2:91:bf
-----BEGIN CERTIFICATE-----
MIIEJjCCAw6gAwIBAgIEEAAAvDANBgkqhkiG9w0BAQUFADBEMQswCQYDVQQGEwJE
RTEPMA0GA1UECAwGSGVzc2VuMRQwEgYDVQQKDAtwcml2YWN5aWRlYTEOMAwGA1UE
AwwFQ0EwMDEwHhcNMTUxMjEyMTgxOTE5WhcNMTYxMjExMTgxOTE5WjBUMQswCQYD
VQQGEwJERTEPMA0GA1UECAwGSGVzc2VuMRQwEgYDVQQKDAtwcml2YWN5aWRlYTEe
MBwGA1UEAwwVcmVxdWVzdGVyLmxvY2FsZG9tYWluMIIBIjANBgkqhkiG9w0BAQEF
AAOCAQ8AMIIBCgKCAQEAzb4UT/rOAT9CIhsdnK/dktJ/22y3PjlDQ2sTA/EF9Ad0
vHZpKAuvGY7X/OPNxljyyn8IbVP8BwJEJMa0NEyMBP4zDkDiILoCc1r39U9jbszG
tt9UHTc5fVE2Jl+93D+oi2uirrad1iHn30G4eigqaEjKqC3t4elGXlpybbSEOIeR
/ZQRCyiExsIvKvsB+TZ6CXXRM4g8c0FbyL+UiXCh8MC5LlBTHrEXZGn0LYHgqQ0O
Mum6VYqF8RtvSXm0f4jDDT5UiJs9HziMBPPuamMr9cbbtIOqxHhBOn1L4cg+ccob
YVnqxsTKMl7J6b8SKebGw2P+oFXaevFgmE0m7fpwLQIDAQABo4IBDjCCAQowCwYD
VR0PBAQDAgWgMAkGA1UdEwQCMAAwEQYJYIZIAYb4QgEBBAQDAgZAMDMGCWCGSAGG
+EIBDQQmFiRPcGVuU1NMIEdlbmVyYXRlZCBTZXJ2ZXIgQ2VydGlmaWNhdGUwHQYD
VR0OBBYEFFM/7V0JB7Nle6tFySRbCXeACpbtMHQGA1UdIwRtMGuAFPSnwMyRRq9k
85HyJ/jIsm+KhzJzoUikRjBEMQswCQYDVQQGEwJERTEPMA0GA1UECAwGSGVzc2Vu
MRQwEgYDVQQKDAtwcml2YWN5aWRlYTEOMAwGA1UEAwwFQ0EwMDGCCQD7yOusg80S
BzATBgNVHSUEDDAKBggrBgEFBQcDATANBgkqhkiG9w0BAQUFAAOCAQEANh0uUXBZ
oC5CHThh1o02X1QIzuW0jNAqQlp/GTkN9gqaFTRftgdTwAgkVgpfHLjPC7Zl+DK/
q5q1SS1fpgz79Wr9zYrqWf4hgmEqFr87bNH2g+wd+zBQqB6xrCsjimqpV0kOtka0
g66yxgHf0VirGxulLn31PheckjTx1G0cNTHp3JYREUMvFQsEOHDuI/D8Ne5aLmpv
dpOU2pW02GurVqp+ckAbcpOP4ZaxQjeZVSxY9dVNuJvbz6oNMVLus4NCi9sNjeL3
0YO1YpTc8jXjrCdpYYbY4Dd2Wv9xAateCZN51TxLTvePcOueuzsur4MoInxBykmx
QVWD15DWieKRvw==
-----END CERTIFICATE-----
