Certificate:
    Data:
        Version: 3 (0x2)
        Serial Number: 268435666 (0x100000d2)
        Signature Algorithm: sha256WithRSAEncryption
        Issuer: C=DE, ST=Hessen, O=privacyidea, CN=CA001
        Validity
            Not Before: Nov 17 10:20:37 2019 GMT
            Not After : Nov 16 10:20:37 2020 GMT
        Subject: C=DE, ST=Hessen, O=privacyidea, CN=requester.localdomain
        Subject Public Key Info:
            Public Key Algorithm: rsaEncryption
                RSA Public-Key: (2048 bit)
                Modulus:
                    00:cd:be:14:4f:fa:ce:01:3f:42:22:1b:1d:9c:af:
                    dd:92:d2:7f:db:6c:b7:3e:39:43:43:6b:13:03:f1:
                    05:f4:07:74:bc:76:69:28:0b:af:19:8e:d7:fc:e3:
                    cd:c6:58:f2:ca:7f:08:6d:53:fc:07:02:44:24:c6:
                    b4:34:4c:8c:04:fe:33:0e:40:e2:20:ba:02:73:5a:
                    f7:f5:4f:63:6e:cc:c6:b6:df:54:1d:37:39:7d:51:
                    36:26:5f:bd:dc:3f:a8:8b:6b:a2:ae:b6:9d:d6:21:
                    e7:df:41:b8:7a:28:2a:68:48:ca:a8:2d:ed:e1:e9:
                    46:5e:5a:72:6d:b4:84:38:87:91:fd:94:11:0b:28:
                    84:c6:c2:2f:2a:fb:01:f9:36:7a:09:75:d1:33:88:
                    3c:73:41:5b:c8:bf:94:89:70:a1:f0:c0:b9:2e:50:
                    53:1e:b1:17:64:69:f4:2d:81:e0:a9:0d:0e:32:e9:
                    ba:55:8a:85:f1:1b:6f:49:79:b4:7f:88:c3:0d:3e:
                    54:88:9b:3d:1f:38:8c:04:f3:ee:6a:63:2b:f5:c6:
                    db:b4:83:aa:c4:78:41:3a:7d:4b:e1:c8:3e:71:ca:
                    1b:61:59:ea:c6:c4:ca:32:5e:c9:e9:bf:12:29:e6:
                    c6:c3:63:fe:a0:55:da:7a:f1:60:98:4d:26:ed:fa:
                    70:2d
                Exponent: 65537 (0x10001)
        X509v3 extensions:
            X509v3 Key Usage: 
                Digital Signature, Key Encipherment
            X509v3 Basic Constraints: 
                CA:FALSE
            Netscape Cert Type: 
                SSL Server
            Netscape Comment: 
                OpenSSL Generated Server Certificate
            X509v3 Subject Key Identifier: 
                53:3F:ED:5D:09:07:B3:65:7B:AB:45:C9:24:5B:09:77:80:0A:96:ED
            X509v3 Authority Key Identifier: 
                keyid:F4:A7:C0:CC:91:46:AF:64:F3:91:F2:27:F8:C8:B2:6F:8A:87:32:73
                DirName:/C=DE/ST=Hessen/O=privacyidea/CN=CA001
                serial:FB:C8:EB:AC:83:CD:12:07

            X509v3 Extended Key Usage: 
                TLS Web Server Authentication
    Signature Algorithm: sha256WithRSAEncryption
         7b:e5:4b:a0:57:c7:01:46:f0:0e:d9:c1:22:a6:8f:2a:15:0b:
         25:f9:a3:9c:7d:a0:0e:ce:bd:a4:8b:81:24:87:2c:7a:ec:d6:
         f3:f9:fc:be:6d:36:fc:c9:e6:8b:0e:8d:ed:67:94:96:7e:e6:
         6c:8b:49:e3:22:70:d4:16:dd:bb:4b:c1:92:4c:90:89:32:72:
         95:6f:9a:8c:27:89:09:f7:c0:14:83:55:7a:ec:b3:b2:57:8e:
         11:09:5b:03:1d:e6:a0:9d:c1:5e:eb:78:8b:b1:e8:99:97:72:
         e0:84:c6:6a:e6:11:48:db:3b:45:87:9c:09:3f:dc:78:58:7c:
         c0:74:ce:ee:13:58:3c:8d:70:0c:5e:2e:2e:dc:10:69:9c:40:
         dc:d4:5f:49:e8:35:90:32:cc:38:84:d0:bf:46:f2:57:6c:ba:
         2e:e7:69:ce:53:5d:44:70:49:82:72:4a:82:b8:cd:d4:dc:2d:
         0c:f0:9b:98:42:c5:41:ed:d0:04:2f:aa:73:fd:c2:a2:31:33:
         8b:ca:49:96:ba:f5:11:68:df:73:ad:e0:53:d4:d8:79:35:a2:
         d7:8a:56:75:fe:50:77:96:fb:6e:7c:7c:a0:71:d7:16:bb:86:
         e9:cd:95:8b:bc:97:9a:3d:26:0b:bd:55:42:ae:9c:1e:e2:82:
         07:11:ba:5c
-----BEGIN CERTIFICATE-----
MIIEJjCCAw6gAwIBAgIEEAAA0jANBgkqhkiG9w0BAQsFADBEMQswCQYDVQQGEwJE
RTEPMA0GA1UECAwGSGVzc2VuMRQwEgYDVQQKDAtwcml2YWN5aWRlYTEOMAwGA1UE
AwwFQ0EwMDEwHhcNMTkxMTE3MTAyMDM3WhcNMjAxMTE2MTAyMDM3WjBUMQswCQYD
VQQGEwJERTEPMA0GA1UECAwGSGVzc2VuMRQwEgYDVQQKDAtwcml2YWN5aWRlYTEe
MBwGA1UEAwwVcmVxdWVzdGVyLmxvY2FsZG9tYWluMIIBIjANBgkqhkiG9w0BAQEF
AAOCAQ8AMIIBCgKCAQEAzb4UT/rOAT9CIhsdnK/dktJ/22y3PjlDQ2sTA/EF9Ad0
vHZpKAuvGY7X/OPNxljyyn8IbVP8BwJEJMa0NEyMBP4zDkDiILoCc1r39U9jbszG
tt9UHTc5fVE2Jl+93D+oi2uirrad1iHn30G4eigqaEjKqC3t4elGXlpybbSEOIeR
/ZQRCyiExsIvKvsB+TZ6CXXRM4g8c0FbyL+UiXCh8MC5LlBTHrEXZGn0LYHgqQ0O
Mum6VYqF8RtvSXm0f4jDDT5UiJs9HziMBPPuamMr9cbbtIOqxHhBOn1L4cg+ccob
YVnqxsTKMl7J6b8SKebGw2P+oFXaevFgmE0m7fpwLQIDAQABo4IBDjCCAQowCwYD
VR0PBAQDAgWgMAkGA1UdEwQCMAAwEQYJYIZIAYb4QgEBBAQDAgZAMDMGCWCGSAGG
+EIBDQQmFiRPcGVuU1NMIEdlbmVyYXRlZCBTZXJ2ZXIgQ2VydGlmaWNhdGUwHQYD
VR0OBBYEFFM/7V0JB7Nle6tFySRbCXeACpbtMHQGA1UdIwRtMGuAFPSnwMyRRq9k
85HyJ/jIsm+KhzJzoUikRjBEMQswCQYDVQQGEwJERTEPMA0GA1UECAwGSGVzc2Vu
MRQwEgYDVQQKDAtwcml2YWN5aWRlYTEOMAwGA1UEAwwFQ0EwMDGCCQD7yOusg80S
BzATBgNVHSUEDDAKBggrBgEFBQcDATANBgkqhkiG9w0BAQsFAAOCAQEAe+VLoFfH
AUbwDtnBIqaPKhULJfmjnH2gDs69pIuBJIcseuzW8/n8vm02/Mnmiw6N7WeUln7m
bItJ4yJw1Bbdu0vBkkyQiTJylW+ajCeJCffAFINVeuyzsleOEQlbAx3moJ3BXut4
i7HomZdy4ITGauYRSNs7RYecCT/ceFh8wHTO7hNYPI1wDF4uLtwQaZxA3NRfSeg1
kDLMOITQv0byV2y6LudpzlNdRHBJgnJKgrjN1NwtDPCbmELFQe3QBC+qc/3CojEz
i8pJlrr1EWjfc63gU9TYeTWi14pWdf5Qd5b7bnx8oHHXFruG6c2Vi7yXmj0mC71V
Qq6cHuKCBxG6XA==
-----END CERTIFICATE-----
