Certificate:
    Data:
        Version: 3 (0x2)
        Serial Number: 268435700 (0x100000f4)
        Signature Algorithm: sha256WithRSAEncryption
        Issuer: C=DE, ST=Hessen, O=privacyidea, CN=CA001
        Validity
            Not Before: Aug 14 21:23:19 2019 GMT
            Not After : Aug 13 21:23:19 2020 GMT
        Subject: C=DE, ST=Hessen, O=privacyidea, CN=usercert
        Subject Public Key Info:
            Public Key Algorithm: rsaEncryption
                RSA Public-Key: (2048 bit)
                Modulus:
                    00:dc:2f:d1:5f:29:97:d4:7c:c3:53:c8:30:bd:4b:
                    67:70:2c:24:6b:b8:5e:eb:21:7a:48:12:56:7c:81:
                    5c:48:75:b6:68:eb:f6:f2:98:4e:50:51:d1:7f:6c:
                    73:f3:0a:a7:ae:be:48:5e:e5:d6:e1:d9:2a:7c:32:
                    6e:4e:fd:08:f6:5a:54:49:23:73:c3:b9:07:18:d1:
                    ef:b3:ac:f8:8a:dc:94:96:a4:90:3a:8e:74:df:e6:
                    0d:37:1b:bd:5b:b7:25:1a:56:39:da:6f:91:aa:5e:
                    1c:74:f3:f9:7c:14:01:83:12:65:76:c7:bb:fe:36:
                    5b:95:e9:72:65:83:ed:3e:98:30:71:fa:87:dd:a3:
                    36:5a:30:03:2e:26:e0:61:d1:bf:02:3f:b6:06:1f:
                    4a:89:28:1c:5c:a2:ff:4e:be:94:e6:8c:e0:da:82:
                    f1:9d:29:32:48:30:73:b4:04:f6:42:1e:be:f7:e2:
                    32:32:27:3c:9d:89:2f:70:3e:85:9a:6f:5c:c5:09:
                    c0:8c:32:2f:72:22:c9:d2:95:1f:b6:ac:72:60:72:
                    b7:82:4d:6b:ce:5b:e3:00:d0:d2:2f:58:c6:e0:10:
                    e5:51:ca:4d:3b:2e:e6:7e:ab:84:d6:56:f1:93:35:
                    a0:93:64:26:81:75:2f:91:b5:16:06:38:0b:db:cc:
                    2d:07
                Exponent: 65537 (0x10001)
        X509v3 extensions:
            X509v3 Key Usage: 
                Digital Signature, Key Encipherment
            X509v3 Basic Constraints: 
                CA:FALSE
            Netscape Cert Type: 
                SSL Server
            Netscape Comment: 
                OpenSSL Generated Server Certificate
            X509v3 Subject Key Identifier: 
                FC:14:D1:F0:4B:8D:00:90:F2:F5:B8:71:9E:4E:97:C3:92:54:AD:0B
            X509v3 Authority Key Identifier: 
                keyid:F4:A7:C0:CC:91:46:AF:64:F3:91:F2:27:F8:C8:B2:6F:8A:87:32:73
                DirName:/C=DE/ST=Hessen/O=privacyidea/CN=CA001
                serial:FB:C8:EB:AC:83:CD:12:07

            X509v3 Extended Key Usage: 
                TLS Web Server Authentication
    Signature Algorithm: sha256WithRSAEncryption
         5e:c8:5c:aa:c1:29:cd:d9:8f:93:17:4c:0f:31:6a:1f:1a:89:
         ce:18:09:22:d4:f7:32:46:85:4a:d3:af:87:58:7b:f9:6a:f3:
         f5:78:de:68:5f:81:67:ea:d3:97:14:b1:08:32:04:43:2d:23:
         93:6c:f1:9e:70:14:2d:93:b0:0c:62:9b:ae:10:7e:34:91:29:
         cf:60:f9:cb:8a:e2:f9:e7:eb:e5:05:c0:ea:c1:b3:86:fb:39:
         a5:0a:a0:85:53:6f:f7:fa:a1:d5:34:55:84:73:3d:ff:91:05:
         c6:6c:f9:cf:f5:e0:74:f6:2f:c3:02:4b:6f:e3:16:83:5a:db:
         31:00:71:ff:aa:5c:a4:dd:3f:6f:b9:bc:9b:85:e7:a7:7f:09:
         6c:3b:ca:ba:a0:e4:17:5f:fe:22:95:6e:6b:b8:e8:74:d6:05:
         4c:b3:bc:41:a6:ce:65:8c:c9:89:dc:fe:76:fb:86:55:b1:bf:
         73:2e:af:94:ee:f4:5f:d0:fa:c3:d5:12:c3:7c:f9:df:e0:a4:
         e8:91:2a:63:a3:26:49:a7:95:cb:6c:f9:02:a7:02:14:a0:4a:
         d3:58:8b:ec:5d:20:1a:20:ee:5e:df:f3:20:f7:2d:84:8e:7a:
         d0:90:3a:06:29:2c:b9:21:8e:56:48:50:40:9d:4d:e0:bf:83:
         62:91:16:3e
-----BEGIN CERTIFICATE-----
MIIEGTCCAwGgAwIBAgIEEAAA9DANBgkqhkiG9w0BAQsFADBEMQswCQYDVQQGEwJE
RTEPMA0GA1UECAwGSGVzc2VuMRQwEgYDVQQKDAtwcml2YWN5aWRlYTEOMAwGA1UE
AwwFQ0EwMDEwHhcNMTkwODE0MjEyMzE5WhcNMjAwODEzMjEyMzE5WjBHMQswCQYD
VQQGEwJERTEPMA0GA1UECAwGSGVzc2VuMRQwEgYDVQQKDAtwcml2YWN5aWRlYTER
MA8GA1UEAwwIdXNlcmNlcnQwggEiMA0GCSqGSIb3DQEBAQUAA4IBDwAwggEKAoIB
AQDcL9FfKZfUfMNTyDC9S2dwLCRruF7rIXpIElZ8gVxIdbZo6/bymE5QUdF/bHPz
Cqeuvkhe5dbh2Sp8Mm5O/Qj2WlRJI3PDuQcY0e+zrPiK3JSWpJA6jnTf5g03G71b
tyUaVjnab5GqXhx08/l8FAGDEmV2x7v+NluV6XJlg+0+mDBx+ofdozZaMAMuJuBh
0b8CP7YGH0qJKBxcov9OvpTmjODagvGdKTJIMHO0BPZCHr734jIyJzydiS9wPoWa
b1zFCcCMMi9yIsnSlR+2rHJgcreCTWvOW+MA0NIvWMbgEOVRyk07LuZ+q4TWVvGT
NaCTZCaBdS+RtRYGOAvbzC0HAgMBAAGjggEOMIIBCjALBgNVHQ8EBAMCBaAwCQYD
VR0TBAIwADARBglghkgBhvhCAQEEBAMCBkAwMwYJYIZIAYb4QgENBCYWJE9wZW5T
U0wgR2VuZXJhdGVkIFNlcnZlciBDZXJ0aWZpY2F0ZTAdBgNVHQ4EFgQU/BTR8EuN
AJDy9bhxnk6Xw5JUrQswdAYDVR0jBG0wa4AU9KfAzJFGr2TzkfIn+Miyb4qHMnOh
SKRGMEQxCzAJBgNVBAYTAkRFMQ8wDQYDVQQIDAZIZXNzZW4xFDASBgNVBAoMC3By
aXZhY3lpZGVhMQ4wDAYDVQQDDAVDQTAwMYIJAPvI66yDzRIHMBMGA1UdJQQMMAoG
CCsGAQUFBwMBMA0GCSqGSIb3DQEBCwUAA4IBAQBeyFyqwSnN2Y+TF0wPMWofGonO
GAki1PcyRoVK06+HWHv5avP1eN5oX4Fn6tOXFLEIMgRDLSOTbPGecBQtk7AMYpuu
EH40kSnPYPnLiuL55+vlBcDqwbOG+zmlCqCFU2/3+qHVNFWEcz3/kQXGbPnP9eB0
9i/DAktv4xaDWtsxAHH/qlyk3T9vubybheenfwlsO8q6oOQXX/4ilW5ruOh01gVM
s7xBps5ljMmJ3P52+4ZVsb9zLq+U7vRf0PrD1RLDfPnf4KTokSpjoyZJp5XLbPkC
pwIUoErTWIvsXSAaIO5e3/Mg9y2EjnrQkDoGKSy5IY5WSFBAnU3gv4NikRY+
-----END CERTIFICATE-----
