Certificate:
    Data:
        Version: 3 (0x2)
        Serial Number: 268435749 (0x10000125)
    Signature Algorithm: sha256WithRSAEncryption
        Issuer: C=DE, ST=Hessen, O=privacyidea, CN=CA001
        Validity
            Not Before: Jan 10 06:42:00 2019 GMT
            Not After : Jan 10 06:42:00 2020 GMT
        Subject: CN=selfservice,CN=user,O=realm1/emailAddress=meine
        Subject Public Key Info:
            Public Key Algorithm: rsaEncryption
                Public-Key: (2048 bit)
                Modulus:
                    00:cf:3c:d4:33:0e:12:c4:e6:da:cd:b6:56:a1:1c:
                    26:bb:26:1c:8a:4a:73:a8:58:8a:b6:1e:b3:8b:99:
                    d2:1d:07:c2:92:89:79:c0:69:d8:c8:df:28:61:98:
                    1e:b3:fe:ae:2b:bd:78:a9:f7:6e:47:dc:a3:a0:16:
                    8c:85:02:c1:4e:92:fd:72:6e:f0:c8:03:29:9b:b8:
                    00:6e:c0:83:95:c8:34:20:36:9c:b3:e5:e4:e6:76:
                    73:a3:1a:ad:40:96:e0:53:54:00:ec:76:79:9a:c6:
                    0d:7e:b6:bd:29:ec:83:f3:cb:89:a4:cb:6c:00:ba:
                    0c:c5:78:0f:ff:69:b8:94:f4:04:70:43:3f:d8:9e:
                    d7:a7:fb:5d:ce:75:8e:da:e7:c4:07:b1:9d:de:6f:
                    88:4b:b6:4d:9a:cf:f9:bc:fa:9f:cd:32:6d:f6:3a:
                    0b:0d:23:42:78:ec:97:42:bf:0e:4d:60:56:e1:d3:
                    02:f2:19:cb:84:57:90:e5:70:a1:a2:83:35:86:e2:
                    da:86:9f:f9:8a:c4:79:b3:52:28:da:cb:bb:34:ca:
                    d3:da:91:4a:cf:8d:76:a2:b2:6b:9b:f9:96:fd:09:
                    2a:da:11:23:4d:f0:cb:d6:b2:b1:0e:12:6c:9a:19:
                    65:98:87:ca:e4:ee:24:ce:44:ac:90:8f:9d:1b:c5:
                    2a:9d
                Exponent: 65537 (0x10001)
        X509v3 extensions:
            X509v3 Key Usage: 
                Digital Signature, Key Encipherment
            X509v3 Basic Constraints: 
                CA:FALSE
            Netscape Cert Type: 
                SSL Server
            Netscape Comment: 
                OpenSSL Generated Server Certificate
            X509v3 Subject Key Identifier: 
                4D:07:90:AD:FF:1D:0D:E7:1A:DD:D6:2E:FA:BA:34:CB:AA:1F:24:C6
            X509v3 Authority Key Identifier: 
                keyid:F4:A7:C0:CC:91:46:AF:64:F3:91:F2:27:F8:C8:B2:6F:8A:87:32:73
                DirName:/C=DE/ST=Hessen/O=privacyidea/CN=CA001
                serial:FB:C8:EB:AC:83:CD:12:07

            X509v3 Extended Key Usage: 
                TLS Web Server Authentication
    Signature Algorithm: sha256WithRSAEncryption
         50:2a:22:1a:00:7b:f5:81:c0:3a:d1:b2:ec:e5:84:02:e1:66:
         82:8b:8b:0b:b2:ad:2c:d8:9e:c1:4d:4b:5a:55:e5:50:1e:4b:
         fe:f1:86:76:e7:d6:a4:50:90:d3:04:cb:c8:c0:47:8a:ea:95:
         87:f9:96:65:de:e0:33:4f:9f:38:c6:0a:bd:e3:26:6a:bd:8f:
         6d:e4:8d:c4:ad:de:f3:f8:59:6a:fc:a5:fa:4e:1c:8c:6e:e9:
         c3:0e:d3:0c:af:b1:22:e5:a8:a2:f7:e6:d4:0e:ef:90:d1:6a:
         43:ca:85:eb:eb:91:97:dd:73:17:c1:d7:1b:77:d5:fb:97:99:
         0f:d0:f3:3e:b4:11:13:bd:1c:49:20:bf:69:12:1e:9a:a2:41:
         82:02:9c:e6:e9:3f:a3:16:97:fc:1c:6f:85:99:93:f3:c0:44:
         51:ac:98:70:b4:36:45:f2:a9:68:14:ae:1c:21:70:28:e5:0f:
         4c:56:60:9c:dd:c8:cd:11:c5:00:20:43:2b:7a:de:20:1e:f0:
         d2:d4:2a:3e:8a:30:49:09:d8:85:35:11:67:ac:f1:aa:e0:f5:
         4b:9a:87:f4:f2:27:a4:d9:81:87:42:d8:c5:be:b8:60:1c:08:
         cb:07:44:78:f7:db:4c:7f:76:ab:a5:4a:be:83:28:57:c5:bd:
         c1:81:0f:6a
-----BEGIN CERTIFICATE-----
MIIEDzCCAvegAwIBAgIEEAABJTANBgkqhkiG9w0BAQsFADBEMQswCQYDVQQGEwJE
RTEPMA0GA1UECAwGSGVzc2VuMRQwEgYDVQQKDAtwcml2YWN5aWRlYTEOMAwGA1UE
AwwFQ0EwMDEwHhcNMTkwMTEwMDY0MjAwWhcNMjAwMTEwMDY0MjAwWjA9MSUwIwYD
VQQDDBxzZWxmc2VydmljZSxDTj11c2VyLE89cmVhbG0xMRQwEgYJKoZIhvcNAQkB
FgVtZWluZTCCASIwDQYJKoZIhvcNAQEBBQADggEPADCCAQoCggEBAM881DMOEsTm
2s22VqEcJrsmHIpKc6hYirYes4uZ0h0HwpKJecBp2MjfKGGYHrP+riu9eKn3bkfc
o6AWjIUCwU6S/XJu8MgDKZu4AG7Ag5XINCA2nLPl5OZ2c6MarUCW4FNUAOx2eZrG
DX62vSnsg/PLiaTLbAC6DMV4D/9puJT0BHBDP9ie16f7Xc51jtrnxAexnd5viEu2
TZrP+bz6n80ybfY6Cw0jQnjsl0K/Dk1gVuHTAvIZy4RXkOVwoaKDNYbi2oaf+YrE
ebNSKNrLuzTK09qRSs+NdqKya5v5lv0JKtoRI03wy9aysQ4SbJoZZZiHyuTuJM5E
rJCPnRvFKp0CAwEAAaOCAQ4wggEKMAsGA1UdDwQEAwIFoDAJBgNVHRMEAjAAMBEG
CWCGSAGG+EIBAQQEAwIGQDAzBglghkgBhvhCAQ0EJhYkT3BlblNTTCBHZW5lcmF0
ZWQgU2VydmVyIENlcnRpZmljYXRlMB0GA1UdDgQWBBRNB5Ct/x0N5xrd1i76ujTL
qh8kxjB0BgNVHSMEbTBrgBT0p8DMkUavZPOR8if4yLJviocyc6FIpEYwRDELMAkG
A1UEBhMCREUxDzANBgNVBAgMBkhlc3NlbjEUMBIGA1UECgwLcHJpdmFjeWlkZWEx
DjAMBgNVBAMMBUNBMDAxggkA+8jrrIPNEgcwEwYDVR0lBAwwCgYIKwYBBQUHAwEw
DQYJKoZIhvcNAQELBQADggEBAFAqIhoAe/WBwDrRsuzlhALhZoKLiwuyrSzYnsFN
S1pV5VAeS/7xhnbn1qRQkNMEy8jAR4rqlYf5lmXe4DNPnzjGCr3jJmq9j23kjcSt
3vP4WWr8pfpOHIxu6cMO0wyvsSLlqKL35tQO75DRakPKhevrkZfdcxfB1xt31fuX
mQ/Q8z60ERO9HEkgv2kSHpqiQYICnObpP6MWl/wcb4WZk/PARFGsmHC0NkXyqWgU
rhwhcCjlD0xWYJzdyM0RxQAgQyt63iAe8NLUKj6KMEkJ2IU1EWes8arg9Uuah/Ty
J6TZgYdC2MW+uGAcCMsHRHj320x/dqulSr6DKFfFvcGBD2o=
-----END CERTIFICATE-----
