Certificate:
    Data:
        Version: 3 (0x2)
        Serial Number: 268435709 (0x100000fd)
    Signature Algorithm: sha256WithRSAEncryption
        Issuer: C=DE, ST=Hessen, O=privacyidea, CN=CA001
        Validity
            Not Before: Jan  9 21:11:46 2019 GMT
            Not After : Jan  9 21:11:46 2020 GMT
        Subject: C=DE, ST=Hessen, O=privacyidea, CN=requester.localdomain
        Subject Public Key Info:
            Public Key Algorithm: rsaEncryption
                Public-Key: (2048 bit)
                Modulus:
                    00:cd:be:14:4f:fa:ce:01:3f:42:22:1b:1d:9c:af:
                    dd:92:d2:7f:db:6c:b7:3e:39:43:43:6b:13:03:f1:
                    05:f4:07:74:bc:76:69:28:0b:af:19:8e:d7:fc:e3:
                    cd:c6:58:f2:ca:7f:08:6d:53:fc:07:02:44:24:c6:
                    b4:34:4c:8c:04:fe:33:0e:40:e2:20:ba:02:73:5a:
                    f7:f5:4f:63:6e:cc:c6:b6:df:54:1d:37:39:7d:51:
                    36:26:5f:bd:dc:3f:a8:8b:6b:a2:ae:b6:9d:d6:21:
                    e7:df:41:b8:7a:28:2a:68:48:ca:a8:2d:ed:e1:e9:
                    46:5e:5a:72:6d:b4:84:38:87:91:fd:94:11:0b:28:
                    84:c6:c2:2f:2a:fb:01:f9:36:7a:09:75:d1:33:88:
                    3c:73:41:5b:c8:bf:94:89:70:a1:f0:c0:b9:2e:50:
                    53:1e:b1:17:64:69:f4:2d:81:e0:a9:0d:0e:32:e9:
                    ba:55:8a:85:f1:1b:6f:49:79:b4:7f:88:c3:0d:3e:
                    54:88:9b:3d:1f:38:8c:04:f3:ee:6a:63:2b:f5:c6:
                    db:b4:83:aa:c4:78:41:3a:7d:4b:e1:c8:3e:71:ca:
                    1b:61:59:ea:c6:c4:ca:32:5e:c9:e9:bf:12:29:e6:
                    c6:c3:63:fe:a0:55:da:7a:f1:60:98:4d:26:ed:fa:
                    70:2d
                Exponent: 65537 (0x10001)
        X509v3 extensions:
            X509v3 Key Usage: 
                Digital Signature, Key Encipherment
            X509v3 Basic Constraints: 
                CA:FALSE
            Netscape Cert Type: 
                SSL Server
            Netscape Comment: 
                OpenSSL Generated Server Certificate
            X509v3 Subject Key Identifier: 
                53:3F:ED:5D:09:07:B3:65:7B:AB:45:C9:24:5B:09:77:80:0A:96:ED
            X509v3 Authority Key Identifier: 
                keyid:F4:A7:C0:CC:91:46:AF:64:F3:91:F2:27:F8:C8:B2:6F:8A:87:32:73
                DirName:/C=DE/ST=Hessen/O=privacyidea/CN=CA001
                serial:FB:C8:EB:AC:83:CD:12:07

            X509v3 Extended Key Usage: 
                TLS Web Server Authentication
    Signature Algorithm: sha256WithRSAEncryption
         60:c2:82:61:cb:58:18:a4:ab:bc:ff:5a:07:ca:31:e2:f1:e3:
         97:cb:08:d7:c2:c3:57:52:15:03:98:4f:d2:4c:ab:13:9a:0a:
         aa:2f:a6:1d:45:75:f4:ac:0b:ca:ba:58:37:7e:ca:f5:97:69:
         c3:f1:82:08:56:fe:13:b6:c5:77:d0:48:38:7b:00:65:43:67:
         4d:e0:51:9d:53:0e:c5:af:1c:4f:13:56:26:33:71:35:c2:8a:
         e6:f1:13:aa:a0:82:54:77:c0:a8:d9:fa:8d:bd:64:c0:9e:a8:
         41:c6:e5:9d:80:2a:03:a3:b3:4e:17:70:e7:e4:a0:97:30:62:
         b9:b1:e4:7a:06:66:e7:a1:04:b1:1a:88:42:2c:c7:45:07:d3:
         b2:89:a5:ab:37:5a:b4:7b:0c:94:b5:15:0a:43:8f:e1:a0:74:
         6e:26:9d:4a:bf:bc:e9:85:e2:f4:af:63:3f:21:a3:3e:40:77:
         5f:b4:2d:22:e2:80:9a:bc:66:28:7d:63:bf:50:b6:c9:6d:68:
         64:8b:3d:80:73:1d:6c:c0:50:9d:56:e9:88:b3:4b:17:b3:1a:
         9c:e4:38:37:ea:2d:fb:2f:aa:c3:ba:26:a9:73:c3:8d:99:84:
         8e:d6:88:2f:eb:51:07:0f:ec:fa:62:6c:1a:a1:4d:cc:80:58:
         3d:8e:9d:fe
-----BEGIN CERTIFICATE-----
MIIEJjCCAw6gAwIBAgIEEAAA/TANBgkqhkiG9w0BAQsFADBEMQswCQYDVQQGEwJE
RTEPMA0GA1UECAwGSGVzc2VuMRQwEgYDVQQKDAtwcml2YWN5aWRlYTEOMAwGA1UE
AwwFQ0EwMDEwHhcNMTkwMTA5MjExMTQ2WhcNMjAwMTA5MjExMTQ2WjBUMQswCQYD
VQQGEwJERTEPMA0GA1UECAwGSGVzc2VuMRQwEgYDVQQKDAtwcml2YWN5aWRlYTEe
MBwGA1UEAwwVcmVxdWVzdGVyLmxvY2FsZG9tYWluMIIBIjANBgkqhkiG9w0BAQEF
AAOCAQ8AMIIBCgKCAQEAzb4UT/rOAT9CIhsdnK/dktJ/22y3PjlDQ2sTA/EF9Ad0
vHZpKAuvGY7X/OPNxljyyn8IbVP8BwJEJMa0NEyMBP4zDkDiILoCc1r39U9jbszG
tt9UHTc5fVE2Jl+93D+oi2uirrad1iHn30G4eigqaEjKqC3t4elGXlpybbSEOIeR
/ZQRCyiExsIvKvsB+TZ6CXXRM4g8c0FbyL+UiXCh8MC5LlBTHrEXZGn0LYHgqQ0O
Mum6VYqF8RtvSXm0f4jDDT5UiJs9HziMBPPuamMr9cbbtIOqxHhBOn1L4cg+ccob
YVnqxsTKMl7J6b8SKebGw2P+oFXaevFgmE0m7fpwLQIDAQABo4IBDjCCAQowCwYD
VR0PBAQDAgWgMAkGA1UdEwQCMAAwEQYJYIZIAYb4QgEBBAQDAgZAMDMGCWCGSAGG
+EIBDQQmFiRPcGVuU1NMIEdlbmVyYXRlZCBTZXJ2ZXIgQ2VydGlmaWNhdGUwHQYD
VR0OBBYEFFM/7V0JB7Nle6tFySRbCXeACpbtMHQGA1UdIwRtMGuAFPSnwMyRRq9k
85HyJ/jIsm+KhzJzoUikRjBEMQswCQYDVQQGEwJERTEPMA0GA1UECAwGSGVzc2Vu
MRQwEgYDVQQKDAtwcml2YWN5aWRlYTEOMAwGA1UEAwwFQ0EwMDGCCQD7yOusg80S
BzATBgNVHSUEDDAKBggrBgEFBQcDATANBgkqhkiG9w0BAQsFAAOCAQEAYMKCYctY
GKSrvP9aB8ox4vHjl8sI18LDV1IVA5hP0kyrE5oKqi+mHUV19KwLyrpYN37K9Zdp
w/GCCFb+E7bFd9BIOHsAZUNnTeBRnVMOxa8cTxNWJjNxNcKK5vETqqCCVHfAqNn6
jb1kwJ6oQcblnYAqA6OzThdw5+SglzBiubHkegZm56EEsRqIQizHRQfTsomlqzda
tHsMlLUVCkOP4aB0biadSr+86YXi9K9jPyGjPkB3X7QtIuKAmrxmKH1jv1C2yW1o
ZIs9gHMdbMBQnVbpiLNLF7ManOQ4N+ot+y+qw7omqXPDjZmEjtaIL+tRBw/s+mJs
GqFNzIBYPY6d/g==
-----END CERTIFICATE-----
