Certificate:
    Data:
        Version: 3 (0x2)
        Serial Number: 268435628 (0x100000ac)
    Signature Algorithm: sha1WithRSAEncryption
        Issuer: C=DE, ST=Hessen, O=privacyidea, CN=CA001
        Validity
            Not Before: Sep 12 08:38:22 2015 GMT
            Not After : Sep 11 08:38:22 2016 GMT
        Subject: CN=Steve Test/emailAddress=steve@openssl.org
        Subject Public Key Info:
            Public Key Algorithm: rsaEncryption
                Public-Key: (2048 bit)
                Modulus:
                    00:d2:81:89:20:51:48:0f:73:f4:11:32:24:d5:1f:
                    1c:fd:5c:f5:b6:e6:c5:f0:52:81:dc:d2:af:66:4a:
                    7c:93:31:61:5c:af:d1:6d:06:70:03:60:7c:72:0c:
                    88:dd:49:cd:9e:02:6c:d2:5a:d7:53:0f:f3:da:be:
                    69:64:b5:0f:0c:00:e3:b3:50:47:a3:b3:9b:ba:13:
                    50:d6:58:5a:4b:ab:39:e0:11:ca:0a:27:67:03:78:
                    22:66:6d:92:1e:1b:5c:49:ae:e6:6b:d1:8e:3b:9d:
                    06:d3:c6:ac:4d:53:43:10:ab:e8:96:c1:87:82:97:
                    99:8f:20:d3:99:12:37:31:84:e1:8a:ff:29:03:5f:
                    22:90:3e:7f:9b:e0:20:c1:ad:dc:ae:4c:39:1a:31:
                    96:17:02:8c:b2:d9:b4:0d:20:12:9b:7d:86:54:fd:
                    33:fd:c1:2a:62:46:f8:60:96:cf:6e:01:6f:22:df:
                    13:47:e7:97:ec:05:72:23:a3:62:f8:fa:ef:ac:9c:
                    72:f0:37:cb:2f:37:cf:90:a8:27:51:86:c6:d7:78:
                    08:8f:7e:25:a2:15:70:a2:fb:1c:b6:15:5e:a0:97:
                    8b:81:4c:09:28:8a:27:3b:94:bc:71:db:5b:71:37:
                    9a:2b:16:e0:6f:b5:c9:f5:4b:4f:20:ba:65:cf:af:
                    ad:ad
                Exponent: 65537 (0x10001)
        X509v3 extensions:
            X509v3 Key Usage: 
                Digital Signature, Key Encipherment
            X509v3 Basic Constraints: 
                CA:FALSE
            Netscape Cert Type: 
                SSL Server
            Netscape Comment: 
                OpenSSL Generated Server Certificate
            X509v3 Subject Key Identifier: 
                E5:25:6D:3E:AF:0D:DD:3F:4C:F2:45:19:39:D5:14:DB:7E:9C:C0:AD
            X509v3 Authority Key Identifier: 
                keyid:F4:A7:C0:CC:91:46:AF:64:F3:91:F2:27:F8:C8:B2:6F:8A:87:32:73
                DirName:/C=DE/ST=Hessen/O=privacyidea/CN=CA001
                serial:FB:C8:EB:AC:83:CD:12:07

            X509v3 Extended Key Usage: 
                TLS Web Server Authentication
    Signature Algorithm: sha1WithRSAEncryption
         69:75:41:ab:f6:45:70:d7:20:0c:7b:06:33:1a:4c:49:6c:b0:
         74:36:18:d2:bc:5d:03:e7:96:1d:c0:4c:3d:82:24:2a:e8:98:
         49:f1:b9:c2:27:a1:d6:44:b0:c7:62:13:f7:88:b7:e1:7b:3b:
         bc:7f:25:25:c4:37:f4:80:db:70:ff:24:9f:0a:5e:50:02:52:
         df:ab:ed:d5:0d:44:fd:81:6f:1f:14:a0:19:96:f1:e4:cc:bd:
         02:0d:fa:85:ed:64:0a:af:d4:a8:95:fa:bd:bc:76:3b:f2:bb:
         7b:de:ec:5e:5f:aa:30:dc:58:2e:75:13:14:02:f3:ff:25:f4:
         b5:e7:72:8c:8f:29:57:fb:88:35:7b:d9:4c:b4:0d:8f:41:98:
         5a:99:c9:16:30:3e:f5:41:d4:ce:ac:b1:47:72:e9:0a:a3:c3:
         55:63:60:70:31:b5:06:d7:d0:1c:32:9f:a4:a0:65:b1:da:fa:
         6d:c3:62:1f:04:33:1d:bf:0f:a5:7b:e4:a3:4d:87:91:17:b6:
         0e:ec:17:76:de:7f:56:69:39:ab:8f:72:87:41:c6:13:1c:d5:
         37:db:0c:94:a2:00:92:fb:ff:dd:c9:5e:77:43:3d:f3:50:d3:
         c9:72:b5:e6:38:7a:ec:d0:f7:5b:ae:4a:6c:52:69:87:2c:68:
         6b:37:10:5c
-----BEGIN CERTIFICATE-----
MIIECTCCAvGgAwIBAgIEEAAArDANBgkqhkiG9w0BAQUFADBEMQswCQYDVQQGEwJE
RTEPMA0GA1UECAwGSGVzc2VuMRQwEgYDVQQKDAtwcml2YWN5aWRlYTEOMAwGA1UE
AwwFQ0EwMDEwHhcNMTUwOTEyMDgzODIyWhcNMTYwOTExMDgzODIyWjA3MRMwEQYD
VQQDEwpTdGV2ZSBUZXN0MSAwHgYJKoZIhvcNAQkBFhFzdGV2ZUBvcGVuc3NsLm9y
ZzCCASIwDQYJKoZIhvcNAQEBBQADggEPADCCAQoCggEBANKBiSBRSA9z9BEyJNUf
HP1c9bbmxfBSgdzSr2ZKfJMxYVyv0W0GcANgfHIMiN1JzZ4CbNJa11MP89q+aWS1
DwwA47NQR6Ozm7oTUNZYWkurOeARygonZwN4ImZtkh4bXEmu5mvRjjudBtPGrE1T
QxCr6JbBh4KXmY8g05kSNzGE4Yr/KQNfIpA+f5vgIMGt3K5MORoxlhcCjLLZtA0g
Ept9hlT9M/3BKmJG+GCWz24BbyLfE0fnl+wFciOjYvj676yccvA3yy83z5CoJ1GG
xtd4CI9+JaIVcKL7HLYVXqCXi4FMCSiKJzuUvHHbW3E3misW4G+1yfVLTyC6Zc+v
ra0CAwEAAaOCAQ4wggEKMAsGA1UdDwQEAwIFoDAJBgNVHRMEAjAAMBEGCWCGSAGG
+EIBAQQEAwIGQDAzBglghkgBhvhCAQ0EJhYkT3BlblNTTCBHZW5lcmF0ZWQgU2Vy
dmVyIENlcnRpZmljYXRlMB0GA1UdDgQWBBTlJW0+rw3dP0zyRRk51RTbfpzArTB0
BgNVHSMEbTBrgBT0p8DMkUavZPOR8if4yLJviocyc6FIpEYwRDELMAkGA1UEBhMC
REUxDzANBgNVBAgMBkhlc3NlbjEUMBIGA1UECgwLcHJpdmFjeWlkZWExDjAMBgNV
BAMMBUNBMDAxggkA+8jrrIPNEgcwEwYDVR0lBAwwCgYIKwYBBQUHAwEwDQYJKoZI
hvcNAQEFBQADggEBAGl1Qav2RXDXIAx7BjMaTElssHQ2GNK8XQPnlh3ATD2CJCro
mEnxucInodZEsMdiE/eIt+F7O7x/JSXEN/SA23D/JJ8KXlACUt+r7dUNRP2Bbx8U
oBmW8eTMvQIN+oXtZAqv1KiV+r28djvyu3ve7F5fqjDcWC51ExQC8/8l9LXncoyP
KVf7iDV72Uy0DY9BmFqZyRYwPvVB1M6ssUdy6Qqjw1VjYHAxtQbX0Bwyn6SgZbHa
+m3DYh8EMx2/D6V75KNNh5EXtg7sF3bef1ZpOauPcodBxhMc1TfbDJSiAJL7/93J
XndDPfNQ08lyteY4euzQ91uuSmxSaYcsaGs3EFw=
-----END CERTIFICATE-----
