Certificate:
    Data:
        Version: 3 (0x2)
        Serial Number: 268435744 (0x10000120)
    Signature Algorithm: sha256WithRSAEncryption
        Issuer: C=DE, ST=Hessen, O=privacyidea, CN=CA001
        Validity
            Not Before: Jan 10 06:29:46 2019 GMT
            Not After : Jan 10 06:29:46 2020 GMT
        Subject: C=DE, ST=Hessen, O=privacyidea, CN=usercert
        Subject Public Key Info:
            Public Key Algorithm: rsaEncryption
                Public-Key: (2048 bit)
                Modulus:
                    00:dc:2f:d1:5f:29:97:d4:7c:c3:53:c8:30:bd:4b:
                    67:70:2c:24:6b:b8:5e:eb:21:7a:48:12:56:7c:81:
                    5c:48:75:b6:68:eb:f6:f2:98:4e:50:51:d1:7f:6c:
                    73:f3:0a:a7:ae:be:48:5e:e5:d6:e1:d9:2a:7c:32:
                    6e:4e:fd:08:f6:5a:54:49:23:73:c3:b9:07:18:d1:
                    ef:b3:ac:f8:8a:dc:94:96:a4:90:3a:8e:74:df:e6:
                    0d:37:1b:bd:5b:b7:25:1a:56:39:da:6f:91:aa:5e:
                    1c:74:f3:f9:7c:14:01:83:12:65:76:c7:bb:fe:36:
                    5b:95:e9:72:65:83:ed:3e:98:30:71:fa:87:dd:a3:
                    36:5a:30:03:2e:26:e0:61:d1:bf:02:3f:b6:06:1f:
                    4a:89:28:1c:5c:a2:ff:4e:be:94:e6:8c:e0:da:82:
                    f1:9d:29:32:48:30:73:b4:04:f6:42:1e:be:f7:e2:
                    32:32:27:3c:9d:89:2f:70:3e:85:9a:6f:5c:c5:09:
                    c0:8c:32:2f:72:22:c9:d2:95:1f:b6:ac:72:60:72:
                    b7:82:4d:6b:ce:5b:e3:00:d0:d2:2f:58:c6:e0:10:
                    e5:51:ca:4d:3b:2e:e6:7e:ab:84:d6:56:f1:93:35:
                    a0:93:64:26:81:75:2f:91:b5:16:06:38:0b:db:cc:
                    2d:07
                Exponent: 65537 (0x10001)
        X509v3 extensions:
            X509v3 Key Usage: 
                Digital Signature, Key Encipherment
            X509v3 Basic Constraints: 
                CA:FALSE
            Netscape Cert Type: 
                SSL Server
            Netscape Comment: 
                OpenSSL Generated Server Certificate
            X509v3 Subject Key Identifier: 
                FC:14:D1:F0:4B:8D:00:90:F2:F5:B8:71:9E:4E:97:C3:92:54:AD:0B
            X509v3 Authority Key Identifier: 
                keyid:F4:A7:C0:CC:91:46:AF:64:F3:91:F2:27:F8:C8:B2:6F:8A:87:32:73
                DirName:/C=DE/ST=Hessen/O=privacyidea/CN=CA001
                serial:FB:C8:EB:AC:83:CD:12:07

            X509v3 Extended Key Usage: 
                TLS Web Server Authentication
    Signature Algorithm: sha256WithRSAEncryption
         10:49:08:42:77:03:a7:40:21:a5:23:f0:a4:4a:6e:8b:da:dd:
         34:7c:1f:46:7c:32:50:08:2d:80:0c:d8:66:0c:f0:50:d5:35:
         37:a3:05:29:11:57:b8:08:10:cb:8f:6a:ed:67:14:ee:06:2e:
         84:0d:c7:7a:07:b0:b3:04:b9:a0:ac:b8:20:0e:98:23:bb:a3:
         bf:9b:d0:22:18:c7:3e:af:9a:fd:94:1c:73:3e:95:7f:aa:60:
         d6:9b:bd:87:87:95:1d:80:28:3c:ef:5b:6f:09:5e:1b:4f:23:
         44:f1:65:20:5f:08:b9:fb:a6:77:fb:32:e5:d1:ae:fc:b0:a5:
         f4:96:c0:6f:9d:ec:e1:5c:68:39:0a:c3:f3:8f:84:b1:17:48:
         e2:d3:a5:0d:17:f8:b7:6b:2d:73:f9:ef:8f:1f:d3:e2:13:2d:
         0e:0a:e9:7d:14:79:8b:d0:73:aa:15:4d:19:d2:d6:b3:4b:76:
         cc:46:3e:82:d4:bb:f3:9c:31:2f:4d:1c:d3:a9:4e:a6:b0:5c:
         36:24:0c:15:2b:dc:be:66:7f:62:f8:08:61:b0:14:78:fb:4e:
         04:a5:cf:5d:ea:a7:4e:4f:cf:82:43:43:ea:bd:a7:23:99:d8:
         5b:8c:d8:7e:f9:1e:10:1e:3c:0a:02:77:7a:11:6f:d5:f3:2a:
         e2:43:92:c6
-----BEGIN CERTIFICATE-----
MIIEGTCCAwGgAwIBAgIEEAABIDANBgkqhkiG9w0BAQsFADBEMQswCQYDVQQGEwJE
RTEPMA0GA1UECAwGSGVzc2VuMRQwEgYDVQQKDAtwcml2YWN5aWRlYTEOMAwGA1UE
AwwFQ0EwMDEwHhcNMTkwMTEwMDYyOTQ2WhcNMjAwMTEwMDYyOTQ2WjBHMQswCQYD
VQQGEwJERTEPMA0GA1UECAwGSGVzc2VuMRQwEgYDVQQKDAtwcml2YWN5aWRlYTER
MA8GA1UEAwwIdXNlcmNlcnQwggEiMA0GCSqGSIb3DQEBAQUAA4IBDwAwggEKAoIB
AQDcL9FfKZfUfMNTyDC9S2dwLCRruF7rIXpIElZ8gVxIdbZo6/bymE5QUdF/bHPz
Cqeuvkhe5dbh2Sp8Mm5O/Qj2WlRJI3PDuQcY0e+zrPiK3JSWpJA6jnTf5g03G71b
tyUaVjnab5GqXhx08/l8FAGDEmV2x7v+NluV6XJlg+0+mDBx+ofdozZaMAMuJuBh
0b8CP7YGH0qJKBxcov9OvpTmjODagvGdKTJIMHO0BPZCHr734jIyJzydiS9wPoWa
b1zFCcCMMi9yIsnSlR+2rHJgcreCTWvOW+MA0NIvWMbgEOVRyk07LuZ+q4TWVvGT
NaCTZCaBdS+RtRYGOAvbzC0HAgMBAAGjggEOMIIBCjALBgNVHQ8EBAMCBaAwCQYD
VR0TBAIwADARBglghkgBhvhCAQEEBAMCBkAwMwYJYIZIAYb4QgENBCYWJE9wZW5T
U0wgR2VuZXJhdGVkIFNlcnZlciBDZXJ0aWZpY2F0ZTAdBgNVHQ4EFgQU/BTR8EuN
AJDy9bhxnk6Xw5JUrQswdAYDVR0jBG0wa4AU9KfAzJFGr2TzkfIn+Miyb4qHMnOh
SKRGMEQxCzAJBgNVBAYTAkRFMQ8wDQYDVQQIDAZIZXNzZW4xFDASBgNVBAoMC3By
aXZhY3lpZGVhMQ4wDAYDVQQDDAVDQTAwMYIJAPvI66yDzRIHMBMGA1UdJQQMMAoG
CCsGAQUFBwMBMA0GCSqGSIb3DQEBCwUAA4IBAQAQSQhCdwOnQCGlI/CkSm6L2t00
fB9GfDJQCC2ADNhmDPBQ1TU3owUpEVe4CBDLj2rtZxTuBi6EDcd6B7CzBLmgrLgg
Dpgju6O/m9AiGMc+r5r9lBxzPpV/qmDWm72Hh5UdgCg871tvCV4bTyNE8WUgXwi5
+6Z3+zLl0a78sKX0lsBvnezhXGg5CsPzj4SxF0ji06UNF/i3ay1z+e+PH9PiEy0O
Cul9FHmL0HOqFU0Z0tazS3bMRj6C1LvznDEvTRzTqU6msFw2JAwVK9y+Zn9i+Ahh
sBR4+04Epc9d6qdOT8+CQ0PqvacjmdhbjNh++R4QHjwKAnd6EW/V8yriQ5LG
-----END CERTIFICATE-----
