Certificate:
    Data:
        Version: 3 (0x2)
        Serial Number: 268435716 (0x10000104)
    Signature Algorithm: sha256WithRSAEncryption
        Issuer: C=DE, ST=Hessen, O=privacyidea, CN=CA001
        Validity
            Not Before: Jan  9 21:26:47 2019 GMT
            Not After : Jan  9 21:26:47 2020 GMT
        Subject: CN=selfservice,CN=user,O=realm1/emailAddress=meine
        Subject Public Key Info:
            Public Key Algorithm: rsaEncryption
                Public-Key: (2048 bit)
                Modulus:
                    00:cf:3c:d4:33:0e:12:c4:e6:da:cd:b6:56:a1:1c:
                    26:bb:26:1c:8a:4a:73:a8:58:8a:b6:1e:b3:8b:99:
                    d2:1d:07:c2:92:89:79:c0:69:d8:c8:df:28:61:98:
                    1e:b3:fe:ae:2b:bd:78:a9:f7:6e:47:dc:a3:a0:16:
                    8c:85:02:c1:4e:92:fd:72:6e:f0:c8:03:29:9b:b8:
                    00:6e:c0:83:95:c8:34:20:36:9c:b3:e5:e4:e6:76:
                    73:a3:1a:ad:40:96:e0:53:54:00:ec:76:79:9a:c6:
                    0d:7e:b6:bd:29:ec:83:f3:cb:89:a4:cb:6c:00:ba:
                    0c:c5:78:0f:ff:69:b8:94:f4:04:70:43:3f:d8:9e:
                    d7:a7:fb:5d:ce:75:8e:da:e7:c4:07:b1:9d:de:6f:
                    88:4b:b6:4d:9a:cf:f9:bc:fa:9f:cd:32:6d:f6:3a:
                    0b:0d:23:42:78:ec:97:42:bf:0e:4d:60:56:e1:d3:
                    02:f2:19:cb:84:57:90:e5:70:a1:a2:83:35:86:e2:
                    da:86:9f:f9:8a:c4:79:b3:52:28:da:cb:bb:34:ca:
                    d3:da:91:4a:cf:8d:76:a2:b2:6b:9b:f9:96:fd:09:
                    2a:da:11:23:4d:f0:cb:d6:b2:b1:0e:12:6c:9a:19:
                    65:98:87:ca:e4:ee:24:ce:44:ac:90:8f:9d:1b:c5:
                    2a:9d
                Exponent: 65537 (0x10001)
        X509v3 extensions:
            X509v3 Key Usage: 
                Digital Signature, Key Encipherment
            X509v3 Basic Constraints: 
                CA:FALSE
            Netscape Cert Type: 
                SSL Server
            Netscape Comment: 
                OpenSSL Generated Server Certificate
            X509v3 Subject Key Identifier: 
                4D:07:90:AD:FF:1D:0D:E7:1A:DD:D6:2E:FA:BA:34:CB:AA:1F:24:C6
            X509v3 Authority Key Identifier: 
                keyid:F4:A7:C0:CC:91:46:AF:64:F3:91:F2:27:F8:C8:B2:6F:8A:87:32:73
                DirName:/C=DE/ST=Hessen/O=privacyidea/CN=CA001
                serial:FB:C8:EB:AC:83:CD:12:07

            X509v3 Extended Key Usage: 
                TLS Web Server Authentication
    Signature Algorithm: sha256WithRSAEncryption
         19:86:70:ad:49:6d:f7:37:b2:61:33:12:62:76:8b:d9:b6:62:
         06:bf:88:5f:f5:72:2a:47:11:2b:0b:7a:7d:35:39:31:89:ec:
         77:4a:f3:b9:72:d5:42:54:ec:91:cb:db:f7:01:81:53:fd:2c:
         fe:c9:9f:ee:ed:a0:89:8f:db:af:52:63:65:a8:d3:7b:37:6b:
         7d:a6:9f:99:d3:17:ef:3f:bb:3b:fa:f3:53:03:9d:42:ef:d0:
         0f:22:3f:22:35:eb:42:d0:76:68:ee:08:7c:5b:35:13:0f:e6:
         10:31:5b:fa:e1:fd:05:e2:a1:d9:3a:e6:39:07:b7:bc:f4:81:
         9d:d5:07:93:0f:2c:0b:31:49:86:7e:85:4c:66:e2:74:2d:8b:
         f1:8e:43:fe:f0:b1:5a:2d:3b:19:ed:56:e9:28:21:5f:fd:5c:
         41:ad:c6:ed:bf:db:1b:e8:0b:37:8f:7f:e2:86:3f:d3:f5:c3:
         1e:7d:f4:95:d5:ab:69:3f:a9:a2:89:2d:74:de:d4:6b:08:3e:
         f4:55:f0:7b:89:86:48:f5:7b:bc:d5:91:39:a6:bf:8f:ae:06:
         11:d2:97:4a:6f:da:7e:32:74:74:37:87:45:6b:18:3e:67:aa:
         57:da:e5:3c:57:e9:19:1f:89:cc:e7:c6:05:66:ff:ee:15:00:
         1e:68:92:6c
-----BEGIN CERTIFICATE-----
MIIEDzCCAvegAwIBAgIEEAABBDANBgkqhkiG9w0BAQsFADBEMQswCQYDVQQGEwJE
RTEPMA0GA1UECAwGSGVzc2VuMRQwEgYDVQQKDAtwcml2YWN5aWRlYTEOMAwGA1UE
AwwFQ0EwMDEwHhcNMTkwMTA5MjEyNjQ3WhcNMjAwMTA5MjEyNjQ3WjA9MSUwIwYD
VQQDDBxzZWxmc2VydmljZSxDTj11c2VyLE89cmVhbG0xMRQwEgYJKoZIhvcNAQkB
FgVtZWluZTCCASIwDQYJKoZIhvcNAQEBBQADggEPADCCAQoCggEBAM881DMOEsTm
2s22VqEcJrsmHIpKc6hYirYes4uZ0h0HwpKJecBp2MjfKGGYHrP+riu9eKn3bkfc
o6AWjIUCwU6S/XJu8MgDKZu4AG7Ag5XINCA2nLPl5OZ2c6MarUCW4FNUAOx2eZrG
DX62vSnsg/PLiaTLbAC6DMV4D/9puJT0BHBDP9ie16f7Xc51jtrnxAexnd5viEu2
TZrP+bz6n80ybfY6Cw0jQnjsl0K/Dk1gVuHTAvIZy4RXkOVwoaKDNYbi2oaf+YrE
ebNSKNrLuzTK09qRSs+NdqKya5v5lv0JKtoRI03wy9aysQ4SbJoZZZiHyuTuJM5E
rJCPnRvFKp0CAwEAAaOCAQ4wggEKMAsGA1UdDwQEAwIFoDAJBgNVHRMEAjAAMBEG
CWCGSAGG+EIBAQQEAwIGQDAzBglghkgBhvhCAQ0EJhYkT3BlblNTTCBHZW5lcmF0
ZWQgU2VydmVyIENlcnRpZmljYXRlMB0GA1UdDgQWBBRNB5Ct/x0N5xrd1i76ujTL
qh8kxjB0BgNVHSMEbTBrgBT0p8DMkUavZPOR8if4yLJviocyc6FIpEYwRDELMAkG
A1UEBhMCREUxDzANBgNVBAgMBkhlc3NlbjEUMBIGA1UECgwLcHJpdmFjeWlkZWEx
DjAMBgNVBAMMBUNBMDAxggkA+8jrrIPNEgcwEwYDVR0lBAwwCgYIKwYBBQUHAwEw
DQYJKoZIhvcNAQELBQADggEBABmGcK1Jbfc3smEzEmJ2i9m2Yga/iF/1cipHESsL
en01OTGJ7HdK87ly1UJU7JHL2/cBgVP9LP7Jn+7toImP269SY2Wo03s3a32mn5nT
F+8/uzv681MDnULv0A8iPyI160LQdmjuCHxbNRMP5hAxW/rh/QXiodk65jkHt7z0
gZ3VB5MPLAsxSYZ+hUxm4nQti/GOQ/7wsVotOxntVukoIV/9XEGtxu2/2xvoCzeP
f+KGP9P1wx599JXVq2k/qaKJLXTe1GsIPvRV8HuJhkj1e7zVkTmmv4+uBhHSl0pv
2n4ydHQ3h0VrGD5nqlfa5TxX6RkficznxgVm/+4VAB5okmw=
-----END CERTIFICATE-----
