Certificate:
    Data:
        Version: 3 (0x2)
        Serial Number: 268435643 (0x100000bb)
    Signature Algorithm: sha1WithRSAEncryption
        Issuer: C=DE, ST=Hessen, O=privacyidea, CN=CA001
        Validity
            Not Before: Nov 26 22:21:51 2015 GMT
            Not After : Nov 25 22:21:51 2016 GMT
        Subject: CN=selfservice,CN=user,O=realm1/emailAddress=meine
        Subject Public Key Info:
            Public Key Algorithm: rsaEncryption
                Public-Key: (2048 bit)
                Modulus:
                    00:cf:3c:d4:33:0e:12:c4:e6:da:cd:b6:56:a1:1c:
                    26:bb:26:1c:8a:4a:73:a8:58:8a:b6:1e:b3:8b:99:
                    d2:1d:07:c2:92:89:79:c0:69:d8:c8:df:28:61:98:
                    1e:b3:fe:ae:2b:bd:78:a9:f7:6e:47:dc:a3:a0:16:
                    8c:85:02:c1:4e:92:fd:72:6e:f0:c8:03:29:9b:b8:
                    00:6e:c0:83:95:c8:34:20:36:9c:b3:e5:e4:e6:76:
                    73:a3:1a:ad:40:96:e0:53:54:00:ec:76:79:9a:c6:
                    0d:7e:b6:bd:29:ec:83:f3:cb:89:a4:cb:6c:00:ba:
                    0c:c5:78:0f:ff:69:b8:94:f4:04:70:43:3f:d8:9e:
                    d7:a7:fb:5d:ce:75:8e:da:e7:c4:07:b1:9d:de:6f:
                    88:4b:b6:4d:9a:cf:f9:bc:fa:9f:cd:32:6d:f6:3a:
                    0b:0d:23:42:78:ec:97:42:bf:0e:4d:60:56:e1:d3:
                    02:f2:19:cb:84:57:90:e5:70:a1:a2:83:35:86:e2:
                    da:86:9f:f9:8a:c4:79:b3:52:28:da:cb:bb:34:ca:
                    d3:da:91:4a:cf:8d:76:a2:b2:6b:9b:f9:96:fd:09:
                    2a:da:11:23:4d:f0:cb:d6:b2:b1:0e:12:6c:9a:19:
                    65:98:87:ca:e4:ee:24:ce:44:ac:90:8f:9d:1b:c5:
                    2a:9d
                Exponent: 65537 (0x10001)
        X509v3 extensions:
            X509v3 Key Usage: 
                Digital Signature, Key Encipherment
            X509v3 Basic Constraints: 
                CA:FALSE
            Netscape Cert Type: 
                SSL Server
            Netscape Comment: 
                OpenSSL Generated Server Certificate
            X509v3 Subject Key Identifier: 
                4D:07:90:AD:FF:1D:0D:E7:1A:DD:D6:2E:FA:BA:34:CB:AA:1F:24:C6
            X509v3 Authority Key Identifier: 
                keyid:F4:A7:C0:CC:91:46:AF:64:F3:91:F2:27:F8:C8:B2:6F:8A:87:32:73
                DirName:/C=DE/ST=Hessen/O=privacyidea/CN=CA001
                serial:FB:C8:EB:AC:83:CD:12:07

            X509v3 Extended Key Usage: 
                TLS Web Server Authentication
    Signature Algorithm: sha1WithRSAEncryption
         55:5a:77:5c:3b:ad:74:39:5d:a9:8e:8b:e7:e2:da:f7:47:b8:
         ad:ff:43:fc:3e:b8:45:a2:45:f8:0e:8e:07:08:5b:87:5e:92:
         00:fb:8b:c8:16:2d:99:53:d7:3d:1c:6b:54:45:92:97:2f:66:
         c4:29:d0:82:23:95:16:c7:7e:bb:44:95:ec:32:9f:ab:c3:82:
         47:2d:03:88:a1:57:37:45:e8:af:5d:5e:11:b7:33:5a:dd:68:
         69:68:22:1e:d7:8e:5c:c5:8a:86:d3:27:e4:73:11:18:fc:78:
         a7:67:ba:d1:be:2a:e4:91:14:6f:bd:55:a8:f8:32:97:a5:86:
         39:78:2b:9f:58:f4:69:e8:bf:bc:d0:18:bf:f9:06:c0:29:55:
         94:74:04:b3:90:b9:50:0a:3c:6d:ff:60:30:fa:03:1d:02:b9:
         ae:d3:f8:6b:0e:20:f4:69:1b:ed:f2:bb:e3:af:93:b5:a6:b9:
         b2:bb:0b:55:17:b5:03:75:99:7d:1a:38:b2:26:35:14:22:9f:
         c5:33:a2:93:c7:81:a7:07:35:97:1f:47:b9:18:9d:3a:b4:d5:
         e7:1c:7d:f4:6f:f7:ce:ee:2e:81:66:00:3f:76:e7:44:fd:67:
         f2:aa:61:9e:5a:de:6e:e8:76:11:92:d9:87:e1:30:62:ff:a7:
         ae:8d:82:1b
-----BEGIN CERTIFICATE-----
MIIEDzCCAvegAwIBAgIEEAAAuzANBgkqhkiG9w0BAQUFADBEMQswCQYDVQQGEwJE
RTEPMA0GA1UECAwGSGVzc2VuMRQwEgYDVQQKDAtwcml2YWN5aWRlYTEOMAwGA1UE
AwwFQ0EwMDEwHhcNMTUxMTI2MjIyMTUxWhcNMTYxMTI1MjIyMTUxWjA9MSUwIwYD
VQQDExxzZWxmc2VydmljZSxDTj11c2VyLE89cmVhbG0xMRQwEgYJKoZIhvcNAQkB
FgVtZWluZTCCASIwDQYJKoZIhvcNAQEBBQADggEPADCCAQoCggEBAM881DMOEsTm
2s22VqEcJrsmHIpKc6hYirYes4uZ0h0HwpKJecBp2MjfKGGYHrP+riu9eKn3bkfc
o6AWjIUCwU6S/XJu8MgDKZu4AG7Ag5XINCA2nLPl5OZ2c6MarUCW4FNUAOx2eZrG
DX62vSnsg/PLiaTLbAC6DMV4D/9puJT0BHBDP9ie16f7Xc51jtrnxAexnd5viEu2
TZrP+bz6n80ybfY6Cw0jQnjsl0K/Dk1gVuHTAvIZy4RXkOVwoaKDNYbi2oaf+YrE
ebNSKNrLuzTK09qRSs+NdqKya5v5lv0JKtoRI03wy9aysQ4SbJoZZZiHyuTuJM5E
rJCPnRvFKp0CAwEAAaOCAQ4wggEKMAsGA1UdDwQEAwIFoDAJBgNVHRMEAjAAMBEG
CWCGSAGG+EIBAQQEAwIGQDAzBglghkgBhvhCAQ0EJhYkT3BlblNTTCBHZW5lcmF0
ZWQgU2VydmVyIENlcnRpZmljYXRlMB0GA1UdDgQWBBRNB5Ct/x0N5xrd1i76ujTL
qh8kxjB0BgNVHSMEbTBrgBT0p8DMkUavZPOR8if4yLJviocyc6FIpEYwRDELMAkG
A1UEBhMCREUxDzANBgNVBAgMBkhlc3NlbjEUMBIGA1UECgwLcHJpdmFjeWlkZWEx
DjAMBgNVBAMMBUNBMDAxggkA+8jrrIPNEgcwEwYDVR0lBAwwCgYIKwYBBQUHAwEw
DQYJKoZIhvcNAQEFBQADggEBAFVad1w7rXQ5XamOi+fi2vdHuK3/Q/w+uEWiRfgO
jgcIW4dekgD7i8gWLZlT1z0ca1RFkpcvZsQp0IIjlRbHfrtElewyn6vDgkctA4ih
VzdF6K9dXhG3M1rdaGloIh7XjlzFiobTJ+RzERj8eKdnutG+KuSRFG+9Vaj4Mpel
hjl4K59Y9Gnov7zQGL/5BsApVZR0BLOQuVAKPG3/YDD6Ax0Cua7T+GsOIPRpG+3y
u+Ovk7WmubK7C1UXtQN1mX0aOLImNRQin8UzopPHgacHNZcfR7kYnTq01eccffRv
987uLoFmAD9250T9Z/KqYZ5a3m7odhGS2YfhMGL/p66Nghs=
-----END CERTIFICATE-----
