Certificate:
    Data:
        Version: 3 (0x2)
        Serial Number: 268435724 (0x1000010c)
    Signature Algorithm: sha256WithRSAEncryption
        Issuer: C=DE, ST=Hessen, O=privacyidea, CN=CA001
        Validity
            Not Before: Jan  9 23:05:42 2019 GMT
            Not After : Jan  9 23:05:42 2020 GMT
        Subject: OU=realm1, CN=cornelius/emailAddress=user@localhost.localdomain
        Subject Public Key Info:
            Public Key Algorithm: rsaEncryption
                Public-Key: (2048 bit)
                Modulus:
                    00:d5:8b:26:af:e3:51:b1:b2:68:08:d3:64:86:ff:
                    f9:0e:a8:03:96:f0:01:66:81:a3:ef:2c:43:50:bc:
                    6e:e2:74:75:1c:0d:c2:4e:23:9a:5f:0c:b9:8c:66:
                    e0:19:8c:3b:68:47:2e:5c:52:bd:8b:7b:7c:a1:0b:
                    bf:0d:ae:94:be:54:f7:fb:3e:85:82:66:5b:25:8f:
                    dd:35:71:c7:79:6a:2b:41:dd:33:1d:8b:52:53:31:
                    95:61:2d:c3:a5:eb:81:10:bf:90:fb:18:0d:bb:25:
                    48:17:da:17:d2:1a:a2:b7:cd:2f:10:08:04:d5:69:
                    be:b3:71:97:7a:b2:51:49:ee:5d:00:fe:88:27:df:
                    49:a8:dc:d9:42:8d:52:f1:4d:aa:86:b7:01:84:b3:
                    fa:14:1c:34:48:e8:4b:e0:4a:3b:57:07:92:7b:5d:
                    1b:5f:58:69:27:a8:b6:41:f6:1b:51:d7:09:0e:d7:
                    0d:7d:2c:0e:63:6e:78:1b:a2:5d:9a:cd:47:a3:2f:
                    b6:0e:c0:57:0f:23:15:d0:b4:62:47:de:f1:e4:06:
                    f5:58:3f:99:a6:25:9d:b2:5a:62:40:f1:99:03:03:
                    af:59:ca:08:71:4f:9d:f4:86:2b:72:55:23:69:53:
                    ad:28:db:32:a6:05:c8:99:30:ef:b3:be:36:b4:3c:
                    e0:29
                Exponent: 65537 (0x10001)
        X509v3 extensions:
            X509v3 Key Usage: 
                Digital Signature, Key Encipherment
            X509v3 Basic Constraints: 
                CA:FALSE
            Netscape Cert Type: 
                SSL Server
            Netscape Comment: 
                OpenSSL Generated Server Certificate
            X509v3 Subject Key Identifier: 
                86:91:EB:33:80:CC:18:77:E4:B4:4D:76:C7:8D:7D:0F:91:3B:38:4C
            X509v3 Authority Key Identifier: 
                keyid:F4:A7:C0:CC:91:46:AF:64:F3:91:F2:27:F8:C8:B2:6F:8A:87:32:73
                DirName:/C=DE/ST=Hessen/O=privacyidea/CN=CA001
                serial:FB:C8:EB:AC:83:CD:12:07

            X509v3 Extended Key Usage: 
                TLS Web Server Authentication
    Signature Algorithm: sha256WithRSAEncryption
         7c:a7:ba:56:51:24:24:f3:d2:06:cb:a7:e7:9f:82:a9:65:bd:
         50:f2:e9:1c:e9:af:2c:30:10:2b:b5:6c:bc:01:85:c6:5c:37:
         99:b0:9b:65:cc:de:4a:47:22:ef:ff:dd:68:41:c1:70:6d:93:
         71:a4:3f:82:e9:60:27:f9:83:1f:35:bd:8b:a8:d0:e4:bb:11:
         db:0a:b8:9d:39:ad:c2:ab:14:be:67:cd:4d:67:29:43:56:e8:
         83:24:21:70:91:6a:84:2e:37:51:e4:3a:37:79:32:11:18:6f:
         0f:7b:37:15:0b:b1:0b:93:5e:98:d5:4a:39:63:e4:03:f5:32:
         56:db:cd:57:11:2e:80:a6:fb:7d:c1:80:e4:20:53:57:89:99:
         f0:c1:dc:1d:ed:68:f6:71:46:cb:66:e2:60:26:4b:b3:c8:f3:
         63:f7:11:31:23:5d:e3:f4:76:18:bc:5b:f2:1b:d7:90:ff:56:
         1e:c9:86:de:e7:38:ab:5e:37:5e:fc:37:d8:9e:37:37:e4:82:
         11:9f:63:00:e6:f1:bd:20:a1:58:11:a1:d4:ae:06:b4:72:c0:
         49:71:06:c0:84:76:ad:aa:b0:a3:3b:92:24:02:ef:d5:f0:19:
         f1:21:79:20:0e:9d:32:45:0e:27:75:45:fe:db:f2:37:b9:dd:
         7a:67:8e:f3
-----BEGIN CERTIFICATE-----
MIIEIjCCAwqgAwIBAgIEEAABDDANBgkqhkiG9w0BAQsFADBEMQswCQYDVQQGEwJE
RTEPMA0GA1UECAwGSGVzc2VuMRQwEgYDVQQKDAtwcml2YWN5aWRlYTEOMAwGA1UE
AwwFQ0EwMDEwHhcNMTkwMTA5MjMwNTQyWhcNMjAwMTA5MjMwNTQyWjBQMQ8wDQYD
VQQLDAZyZWFsbTExEjAQBgNVBAMMCWNvcm5lbGl1czEpMCcGCSqGSIb3DQEJARYa
dXNlckBsb2NhbGhvc3QubG9jYWxkb21haW4wggEiMA0GCSqGSIb3DQEBAQUAA4IB
DwAwggEKAoIBAQDViyav41GxsmgI02SG//kOqAOW8AFmgaPvLENQvG7idHUcDcJO
I5pfDLmMZuAZjDtoRy5cUr2Le3yhC78NrpS+VPf7PoWCZlslj901ccd5aitB3TMd
i1JTMZVhLcOl64EQv5D7GA27JUgX2hfSGqK3zS8QCATVab6zcZd6slFJ7l0A/ogn
30mo3NlCjVLxTaqGtwGEs/oUHDRI6EvgSjtXB5J7XRtfWGknqLZB9htR1wkO1w19
LA5jbngbol2azUejL7YOwFcPIxXQtGJH3vHkBvVYP5mmJZ2yWmJA8ZkDA69Zyghx
T530hityVSNpU60o2zKmBciZMO+zvja0POApAgMBAAGjggEOMIIBCjALBgNVHQ8E
BAMCBaAwCQYDVR0TBAIwADARBglghkgBhvhCAQEEBAMCBkAwMwYJYIZIAYb4QgEN
BCYWJE9wZW5TU0wgR2VuZXJhdGVkIFNlcnZlciBDZXJ0aWZpY2F0ZTAdBgNVHQ4E
FgQUhpHrM4DMGHfktE12x419D5E7OEwwdAYDVR0jBG0wa4AU9KfAzJFGr2TzkfIn
+Miyb4qHMnOhSKRGMEQxCzAJBgNVBAYTAkRFMQ8wDQYDVQQIDAZIZXNzZW4xFDAS
BgNVBAoMC3ByaXZhY3lpZGVhMQ4wDAYDVQQDDAVDQTAwMYIJAPvI66yDzRIHMBMG
A1UdJQQMMAoGCCsGAQUFBwMBMA0GCSqGSIb3DQEBCwUAA4IBAQB8p7pWUSQk89IG
y6fnn4KpZb1Q8ukc6a8sMBArtWy8AYXGXDeZsJtlzN5KRyLv/91oQcFwbZNxpD+C
6WAn+YMfNb2LqNDkuxHbCridOa3CqxS+Z81NZylDVuiDJCFwkWqELjdR5Do3eTIR
GG8PezcVC7ELk16Y1Uo5Y+QD9TJW281XES6Apvt9wYDkIFNXiZnwwdwd7Wj2cUbL
ZuJgJkuzyPNj9xExI13j9HYYvFvyG9eQ/1YeyYbe5zirXjde/DfYnjc35IIRn2MA
5vG9IKFYEaHUrga0csBJcQbAhHatqrCjO5IkAu/V8BnxIXkgDp0yRQ4ndUX+2/I3
ud16Z47z
-----END CERTIFICATE-----
