Certificate:
    Data:
        Version: 3 (0x2)
        Serial Number: 268435617 (0x100000a1)
    Signature Algorithm: sha1WithRSAEncryption
        Issuer: C=DE, ST=Hessen, O=privacyidea, CN=CA001
        Validity
            Not Before: Sep 25 07:10:51 2015 GMT
            Not After : Sep 24 07:10:51 2016 GMT
        Subject: C=DE, ST=Hessen, O=privacyidea, CN=requester.localdomain
        Subject Public Key Info:
            Public Key Algorithm: rsaEncryption
                Public-Key: (2048 bit)
                Modulus:
                    00:cd:be:14:4f:fa:ce:01:3f:42:22:1b:1d:9c:af:
                    dd:92:d2:7f:db:6c:b7:3e:39:43:43:6b:13:03:f1:
                    05:f4:07:74:bc:76:69:28:0b:af:19:8e:d7:fc:e3:
                    cd:c6:58:f2:ca:7f:08:6d:53:fc:07:02:44:24:c6:
                    b4:34:4c:8c:04:fe:33:0e:40:e2:20:ba:02:73:5a:
                    f7:f5:4f:63:6e:cc:c6:b6:df:54:1d:37:39:7d:51:
                    36:26:5f:bd:dc:3f:a8:8b:6b:a2:ae:b6:9d:d6:21:
                    e7:df:41:b8:7a:28:2a:68:48:ca:a8:2d:ed:e1:e9:
                    46:5e:5a:72:6d:b4:84:38:87:91:fd:94:11:0b:28:
                    84:c6:c2:2f:2a:fb:01:f9:36:7a:09:75:d1:33:88:
                    3c:73:41:5b:c8:bf:94:89:70:a1:f0:c0:b9:2e:50:
                    53:1e:b1:17:64:69:f4:2d:81:e0:a9:0d:0e:32:e9:
                    ba:55:8a:85:f1:1b:6f:49:79:b4:7f:88:c3:0d:3e:
                    54:88:9b:3d:1f:38:8c:04:f3:ee:6a:63:2b:f5:c6:
                    db:b4:83:aa:c4:78:41:3a:7d:4b:e1:c8:3e:71:ca:
                    1b:61:59:ea:c6:c4:ca:32:5e:c9:e9:bf:12:29:e6:
                    c6:c3:63:fe:a0:55:da:7a:f1:60:98:4d:26:ed:fa:
                    70:2d
                Exponent: 65537 (0x10001)
        X509v3 extensions:
            X509v3 Key Usage: 
                Digital Signature, Key Encipherment
            X509v3 Basic Constraints: 
                CA:FALSE
            Netscape Cert Type: 
                SSL Server
            Netscape Comment: 
                OpenSSL Generated Server Certificate
            X509v3 Subject Key Identifier: 
                53:3F:ED:5D:09:07:B3:65:7B:AB:45:C9:24:5B:09:77:80:0A:96:ED
            X509v3 Authority Key Identifier: 
                keyid:F4:A7:C0:CC:91:46:AF:64:F3:91:F2:27:F8:C8:B2:6F:8A:87:32:73
                DirName:/C=DE/ST=Hessen/O=privacyidea/CN=CA001
                serial:FB:C8:EB:AC:83:CD:12:07

            X509v3 Extended Key Usage: 
                TLS Web Server Authentication
    Signature Algorithm: sha1WithRSAEncryption
         13:c5:6b:1a:93:0f:9e:a5:9d:82:e7:05:04:f6:7a:d1:d6:99:
         51:d7:3e:44:7a:6e:92:7e:cd:9b:ef:38:b2:48:25:f2:fd:56:
         53:0e:6b:ca:6f:4d:d7:43:72:dc:c9:e5:54:71:41:6e:48:8d:
         49:0f:62:d1:f1:98:6f:50:48:3a:0f:3f:b1:e1:a3:1a:87:50:
         4f:01:83:53:5b:5d:ea:ef:91:23:01:ad:04:78:20:34:6c:92:
         18:de:6c:e5:27:7a:54:4d:6e:1a:c4:89:39:cf:62:35:a3:81:
         84:ee:9f:89:a2:50:ee:2c:a1:a4:fd:fb:f9:40:ae:74:3f:06:
         33:77:36:e0:b1:df:3a:db:1a:59:fa:7f:6e:0d:86:0b:39:9f:
         57:9d:3a:e9:14:56:2d:f2:72:3d:0a:97:99:f9:55:13:1d:7e:
         b5:94:2e:28:18:f5:c3:57:5f:7e:a6:33:c9:08:c5:84:a0:3a:
         b6:7c:a1:30:7c:88:3b:56:a7:25:35:e1:44:86:53:c4:3b:cc:
         a9:55:4b:b7:c3:77:b3:85:62:94:bd:d7:38:4f:79:d8:88:8c:
         cc:0a:57:5c:c6:e4:6b:46:fa:e7:79:67:82:8a:e6:91:b7:fa:
         0d:39:06:56:dc:97:ae:a5:b9:8f:c6:7d:26:d5:87:4a:ea:6a:
         00:ec:3b:11
-----BEGIN CERTIFICATE-----
MIIEJjCCAw6gAwIBAgIEEAAAoTANBgkqhkiG9w0BAQUFADBEMQswCQYDVQQGEwJE
RTEPMA0GA1UECAwGSGVzc2VuMRQwEgYDVQQKDAtwcml2YWN5aWRlYTEOMAwGA1UE
AwwFQ0EwMDEwHhcNMTUwOTI1MDcxMDUxWhcNMTYwOTI0MDcxMDUxWjBUMQswCQYD
VQQGEwJERTEPMA0GA1UECAwGSGVzc2VuMRQwEgYDVQQKDAtwcml2YWN5aWRlYTEe
MBwGA1UEAwwVcmVxdWVzdGVyLmxvY2FsZG9tYWluMIIBIjANBgkqhkiG9w0BAQEF
AAOCAQ8AMIIBCgKCAQEAzb4UT/rOAT9CIhsdnK/dktJ/22y3PjlDQ2sTA/EF9Ad0
vHZpKAuvGY7X/OPNxljyyn8IbVP8BwJEJMa0NEyMBP4zDkDiILoCc1r39U9jbszG
tt9UHTc5fVE2Jl+93D+oi2uirrad1iHn30G4eigqaEjKqC3t4elGXlpybbSEOIeR
/ZQRCyiExsIvKvsB+TZ6CXXRM4g8c0FbyL+UiXCh8MC5LlBTHrEXZGn0LYHgqQ0O
Mum6VYqF8RtvSXm0f4jDDT5UiJs9HziMBPPuamMr9cbbtIOqxHhBOn1L4cg+ccob
YVnqxsTKMl7J6b8SKebGw2P+oFXaevFgmE0m7fpwLQIDAQABo4IBDjCCAQowCwYD
VR0PBAQDAgWgMAkGA1UdEwQCMAAwEQYJYIZIAYb4QgEBBAQDAgZAMDMGCWCGSAGG
+EIBDQQmFiRPcGVuU1NMIEdlbmVyYXRlZCBTZXJ2ZXIgQ2VydGlmaWNhdGUwHQYD
VR0OBBYEFFM/7V0JB7Nle6tFySRbCXeACpbtMHQGA1UdIwRtMGuAFPSnwMyRRq9k
85HyJ/jIsm+KhzJzoUikRjBEMQswCQYDVQQGEwJERTEPMA0GA1UECAwGSGVzc2Vu
MRQwEgYDVQQKDAtwcml2YWN5aWRlYTEOMAwGA1UEAwwFQ0EwMDGCCQD7yOusg80S
BzATBgNVHSUEDDAKBggrBgEFBQcDATANBgkqhkiG9w0BAQUFAAOCAQEAE8VrGpMP
nqWdgucFBPZ60daZUdc+RHpukn7Nm+84skgl8v1WUw5rym9N10Ny3MnlVHFBbkiN
SQ9i0fGYb1BIOg8/seGjGodQTwGDU1td6u+RIwGtBHggNGySGN5s5Sd6VE1uGsSJ
Oc9iNaOBhO6fiaJQ7iyhpP37+UCudD8GM3c24LHfOtsaWfp/bg2GCzmfV5066RRW
LfJyPQqXmflVEx1+tZQuKBj1w1dffqYzyQjFhKA6tnyhMHyIO1anJTXhRIZTxDvM
qVVLt8N3s4VilL3XOE952IiMzApXXMbka0b653lngormkbf6DTkGVtyXrqW5j8Z9
JtWHSupqAOw7EQ==
-----END CERTIFICATE-----
