Certificate:
    Data:
        Version: 3 (0x2)
        Serial Number: 268435670 (0x100000d6)
    Signature Algorithm: sha1WithRSAEncryption
        Issuer: C=DE, ST=Hessen, O=privacyidea, CN=CA001
        Validity
            Not Before: Apr 29 10:54:32 2016 GMT
            Not After : Apr 29 10:54:32 2017 GMT
        Subject: OU=local, CN=corny/emailAddress=corny@cornelinux.de
        Subject Public Key Info:
            Public Key Algorithm: rsaEncryption
                Public-Key: (2048 bit)
                Modulus:
                    00:c4:9e:1f:da:cd:93:56:ac:46:97:a9:87:c1:96:
                    12:4d:a4:6b:a5:4a:6d:b1:f3:27:5a:56:6f:64:53:
                    bf:df:c1:c4:5d:f5:77:47:11:2c:a9:f0:d2:2b:6b:
                    85:98:e9:a9:13:84:f0:6c:b3:56:d6:c3:d4:03:09:
                    d4:d5:4f:c3:62:f2:46:ad:f0:ef:da:05:e9:41:91:
                    59:2e:4c:3c:62:71:6a:f5:03:fb:92:4e:bb:cd:8f:
                    73:50:00:99:c4:0c:8a:86:66:e3:6c:5c:4e:96:59:
                    50:f7:a5:92:3c:88:e5:b5:97:6e:28:8f:c2:76:11:
                    d5:36:5d:11:d3:2d:b5:83:a0:69:53:3f:6e:a7:77:
                    65:02:a1:2e:80:96:96:f1:b2:85:14:ef:05:bf:fe:
                    9f:c9:a7:ff:83:68:90:6e:14:10:de:da:65:ab:2b:
                    50:37:7b:c5:66:b2:95:08:6c:c6:ad:23:54:72:1b:
                    90:8a:9c:df:6b:d0:f4:85:0d:b1:6a:e4:46:21:a4:
                    49:22:3f:f8:bf:3a:ad:5c:22:ca:76:f3:98:78:f3:
                    c6:1a:0a:cd:ba:f9:37:0b:60:ab:81:79:e1:8c:8c:
                    b4:8d:ad:be:4e:74:76:3c:ba:ef:17:2e:a6:03:b1:
                    92:c9:c3:09:47:b9:3f:05:f5:7c:68:8c:26:7c:42:
                    ca:d7
                Exponent: 65537 (0x10001)
        X509v3 extensions:
            X509v3 Key Usage: 
                Digital Signature, Key Encipherment
            X509v3 Basic Constraints: 
                CA:FALSE
            Netscape Cert Type: 
                SSL Server
            Netscape Comment: 
                OpenSSL Generated Server Certificate
            X509v3 Subject Key Identifier: 
                DB:18:47:09:7F:3A:FD:0A:83:42:18:0A:AB:08:99:6A:8F:27:4C:1B
            X509v3 Authority Key Identifier: 
                keyid:F4:A7:C0:CC:91:46:AF:64:F3:91:F2:27:F8:C8:B2:6F:8A:87:32:73
                DirName:/C=DE/ST=Hessen/O=privacyidea/CN=CA001
                serial:FB:C8:EB:AC:83:CD:12:07

            X509v3 Extended Key Usage: 
                TLS Web Server Authentication
    Signature Algorithm: sha1WithRSAEncryption
         9a:90:16:6b:23:fa:d3:66:cf:58:37:17:35:a8:13:ed:7a:3e:
         72:d3:5f:26:3e:fd:f0:3a:e2:9d:ed:cd:d4:96:db:74:20:27:
         2f:af:49:fa:6c:3d:a1:75:e6:c7:8d:d9:56:0e:df:aa:22:54:
         00:80:ff:37:6f:b7:98:57:2d:c5:5b:5e:14:60:42:04:45:7d:
         4f:59:34:9c:d7:23:b7:20:a8:a4:f3:5d:cf:fd:b1:69:35:a8:
         39:e0:5a:eb:71:e6:9d:71:3e:b4:19:49:ce:c4:87:94:b4:e8:
         5d:71:76:16:f2:0f:e4:69:81:d5:a3:4c:f7:f8:60:d8:a3:1d:
         0e:20:b5:1a:63:2a:2e:7e:fe:50:42:93:1a:5f:f5:22:40:20:
         1a:59:df:c9:f9:99:28:79:cf:e4:90:3c:35:09:f9:6d:9a:a3:
         83:23:ec:6c:4a:28:aa:75:66:ab:53:23:a7:dd:2e:7b:ec:a8:
         aa:5f:66:89:75:a4:ca:5a:8a:ca:c7:e8:60:eb:bc:e8:da:c9:
         d2:42:3e:7b:bc:13:19:d4:a5:32:31:9b:89:e5:a6:5e:e2:ff:
         69:8f:15:af:18:88:e6:e2:1d:5b:30:50:e9:b0:7b:f8:b2:d6:
         2d:1b:bf:8b:0f:1e:53:34:6b:0d:d8:ef:f8:ed:5a:e9:db:6f:
         21:28:24:33
-----BEGIN CERTIFICATE-----
MIIEFjCCAv6gAwIBAgIEEAAA1jANBgkqhkiG9w0BAQUFADBEMQswCQYDVQQGEwJE
RTEPMA0GA1UECAwGSGVzc2VuMRQwEgYDVQQKDAtwcml2YWN5aWRlYTEOMAwGA1UE
AwwFQ0EwMDEwHhcNMTYwNDI5MTA1NDMyWhcNMTcwNDI5MTA1NDMyWjBEMQ4wDAYD
VQQLEwVsb2NhbDEOMAwGA1UEAxMFY29ybnkxIjAgBgkqhkiG9w0BCQEWE2Nvcm55
QGNvcm5lbGludXguZGUwggEiMA0GCSqGSIb3DQEBAQUAA4IBDwAwggEKAoIBAQDE
nh/azZNWrEaXqYfBlhJNpGulSm2x8ydaVm9kU7/fwcRd9XdHESyp8NIra4WY6akT
hPBss1bWw9QDCdTVT8Ni8kat8O/aBelBkVkuTDxicWr1A/uSTrvNj3NQAJnEDIqG
ZuNsXE6WWVD3pZI8iOW1l24oj8J2EdU2XRHTLbWDoGlTP26nd2UCoS6AlpbxsoUU
7wW//p/Jp/+DaJBuFBDe2mWrK1A3e8VmspUIbMatI1RyG5CKnN9r0PSFDbFq5EYh
pEkiP/i/Oq1cIsp285h488YaCs26+TcLYKuBeeGMjLSNrb5OdHY8uu8XLqYDsZLJ
wwlHuT8F9XxojCZ8QsrXAgMBAAGjggEOMIIBCjALBgNVHQ8EBAMCBaAwCQYDVR0T
BAIwADARBglghkgBhvhCAQEEBAMCBkAwMwYJYIZIAYb4QgENBCYWJE9wZW5TU0wg
R2VuZXJhdGVkIFNlcnZlciBDZXJ0aWZpY2F0ZTAdBgNVHQ4EFgQU2xhHCX86/QqD
QhgKqwiZao8nTBswdAYDVR0jBG0wa4AU9KfAzJFGr2TzkfIn+Miyb4qHMnOhSKRG
MEQxCzAJBgNVBAYTAkRFMQ8wDQYDVQQIDAZIZXNzZW4xFDASBgNVBAoMC3ByaXZh
Y3lpZGVhMQ4wDAYDVQQDDAVDQTAwMYIJAPvI66yDzRIHMBMGA1UdJQQMMAoGCCsG
AQUFBwMBMA0GCSqGSIb3DQEBBQUAA4IBAQCakBZrI/rTZs9YNxc1qBPtej5y018m
Pv3wOuKd7c3Ultt0ICcvr0n6bD2hdebHjdlWDt+qIlQAgP83b7eYVy3FW14UYEIE
RX1PWTSc1yO3IKik813P/bFpNag54FrrceadcT60GUnOxIeUtOhdcXYW8g/kaYHV
o0z3+GDYox0OILUaYyoufv5QQpMaX/UiQCAaWd/J+Zkoec/kkDw1CfltmqODI+xs
SiiqdWarUyOn3S577KiqX2aJdaTKWorKx+hg67zo2snSQj57vBMZ1KUyMZuJ5aZe
4v9pjxWvGIjm4h1bMFDpsHv4stYtG7+LDx5TNGsN2O/47Vrp228hKCQz
-----END CERTIFICATE-----
