Certificate:
    Data:
        Version: 3 (0x2)
        Serial Number: 268435670 (0x100000d6)
        Signature Algorithm: sha256WithRSAEncryption
        Issuer: C=DE, ST=Hessen, O=privacyidea, CN=CA001
        Validity
            Not Before: Nov 17 10:22:56 2019 GMT
            Not After : Nov 16 10:22:56 2020 GMT
        Subject: C=DE, ST=Hessen, O=privacyidea, CN=requester.localdomain
        Subject Public Key Info:
            Public Key Algorithm: rsaEncryption
                RSA Public-Key: (2048 bit)
                Modulus:
                    00:cd:be:14:4f:fa:ce:01:3f:42:22:1b:1d:9c:af:
                    dd:92:d2:7f:db:6c:b7:3e:39:43:43:6b:13:03:f1:
                    05:f4:07:74:bc:76:69:28:0b:af:19:8e:d7:fc:e3:
                    cd:c6:58:f2:ca:7f:08:6d:53:fc:07:02:44:24:c6:
                    b4:34:4c:8c:04:fe:33:0e:40:e2:20:ba:02:73:5a:
                    f7:f5:4f:63:6e:cc:c6:b6:df:54:1d:37:39:7d:51:
                    36:26:5f:bd:dc:3f:a8:8b:6b:a2:ae:b6:9d:d6:21:
                    e7:df:41:b8:7a:28:2a:68:48:ca:a8:2d:ed:e1:e9:
                    46:5e:5a:72:6d:b4:84:38:87:91:fd:94:11:0b:28:
                    84:c6:c2:2f:2a:fb:01:f9:36:7a:09:75:d1:33:88:
                    3c:73:41:5b:c8:bf:94:89:70:a1:f0:c0:b9:2e:50:
                    53:1e:b1:17:64:69:f4:2d:81:e0:a9:0d:0e:32:e9:
                    ba:55:8a:85:f1:1b:6f:49:79:b4:7f:88:c3:0d:3e:
                    54:88:9b:3d:1f:38:8c:04:f3:ee:6a:63:2b:f5:c6:
                    db:b4:83:aa:c4:78:41:3a:7d:4b:e1:c8:3e:71:ca:
                    1b:61:59:ea:c6:c4:ca:32:5e:c9:e9:bf:12:29:e6:
                    c6:c3:63:fe:a0:55:da:7a:f1:60:98:4d:26:ed:fa:
                    70:2d
                Exponent: 65537 (0x10001)
        X509v3 extensions:
            X509v3 Key Usage: 
                Digital Signature, Key Encipherment
            X509v3 Basic Constraints: 
                CA:FALSE
            Netscape Cert Type: 
                SSL Server
            Netscape Comment: 
                OpenSSL Generated Server Certificate
            X509v3 Subject Key Identifier: 
                53:3F:ED:5D:09:07:B3:65:7B:AB:45:C9:24:5B:09:77:80:0A:96:ED
            X509v3 Authority Key Identifier: 
                keyid:F4:A7:C0:CC:91:46:AF:64:F3:91:F2:27:F8:C8:B2:6F:8A:87:32:73
                DirName:/C=DE/ST=Hessen/O=privacyidea/CN=CA001
                serial:FB:C8:EB:AC:83:CD:12:07

            X509v3 Extended Key Usage: 
                TLS Web Server Authentication
    Signature Algorithm: sha256WithRSAEncryption
         36:3e:e6:49:9a:f1:7f:52:9e:e9:15:8c:3f:97:c1:78:ae:b3:
         5a:f0:a1:06:d4:82:67:62:cf:7d:49:48:82:59:8b:a8:24:26:
         e2:cf:d0:bc:2a:96:13:dd:32:77:79:3b:08:79:fb:83:91:98:
         41:77:7a:7f:ba:2c:3b:e7:fe:73:f4:19:cd:9e:23:9c:ea:43:
         3d:60:6a:52:ed:f2:91:4c:32:af:e2:4d:37:d6:c9:f2:58:96:
         5f:42:6b:fe:82:e8:fd:0a:32:68:25:9c:a9:a0:48:08:a6:d0:
         ce:9e:6e:fc:a0:aa:71:3d:80:35:4b:fa:a2:0c:a6:ef:ee:e2:
         5d:c0:4e:61:37:be:90:25:2d:eb:aa:c6:ef:7f:51:9a:62:80:
         9f:17:5b:9b:28:9f:73:f9:4f:45:1d:97:89:90:a3:8a:28:c4:
         02:c7:93:88:59:67:14:c4:6c:38:b2:95:3c:5f:62:a5:42:37:
         bc:77:56:da:2c:e6:bb:5d:c8:7e:76:1e:cb:75:0e:cc:cc:f6:
         8c:be:f8:b5:1d:4a:29:e5:74:fe:0a:01:a9:79:00:58:c8:55:
         6e:f9:44:09:c6:bf:d9:d5:37:49:64:1f:d8:12:60:dd:77:25:
         54:c6:53:dc:66:d0:fa:2f:94:67:84:89:7c:4c:54:4f:b5:e1:
         96:bf:9c:ee
-----BEGIN CERTIFICATE-----
MIIEJjCCAw6gAwIBAgIEEAAA1jANBgkqhkiG9w0BAQsFADBEMQswCQYDVQQGEwJE
RTEPMA0GA1UECAwGSGVzc2VuMRQwEgYDVQQKDAtwcml2YWN5aWRlYTEOMAwGA1UE
AwwFQ0EwMDEwHhcNMTkxMTE3MTAyMjU2WhcNMjAxMTE2MTAyMjU2WjBUMQswCQYD
VQQGEwJERTEPMA0GA1UECAwGSGVzc2VuMRQwEgYDVQQKDAtwcml2YWN5aWRlYTEe
MBwGA1UEAwwVcmVxdWVzdGVyLmxvY2FsZG9tYWluMIIBIjANBgkqhkiG9w0BAQEF
AAOCAQ8AMIIBCgKCAQEAzb4UT/rOAT9CIhsdnK/dktJ/22y3PjlDQ2sTA/EF9Ad0
vHZpKAuvGY7X/OPNxljyyn8IbVP8BwJEJMa0NEyMBP4zDkDiILoCc1r39U9jbszG
tt9UHTc5fVE2Jl+93D+oi2uirrad1iHn30G4eigqaEjKqC3t4elGXlpybbSEOIeR
/ZQRCyiExsIvKvsB+TZ6CXXRM4g8c0FbyL+UiXCh8MC5LlBTHrEXZGn0LYHgqQ0O
Mum6VYqF8RtvSXm0f4jDDT5UiJs9HziMBPPuamMr9cbbtIOqxHhBOn1L4cg+ccob
YVnqxsTKMl7J6b8SKebGw2P+oFXaevFgmE0m7fpwLQIDAQABo4IBDjCCAQowCwYD
VR0PBAQDAgWgMAkGA1UdEwQCMAAwEQYJYIZIAYb4QgEBBAQDAgZAMDMGCWCGSAGG
+EIBDQQmFiRPcGVuU1NMIEdlbmVyYXRlZCBTZXJ2ZXIgQ2VydGlmaWNhdGUwHQYD
VR0OBBYEFFM/7V0JB7Nle6tFySRbCXeACpbtMHQGA1UdIwRtMGuAFPSnwMyRRq9k
85HyJ/jIsm+KhzJzoUikRjBEMQswCQYDVQQGEwJERTEPMA0GA1UECAwGSGVzc2Vu
MRQwEgYDVQQKDAtwcml2YWN5aWRlYTEOMAwGA1UEAwwFQ0EwMDGCCQD7yOusg80S
BzATBgNVHSUEDDAKBggrBgEFBQcDATANBgkqhkiG9w0BAQsFAAOCAQEANj7mSZrx
f1Ke6RWMP5fBeK6zWvChBtSCZ2LPfUlIglmLqCQm4s/QvCqWE90yd3k7CHn7g5GY
QXd6f7osO+f+c/QZzZ4jnOpDPWBqUu3ykUwyr+JNN9bJ8liWX0Jr/oLo/QoyaCWc
qaBICKbQzp5u/KCqcT2ANUv6ogym7+7iXcBOYTe+kCUt66rG739RmmKAnxdbmyif
c/lPRR2XiZCjiijEAseTiFlnFMRsOLKVPF9ipUI3vHdW2izmu13IfnYey3UOzMz2
jL74tR1KKeV0/goBqXkAWMhVbvlECca/2dU3SWQf2BJg3XclVMZT3GbQ+i+UZ4SJ
fExUT7Xhlr+c7g==
-----END CERTIFICATE-----
