Certificate:
    Data:
        Version: 3 (0x2)
        Serial Number: 268435667 (0x100000d3)
        Signature Algorithm: sha256WithRSAEncryption
        Issuer: C=DE, ST=Hessen, O=privacyidea, CN=CA001
        Validity
            Not Before: Nov 17 10:20:37 2019 GMT
            Not After : Nov 16 10:20:37 2020 GMT
        Subject: C=DE, ST=Hessen, O=privacyidea, CN=usercert
        Subject Public Key Info:
            Public Key Algorithm: rsaEncryption
                RSA Public-Key: (2048 bit)
                Modulus:
                    00:dc:2f:d1:5f:29:97:d4:7c:c3:53:c8:30:bd:4b:
                    67:70:2c:24:6b:b8:5e:eb:21:7a:48:12:56:7c:81:
                    5c:48:75:b6:68:eb:f6:f2:98:4e:50:51:d1:7f:6c:
                    73:f3:0a:a7:ae:be:48:5e:e5:d6:e1:d9:2a:7c:32:
                    6e:4e:fd:08:f6:5a:54:49:23:73:c3:b9:07:18:d1:
                    ef:b3:ac:f8:8a:dc:94:96:a4:90:3a:8e:74:df:e6:
                    0d:37:1b:bd:5b:b7:25:1a:56:39:da:6f:91:aa:5e:
                    1c:74:f3:f9:7c:14:01:83:12:65:76:c7:bb:fe:36:
                    5b:95:e9:72:65:83:ed:3e:98:30:71:fa:87:dd:a3:
                    36:5a:30:03:2e:26:e0:61:d1:bf:02:3f:b6:06:1f:
                    4a:89:28:1c:5c:a2:ff:4e:be:94:e6:8c:e0:da:82:
                    f1:9d:29:32:48:30:73:b4:04:f6:42:1e:be:f7:e2:
                    32:32:27:3c:9d:89:2f:70:3e:85:9a:6f:5c:c5:09:
                    c0:8c:32:2f:72:22:c9:d2:95:1f:b6:ac:72:60:72:
                    b7:82:4d:6b:ce:5b:e3:00:d0:d2:2f:58:c6:e0:10:
                    e5:51:ca:4d:3b:2e:e6:7e:ab:84:d6:56:f1:93:35:
                    a0:93:64:26:81:75:2f:91:b5:16:06:38:0b:db:cc:
                    2d:07
                Exponent: 65537 (0x10001)
        X509v3 extensions:
            X509v3 Key Usage: 
                Digital Signature, Key Encipherment
            X509v3 Basic Constraints: 
                CA:FALSE
            Netscape Cert Type: 
                SSL Server
            Netscape Comment: 
                OpenSSL Generated Server Certificate
            X509v3 Subject Key Identifier: 
                FC:14:D1:F0:4B:8D:00:90:F2:F5:B8:71:9E:4E:97:C3:92:54:AD:0B
            X509v3 Authority Key Identifier: 
                keyid:F4:A7:C0:CC:91:46:AF:64:F3:91:F2:27:F8:C8:B2:6F:8A:87:32:73
                DirName:/C=DE/ST=Hessen/O=privacyidea/CN=CA001
                serial:FB:C8:EB:AC:83:CD:12:07

            X509v3 Extended Key Usage: 
                TLS Web Server Authentication
    Signature Algorithm: sha256WithRSAEncryption
         97:29:0a:d4:bb:6a:61:43:22:ed:b5:93:ca:e6:11:82:6d:12:
         d8:2a:0f:90:ed:b5:1f:91:2d:6b:af:24:9b:34:97:1c:70:7a:
         ca:af:53:df:06:57:da:93:dc:26:57:fa:c8:44:08:f2:cf:99:
         1c:9b:01:d5:37:13:66:ca:fa:a0:1e:a0:77:21:84:d8:14:f7:
         9d:d3:5b:e2:43:7c:b6:f3:64:c2:ed:62:fa:7a:a4:75:93:ed:
         b5:0c:44:7a:55:69:0d:ce:5a:84:e6:35:a2:32:1a:c8:ff:78:
         c7:97:bb:87:4b:6d:96:d2:0a:3b:28:36:96:9b:b4:c8:0f:99:
         6f:f3:f0:f0:6d:c5:35:89:4a:81:24:10:ce:2b:f9:e6:37:aa:
         04:66:59:5e:57:6c:34:a7:34:e9:8a:bc:c2:0c:6c:94:0f:f3:
         5f:ab:a2:c4:ee:49:ca:c6:d3:a0:b6:d9:fc:fd:45:9e:3d:7a:
         30:39:a3:e6:35:29:a8:3e:27:8b:26:94:3d:d5:99:73:67:fd:
         72:7e:03:9e:ed:7a:bd:d8:ce:4f:73:ac:be:d1:cf:d0:00:59:
         54:54:e7:c8:11:6d:94:de:06:b7:50:60:3d:18:68:10:98:c4:
         d9:9d:a5:a0:47:11:8c:63:10:62:4e:65:4e:4d:c5:e3:b8:f0:
         77:52:1a:b2
-----BEGIN CERTIFICATE-----
MIIEGTCCAwGgAwIBAgIEEAAA0zANBgkqhkiG9w0BAQsFADBEMQswCQYDVQQGEwJE
RTEPMA0GA1UECAwGSGVzc2VuMRQwEgYDVQQKDAtwcml2YWN5aWRlYTEOMAwGA1UE
AwwFQ0EwMDEwHhcNMTkxMTE3MTAyMDM3WhcNMjAxMTE2MTAyMDM3WjBHMQswCQYD
VQQGEwJERTEPMA0GA1UECAwGSGVzc2VuMRQwEgYDVQQKDAtwcml2YWN5aWRlYTER
MA8GA1UEAwwIdXNlcmNlcnQwggEiMA0GCSqGSIb3DQEBAQUAA4IBDwAwggEKAoIB
AQDcL9FfKZfUfMNTyDC9S2dwLCRruF7rIXpIElZ8gVxIdbZo6/bymE5QUdF/bHPz
Cqeuvkhe5dbh2Sp8Mm5O/Qj2WlRJI3PDuQcY0e+zrPiK3JSWpJA6jnTf5g03G71b
tyUaVjnab5GqXhx08/l8FAGDEmV2x7v+NluV6XJlg+0+mDBx+ofdozZaMAMuJuBh
0b8CP7YGH0qJKBxcov9OvpTmjODagvGdKTJIMHO0BPZCHr734jIyJzydiS9wPoWa
b1zFCcCMMi9yIsnSlR+2rHJgcreCTWvOW+MA0NIvWMbgEOVRyk07LuZ+q4TWVvGT
NaCTZCaBdS+RtRYGOAvbzC0HAgMBAAGjggEOMIIBCjALBgNVHQ8EBAMCBaAwCQYD
VR0TBAIwADARBglghkgBhvhCAQEEBAMCBkAwMwYJYIZIAYb4QgENBCYWJE9wZW5T
U0wgR2VuZXJhdGVkIFNlcnZlciBDZXJ0aWZpY2F0ZTAdBgNVHQ4EFgQU/BTR8EuN
AJDy9bhxnk6Xw5JUrQswdAYDVR0jBG0wa4AU9KfAzJFGr2TzkfIn+Miyb4qHMnOh
SKRGMEQxCzAJBgNVBAYTAkRFMQ8wDQYDVQQIDAZIZXNzZW4xFDASBgNVBAoMC3By
aXZhY3lpZGVhMQ4wDAYDVQQDDAVDQTAwMYIJAPvI66yDzRIHMBMGA1UdJQQMMAoG
CCsGAQUFBwMBMA0GCSqGSIb3DQEBCwUAA4IBAQCXKQrUu2phQyLttZPK5hGCbRLY
Kg+Q7bUfkS1rrySbNJcccHrKr1PfBlfak9wmV/rIRAjyz5kcmwHVNxNmyvqgHqB3
IYTYFPed01viQ3y282TC7WL6eqR1k+21DER6VWkNzlqE5jWiMhrI/3jHl7uHS22W
0go7KDaWm7TID5lv8/DwbcU1iUqBJBDOK/nmN6oEZlleV2w0pzTpirzCDGyUD/Nf
q6LE7knKxtOgttn8/UWePXowOaPmNSmoPieLJpQ91ZlzZ/1yfgOe7Xq92M5Pc6y+
0c/QAFlUVOfIEW2U3ga3UGA9GGgQmMTZnaWgRxGMYxBiTmVOTcXjuPB3Uhqy
-----END CERTIFICATE-----
