Certificate:
    Data:
        Version: 3 (0x2)
        Serial Number: 268435674 (0x100000da)
    Signature Algorithm: sha1WithRSAEncryption
        Issuer: C=DE, ST=Hessen, O=privacyidea, CN=CA001
        Validity
            Not Before: Apr 26 09:07:06 2016 GMT
            Not After : Apr 26 09:07:06 2017 GMT
        Subject: OU=privacyIDEA, CN=root
        Subject Public Key Info:
            Public Key Algorithm: rsaEncryption
                Public-Key: (2048 bit)
                Modulus:
                    00:c2:12:d8:b0:5d:ae:8c:c9:3d:14:ef:43:7e:6a:
                    34:0d:c1:07:07:b5:e1:77:b9:4d:6f:59:14:05:20:
                    38:52:e1:71:0b:b7:f3:43:0c:30:2f:9d:36:21:d2:
                    d1:d9:ec:b6:9c:d8:5b:5a:20:24:c2:c8:90:b4:be:
                    91:d5:b4:2c:d4:88:a0:e0:dd:25:db:fd:a6:a4:1a:
                    cf:1c:c3:29:49:66:dd:fd:24:56:d0:4b:10:e2:61:
                    1b:f6:33:59:b3:b8:ea:b6:96:ce:ae:f4:0c:26:0f:
                    01:fb:1f:88:bb:4f:ce:76:2a:7e:3d:ce:f3:29:3e:
                    61:47:fd:e5:03:d9:9e:f1:d2:1f:df:c6:01:19:d4:
                    67:11:83:ba:30:29:42:d3:2e:14:59:e2:55:33:eb:
                    72:95:a9:d6:0d:0d:fc:c3:5e:b4:16:79:04:09:64:
                    06:d0:dd:57:97:e0:bf:5f:ad:12:e4:aa:af:b9:14:
                    f7:af:4f:0e:11:66:f8:9e:41:b5:39:2e:de:5b:c4:
                    d4:ee:98:75:19:c7:fe:c7:3d:f5:19:2e:d7:22:d0:
                    53:ed:1c:87:f1:ad:de:ed:2b:35:6e:46:b6:ee:b1:
                    7d:bd:81:b2:5f:39:c4:64:f0:c8:53:d9:e8:63:4d:
                    d9:21:da:a9:71:25:3d:15:cd:d7:f7:97:b1:a9:d1:
                    87:bd
                Exponent: 65537 (0x10001)
        X509v3 extensions:
            X509v3 Key Usage: 
                Digital Signature, Key Encipherment
            X509v3 Basic Constraints: 
                CA:FALSE
            Netscape Cert Type: 
                SSL Server
            Netscape Comment: 
                OpenSSL Generated Server Certificate
            X509v3 Subject Key Identifier: 
                24:F3:B4:C8:74:CB:10:F2:C1:E0:A3:E1:6F:37:C0:92:BC:BC:65:D5
            X509v3 Authority Key Identifier: 
                keyid:F4:A7:C0:CC:91:46:AF:64:F3:91:F2:27:F8:C8:B2:6F:8A:87:32:73
                DirName:/C=DE/ST=Hessen/O=privacyidea/CN=CA001
                serial:FB:C8:EB:AC:83:CD:12:07

            X509v3 Extended Key Usage: 
                TLS Web Server Authentication
    Signature Algorithm: sha1WithRSAEncryption
         3f:98:3a:79:5b:04:af:0d:42:26:e3:93:89:d2:63:db:ab:fe:
         cb:f0:e6:65:f9:8e:4a:b4:95:6d:31:55:b0:82:a5:bc:09:ef:
         69:7d:95:18:28:c5:7a:c9:ea:12:f0:ff:d9:5b:3d:f4:bb:90:
         02:d0:7f:ad:08:38:bf:77:82:4a:7f:6f:27:27:b7:b0:16:69:
         d8:85:9a:09:a0:2d:75:02:b8:01:e9:3a:a8:5f:bd:ff:dd:6b:
         60:39:30:4c:62:0a:ae:4d:3c:2f:fe:dd:a2:b7:7c:6d:3e:1c:
         d8:8c:c4:98:51:55:ba:62:dd:93:bb:94:b7:a4:f6:d0:fe:6b:
         77:9a:0a:24:1c:dc:67:3a:1a:c9:2e:f4:87:8d:b4:67:a8:7b:
         77:03:5f:93:3a:3a:7b:db:0f:8a:94:c3:cf:c4:ed:0d:62:33:
         9f:30:df:09:28:f8:ef:24:b8:65:f9:e0:d1:b7:fe:4a:31:0a:
         a7:6e:a9:2f:70:4f:0b:cd:f8:9c:7f:fa:f9:9d:9b:16:8c:7b:
         a9:5c:fe:e1:c1:e9:c5:50:16:53:c7:a0:be:31:13:94:cc:44:
         9d:ff:52:47:27:94:79:b9:af:84:a4:92:9f:56:f2:40:84:ce:
         99:1a:21:38:00:2c:74:9e:ee:95:b5:a3:11:f4:5d:c7:c5:54:
         98:0a:75:d2
-----BEGIN CERTIFICATE-----
MIID9zCCAt+gAwIBAgIEEAAA2jANBgkqhkiG9w0BAQUFADBEMQswCQYDVQQGEwJE
RTEPMA0GA1UECAwGSGVzc2VuMRQwEgYDVQQKDAtwcml2YWN5aWRlYTEOMAwGA1UE
AwwFQ0EwMDEwHhcNMTYwNDI2MDkwNzA2WhcNMTcwNDI2MDkwNzA2WjAlMRQwEgYD
VQQLEwtwcml2YWN5SURFQTENMAsGA1UEAxMEcm9vdDCCASIwDQYJKoZIhvcNAQEB
BQADggEPADCCAQoCggEBAMIS2LBdrozJPRTvQ35qNA3BBwe14Xe5TW9ZFAUgOFLh
cQu380MMMC+dNiHS0dnstpzYW1ogJMLIkLS+kdW0LNSIoODdJdv9pqQazxzDKUlm
3f0kVtBLEOJhG/YzWbO46raWzq70DCYPAfsfiLtPznYqfj3O8yk+YUf95QPZnvHS
H9/GARnUZxGDujApQtMuFFniVTPrcpWp1g0N/MNetBZ5BAlkBtDdV5fgv1+tEuSq
r7kU969PDhFm+J5BtTku3lvE1O6YdRnH/sc99Rku1yLQU+0ch/Gt3u0rNW5Gtu6x
fb2Bsl85xGTwyFPZ6GNN2SHaqXElPRXN1/eXsanRh70CAwEAAaOCAQ4wggEKMAsG
A1UdDwQEAwIFoDAJBgNVHRMEAjAAMBEGCWCGSAGG+EIBAQQEAwIGQDAzBglghkgB
hvhCAQ0EJhYkT3BlblNTTCBHZW5lcmF0ZWQgU2VydmVyIENlcnRpZmljYXRlMB0G
A1UdDgQWBBQk87TIdMsQ8sHgo+FvN8CSvLxl1TB0BgNVHSMEbTBrgBT0p8DMkUav
ZPOR8if4yLJviocyc6FIpEYwRDELMAkGA1UEBhMCREUxDzANBgNVBAgMBkhlc3Nl
bjEUMBIGA1UECgwLcHJpdmFjeWlkZWExDjAMBgNVBAMMBUNBMDAxggkA+8jrrIPN
EgcwEwYDVR0lBAwwCgYIKwYBBQUHAwEwDQYJKoZIhvcNAQEFBQADggEBAD+YOnlb
BK8NQibjk4nSY9ur/svw5mX5jkq0lW0xVbCCpbwJ72l9lRgoxXrJ6hLw/9lbPfS7
kALQf60IOL93gkp/bycnt7AWadiFmgmgLXUCuAHpOqhfvf/da2A5MExiCq5NPC/+
3aK3fG0+HNiMxJhRVbpi3ZO7lLek9tD+a3eaCiQc3Gc6Gsku9IeNtGeoe3cDX5M6
OnvbD4qUw8/E7Q1iM58w3wko+O8kuGX54NG3/koxCqduqS9wTwvN+Jx/+vmdmxaM
e6lc/uHB6cVQFlPHoL4xE5TMRJ3/UkcnlHm5r4Skkp9W8kCEzpkaITgALHSe7pW1
oxH0XcfFVJgKddI=
-----END CERTIFICATE-----
