Certificate:
    Data:
        Version: 3 (0x2)
        Serial Number: 268435679 (0x100000df)
    Signature Algorithm: sha1WithRSAEncryption
        Issuer: C=DE, ST=Hessen, O=privacyidea, CN=CA001
        Validity
            Not Before: Apr 26 09:09:11 2016 GMT
            Not After : Apr 26 09:09:11 2017 GMT
        Subject: OU=privacyIDEA, CN=root/emailAddress=hallo
        Subject Public Key Info:
            Public Key Algorithm: rsaEncryption
                Public-Key: (2048 bit)
                Modulus:
                    00:e4:44:36:b9:37:8a:6b:9c:b9:89:64:f4:c1:8e:
                    c5:c1:5e:04:e4:3c:54:d1:4c:ed:68:72:11:0f:c3:
                    d9:7e:72:a6:46:51:f5:00:e7:06:33:25:27:18:7a:
                    db:d2:21:47:02:d8:e2:9c:2e:09:50:2e:38:45:44:
                    c3:e1:af:dd:aa:74:67:e5:30:7f:b2:e6:ee:fd:52:
                    c7:bf:70:14:af:76:8c:56:79:c8:f6:13:43:6a:93:
                    11:2a:da:32:eb:71:c3:75:4d:26:d2:6c:93:59:23:
                    f3:9f:1d:e3:6c:3b:f0:a0:f3:b1:93:90:3d:51:86:
                    c2:71:80:5d:b6:bf:78:ec:69:fb:59:8b:25:9e:bb:
                    b8:28:aa:de:c0:83:b6:cb:6d:13:57:78:4f:d6:81:
                    e1:d4:57:fa:78:20:1d:f5:43:0e:20:f1:69:1b:9c:
                    99:0a:5a:23:ba:e3:e0:15:58:f5:a7:5a:37:03:b1:
                    0a:ee:a3:9c:7f:27:91:ca:e8:1f:2b:26:2d:d7:3a:
                    5d:ce:e2:97:47:04:64:ef:dc:f4:8e:87:61:ff:44:
                    8e:8f:3f:88:39:17:96:53:b7:d4:23:64:c0:84:ca:
                    52:0d:a8:60:16:9d:f5:d9:eb:f4:86:0f:8f:9e:ba:
                    cf:82:e1:6e:8b:b5:d7:ea:f9:99:f4:9a:a5:ca:ab:
                    c5:c7
                Exponent: 65537 (0x10001)
        X509v3 extensions:
            X509v3 Key Usage: 
                Digital Signature, Key Encipherment
            X509v3 Basic Constraints: 
                CA:FALSE
            Netscape Cert Type: 
                SSL Server
            Netscape Comment: 
                OpenSSL Generated Server Certificate
            X509v3 Subject Key Identifier: 
                9E:B9:3B:F1:E5:2D:6B:E9:1F:AC:2B:AC:10:7C:B4:07:56:04:B7:13
            X509v3 Authority Key Identifier: 
                keyid:F4:A7:C0:CC:91:46:AF:64:F3:91:F2:27:F8:C8:B2:6F:8A:87:32:73
                DirName:/C=DE/ST=Hessen/O=privacyidea/CN=CA001
                serial:FB:C8:EB:AC:83:CD:12:07

            X509v3 Extended Key Usage: 
                TLS Web Server Authentication
    Signature Algorithm: sha1WithRSAEncryption
         ad:80:51:c4:7f:32:44:e5:83:10:dc:c1:43:a2:82:68:60:5c:
         c1:18:d9:29:69:1e:a2:9e:d7:ee:f8:26:68:f2:3f:37:d3:72:
         15:be:a5:96:29:8e:9b:45:69:62:a8:25:50:12:6d:b1:8a:99:
         74:f8:ec:88:4b:64:56:7f:ec:a8:34:5b:67:a8:80:58:7e:64:
         cc:3a:ab:4f:02:01:2c:07:2b:c2:15:c1:5e:62:50:a7:0c:b4:
         d1:f2:5e:73:8a:23:7a:24:79:f6:f6:9c:32:cd:05:b2:b9:8f:
         54:7b:a6:75:00:de:1a:3b:c7:a5:f8:76:b6:4f:62:57:4d:39:
         16:78:89:a9:6f:b7:fc:85:87:6f:db:26:36:5f:d0:bc:6a:94:
         79:1d:c5:61:79:2e:8c:9e:31:86:36:15:ba:2d:24:b5:28:b2:
         8f:90:14:4a:6b:25:2b:c5:cf:00:72:c1:3d:a0:a1:bb:3d:69:
         bc:d6:31:6b:08:c5:8f:d0:5a:a8:a2:65:3b:4f:26:fa:5d:76:
         f7:98:30:90:78:e8:3b:40:22:9b:9f:c2:10:5e:77:e7:d8:ea:
         fa:7d:2a:9c:c2:6e:cf:dc:60:aa:c3:ee:2a:c2:d8:f6:11:99:
         fe:60:26:20:2e:ef:99:7b:db:f8:b9:54:95:67:51:9f:93:76:
         c1:3c:d7:2a
-----BEGIN CERTIFICATE-----
MIIEDTCCAvWgAwIBAgIEEAAA3zANBgkqhkiG9w0BAQUFADBEMQswCQYDVQQGEwJE
RTEPMA0GA1UECAwGSGVzc2VuMRQwEgYDVQQKDAtwcml2YWN5aWRlYTEOMAwGA1UE
AwwFQ0EwMDEwHhcNMTYwNDI2MDkwOTExWhcNMTcwNDI2MDkwOTExWjA7MRQwEgYD
VQQLEwtwcml2YWN5SURFQTENMAsGA1UEAxMEcm9vdDEUMBIGCSqGSIb3DQEJARYF
aGFsbG8wggEiMA0GCSqGSIb3DQEBAQUAA4IBDwAwggEKAoIBAQDkRDa5N4prnLmJ
ZPTBjsXBXgTkPFTRTO1ochEPw9l+cqZGUfUA5wYzJScYetvSIUcC2OKcLglQLjhF
RMPhr92qdGflMH+y5u79Use/cBSvdoxWecj2E0NqkxEq2jLrccN1TSbSbJNZI/Of
HeNsO/Cg87GTkD1RhsJxgF22v3jsaftZiyWeu7goqt7Ag7bLbRNXeE/WgeHUV/p4
IB31Qw4g8WkbnJkKWiO64+AVWPWnWjcDsQruo5x/J5HK6B8rJi3XOl3O4pdHBGTv
3PSOh2H/RI6PP4g5F5ZTt9QjZMCEylINqGAWnfXZ6/SGD4+eus+C4W6Ltdfq+Zn0
mqXKq8XHAgMBAAGjggEOMIIBCjALBgNVHQ8EBAMCBaAwCQYDVR0TBAIwADARBglg
hkgBhvhCAQEEBAMCBkAwMwYJYIZIAYb4QgENBCYWJE9wZW5TU0wgR2VuZXJhdGVk
IFNlcnZlciBDZXJ0aWZpY2F0ZTAdBgNVHQ4EFgQUnrk78eUta+kfrCusEHy0B1YE
txMwdAYDVR0jBG0wa4AU9KfAzJFGr2TzkfIn+Miyb4qHMnOhSKRGMEQxCzAJBgNV
BAYTAkRFMQ8wDQYDVQQIDAZIZXNzZW4xFDASBgNVBAoMC3ByaXZhY3lpZGVhMQ4w
DAYDVQQDDAVDQTAwMYIJAPvI66yDzRIHMBMGA1UdJQQMMAoGCCsGAQUFBwMBMA0G
CSqGSIb3DQEBBQUAA4IBAQCtgFHEfzJE5YMQ3MFDooJoYFzBGNkpaR6intfu+CZo
8j8303IVvqWWKY6bRWliqCVQEm2xipl0+OyIS2RWf+yoNFtnqIBYfmTMOqtPAgEs
ByvCFcFeYlCnDLTR8l5ziiN6JHn29pwyzQWyuY9Ue6Z1AN4aO8el+Ha2T2JXTTkW
eImpb7f8hYdv2yY2X9C8apR5HcVheS6MnjGGNhW6LSS1KLKPkBRKayUrxc8AcsE9
oKG7PWm81jFrCMWP0FqoomU7Tyb6XXb3mDCQeOg7QCKbn8IQXnfn2Or6fSqcwm7P
3GCqw+4qwtj2EZn+YCYgLu+Ze9v4uVSVZ1Gfk3bBPNcq
-----END CERTIFICATE-----
