Certificate:
    Data:
        Version: 3 (0x2)
        Serial Number: 268435670 (0x100000d6)
    Signature Algorithm: sha1WithRSAEncryption
        Issuer: C=DE, ST=Hessen, O=privacyidea, CN=CA001
        Validity
            Not Before: Apr 26 09:01:04 2016 GMT
            Not After : Apr 26 09:01:04 2017 GMT
        Subject: CN=root
        Subject Public Key Info:
            Public Key Algorithm: rsaEncryption
                Public-Key: (2048 bit)
                Modulus:
                    00:b1:4d:15:ec:aa:c4:0c:69:95:2f:4b:c1:7f:c7:
                    92:fa:2f:d7:ef:55:e7:c8:a5:a0:63:29:77:f0:5f:
                    70:e1:7a:a5:98:d7:7c:4c:7d:11:31:78:b6:d9:4e:
                    68:51:ae:8a:f3:58:e4:8d:ce:06:9c:66:1f:6f:cb:
                    d9:ae:d1:da:b4:38:e6:8e:53:56:13:06:d1:c1:ea:
                    33:51:c5:f5:fc:28:f7:e4:6e:1f:b1:2d:3c:15:4b:
                    6f:0c:69:9d:2b:69:14:ef:f2:cc:3c:fd:84:58:76:
                    8f:9d:f7:9c:1f:f3:60:7c:25:fc:94:18:55:d7:c7:
                    41:87:21:6e:e5:a9:5a:eb:dc:75:4e:0b:3e:01:98:
                    20:75:90:07:e4:03:42:e0:1e:26:c5:79:cb:61:75:
                    a4:d4:7d:da:d1:51:c9:c0:04:ce:30:0e:68:c4:ba:
                    84:49:aa:d9:1b:04:06:74:6a:ec:e1:56:f1:3d:8c:
                    0f:fc:b9:1c:e4:b7:76:30:c3:f3:8d:16:07:2a:eb:
                    aa:58:42:f3:51:1e:ed:bd:ca:3f:5e:25:ae:95:27:
                    f6:58:4a:f9:7b:3f:5a:2d:e3:0f:39:af:98:18:fa:
                    dc:0a:6d:2f:fa:66:fe:0a:d0:6a:10:b3:df:95:fc:
                    79:b4:03:d0:06:34:91:2b:b1:25:16:45:cc:eb:8d:
                    db:61
                Exponent: 65537 (0x10001)
        X509v3 extensions:
            X509v3 Key Usage: 
                Digital Signature, Key Encipherment
            X509v3 Basic Constraints: 
                CA:FALSE
            Netscape Cert Type: 
                SSL Server
            Netscape Comment: 
                OpenSSL Generated Server Certificate
            X509v3 Subject Key Identifier: 
                80:18:95:96:D6:02:8F:CB:FA:DA:FA:A0:3C:5E:0B:43:37:FF:AE:1E
            X509v3 Authority Key Identifier: 
                keyid:F4:A7:C0:CC:91:46:AF:64:F3:91:F2:27:F8:C8:B2:6F:8A:87:32:73
                DirName:/C=DE/ST=Hessen/O=privacyidea/CN=CA001
                serial:FB:C8:EB:AC:83:CD:12:07

            X509v3 Extended Key Usage: 
                TLS Web Server Authentication
    Signature Algorithm: sha1WithRSAEncryption
         bf:9a:03:32:e9:e9:ae:06:f4:07:61:a5:f4:4e:0d:d3:a3:9d:
         a1:39:fc:56:97:72:10:eb:e1:c6:05:ab:9e:e0:3e:4e:56:0d:
         50:ca:73:35:b5:bc:22:5f:51:2d:f1:4f:45:38:26:1d:a9:78:
         7e:93:bc:21:e1:c8:de:a6:d5:d0:91:5c:22:8a:5a:c3:33:74:
         d9:65:ba:75:bd:99:65:50:a4:32:0b:87:3c:ee:91:a1:b7:d8:
         2e:2d:c0:31:df:09:0a:30:02:55:52:81:07:6f:e3:7f:c6:ae:
         72:8d:92:e0:77:cb:e4:ae:68:5a:d8:d7:77:71:32:27:1e:d8:
         d7:40:dd:77:cb:91:f3:ce:b3:80:df:47:af:ec:11:22:c6:e3:
         2f:7d:75:30:49:41:61:62:92:3c:d1:ed:2d:37:e7:e0:ad:b0:
         b6:92:3e:61:5f:bf:e9:66:25:1a:cf:c2:f9:54:f6:af:e1:b9:
         e2:66:89:51:48:71:e0:38:36:2f:33:d5:a1:a2:a7:86:d6:fc:
         ab:7c:d9:25:f4:35:92:7a:2b:56:21:54:49:4d:6d:09:a4:d3:
         8e:97:bd:dc:da:41:e7:77:0e:40:45:bb:ca:71:8c:8a:49:34:
         e9:f8:c7:50:5e:09:dd:0f:32:21:89:65:85:f6:19:69:e3:91:
         d9:f2:a0:81
-----BEGIN CERTIFICATE-----
MIID4TCCAsmgAwIBAgIEEAAA1jANBgkqhkiG9w0BAQUFADBEMQswCQYDVQQGEwJE
RTEPMA0GA1UECAwGSGVzc2VuMRQwEgYDVQQKDAtwcml2YWN5aWRlYTEOMAwGA1UE
AwwFQ0EwMDEwHhcNMTYwNDI2MDkwMTA0WhcNMTcwNDI2MDkwMTA0WjAPMQ0wCwYD
VQQDEwRyb290MIIBIjANBgkqhkiG9w0BAQEFAAOCAQ8AMIIBCgKCAQEAsU0V7KrE
DGmVL0vBf8eS+i/X71XnyKWgYyl38F9w4XqlmNd8TH0RMXi22U5oUa6K81jkjc4G
nGYfb8vZrtHatDjmjlNWEwbRweozUcX1/Cj35G4fsS08FUtvDGmdK2kU7/LMPP2E
WHaPnfecH/NgfCX8lBhV18dBhyFu5ala69x1Tgs+AZggdZAH5ANC4B4mxXnLYXWk
1H3a0VHJwATOMA5oxLqESarZGwQGdGrs4VbxPYwP/Lkc5Ld2MMPzjRYHKuuqWELz
UR7tvco/XiWulSf2WEr5ez9aLeMPOa+YGPrcCm0v+mb+CtBqELPflfx5tAPQBjSR
K7ElFkXM643bYQIDAQABo4IBDjCCAQowCwYDVR0PBAQDAgWgMAkGA1UdEwQCMAAw
EQYJYIZIAYb4QgEBBAQDAgZAMDMGCWCGSAGG+EIBDQQmFiRPcGVuU1NMIEdlbmVy
YXRlZCBTZXJ2ZXIgQ2VydGlmaWNhdGUwHQYDVR0OBBYEFIAYlZbWAo/L+tr6oDxe
C0M3/64eMHQGA1UdIwRtMGuAFPSnwMyRRq9k85HyJ/jIsm+KhzJzoUikRjBEMQsw
CQYDVQQGEwJERTEPMA0GA1UECAwGSGVzc2VuMRQwEgYDVQQKDAtwcml2YWN5aWRl
YTEOMAwGA1UEAwwFQ0EwMDGCCQD7yOusg80SBzATBgNVHSUEDDAKBggrBgEFBQcD
ATANBgkqhkiG9w0BAQUFAAOCAQEAv5oDMunprgb0B2Gl9E4N06OdoTn8VpdyEOvh
xgWrnuA+TlYNUMpzNbW8Il9RLfFPRTgmHal4fpO8IeHI3qbV0JFcIopawzN02WW6
db2ZZVCkMguHPO6RobfYLi3AMd8JCjACVVKBB2/jf8auco2S4HfL5K5oWtjXd3Ey
Jx7Y10Ddd8uR886zgN9Hr+wRIsbjL311MElBYWKSPNHtLTfn4K2wtpI+YV+/6WYl
Gs/C+VT2r+G54maJUUhx4Dg2LzPVoaKnhtb8q3zZJfQ1knorViFUSU1tCaTTjpe9
3NpB53cOQEW7ynGMikk06fjHUF4J3Q8yIYllhfYZaeOR2fKggQ==
-----END CERTIFICATE-----
